---
triple:          'arm64-apple-darwin'
binary-path:     '/Users/jackdouglass/Desktop/async/biospy/rust-core/target/debug/deps/libbiospy_core.dylib'
relocations:
  - { offset: 0x1E, size: 0x8, addend: 0x0, symName: '__ZN3std4sync9lazy_lock21LazyLock$LT$T$C$F$GT$5force28_$u7b$$u7b$closure$u7d$$u7d$17hb899b471551acad7E', symObjAddr: 0x0, symBinAddr: 0x888, symSize: 0x78 }
  - { offset: 0x11E, size: 0x8, addend: 0x0, symName: '__ZN3std4sync9lazy_lock21LazyLock$LT$T$C$F$GT$5force28_$u7b$$u7b$closure$u7d$$u7d$17hb899b471551acad7E', symObjAddr: 0x0, symBinAddr: 0x888, symSize: 0x78 }
  - { offset: 0x2C3, size: 0x8, addend: 0x0, symName: '__ZN87_$LT$std..sync..lazy_lock..LazyLock$LT$T$C$F$GT$$u20$as$u20$core..ops..deref..Deref$GT$5deref17ha2302aaaded1341bE', symObjAddr: 0x78, symBinAddr: 0x900, symSize: 0x34 }
  - { offset: 0x5FA, size: 0x8, addend: 0x0, symName: __ZN4pyo35types10typeobject6PyType22from_borrowed_type_ptr17h26796b60f408b9f7E, symObjAddr: 0x0, symBinAddr: 0x934, symSize: 0x34 }
  - { offset: 0x1D3F, size: 0x8, addend: 0x0, symName: __ZN4pyo35types10typeobject6PyType22from_borrowed_type_ptr17h26796b60f408b9f7E, symObjAddr: 0x0, symBinAddr: 0x934, symSize: 0x34 }
  - { offset: 0x1D98, size: 0x8, addend: 0x0, symName: '__ZN105_$LT$std..collections..hash..map..Iter$LT$K$C$V$GT$$u20$as$u20$core..iter..traits..iterator..Iterator$GT$4next17h14d68e98bd2dbc09E', symObjAddr: 0x0, symBinAddr: 0x968, symSize: 0x24 }
  - { offset: 0x1DBE, size: 0x8, addend: 0x0, symName: '__ZN105_$LT$std..collections..hash..map..Iter$LT$K$C$V$GT$$u20$as$u20$core..iter..traits..iterator..Iterator$GT$4next17h14d68e98bd2dbc09E', symObjAddr: 0x0, symBinAddr: 0x968, symSize: 0x24 }
  - { offset: 0x1DFE, size: 0x8, addend: 0x0, symName: '__ZN105_$LT$std..collections..hash..map..Iter$LT$K$C$V$GT$$u20$as$u20$core..iter..traits..iterator..Iterator$GT$9size_hint17h54c935e2cabd3c9aE', symObjAddr: 0x24, symBinAddr: 0x98C, symSize: 0x2C }
  - { offset: 0x2840, size: 0x8, addend: 0x0, symName: __ZN4core4iter6traits8iterator8Iterator3map17h84a9c4f1f4dd5282E, symObjAddr: 0x2E8, symBinAddr: 0xC50, symSize: 0x30 }
  - { offset: 0x2A4E, size: 0x8, addend: 0x0, symName: '__ZN3std11collections4hash3map18Entry$LT$K$C$V$GT$9or_insert17h463acb0b64edc657E', symObjAddr: 0x50, symBinAddr: 0x9B8, symSize: 0x130 }
  - { offset: 0x2CDF, size: 0x8, addend: 0x0, symName: '__ZN3std11collections4hash3map24HashMap$LT$K$C$V$C$S$GT$11with_hasher17h4c7b23d5cdcf8954E', symObjAddr: 0x180, symBinAddr: 0xAE8, symSize: 0x6C }
  - { offset: 0x2DB4, size: 0x8, addend: 0x0, symName: '__ZN3std11collections4hash3map24HashMap$LT$K$C$V$C$S$GT$3len17he9f84a20733a043aE', symObjAddr: 0x1EC, symBinAddr: 0xB54, symSize: 0x18 }
  - { offset: 0x2E55, size: 0x8, addend: 0x0, symName: '__ZN3std11collections4hash3map24HashMap$LT$K$C$V$C$S$GT$4iter17h5a749a6f6631071dE', symObjAddr: 0x204, symBinAddr: 0xB6C, symSize: 0x44 }
  - { offset: 0x2EA0, size: 0x8, addend: 0x0, symName: '__ZN3std11collections4hash3map24HashMap$LT$K$C$V$C$S$GT$5entry17h89b30c2373d5c9dbE', symObjAddr: 0x248, symBinAddr: 0xBB0, symSize: 0xA0 }
  - { offset: 0x2FAF, size: 0x8, addend: 0x0, symName: '__ZN108_$LT$core..iter..adapters..filter..Filter$LT$I$C$P$GT$$u20$as$u20$core..iter..traits..iterator..Iterator$GT$5count17h22c424dd9bc9736cE', symObjAddr: 0x0, symBinAddr: 0xC80, symSize: 0x50 }
  - { offset: 0x3139, size: 0x8, addend: 0x0, symName: '__ZN108_$LT$core..iter..adapters..filter..Filter$LT$I$C$P$GT$$u20$as$u20$core..iter..traits..iterator..Iterator$GT$5count8to_usize28_$u7b$$u7b$closure$u7d$$u7d$17h0a58b7d7e6e9a3a2E', symObjAddr: 0xA0, symBinAddr: 0xD20, symSize: 0x5C }
  - { offset: 0x3187, size: 0x8, addend: 0x0, symName: '__ZN108_$LT$core..iter..adapters..filter..Filter$LT$I$C$P$GT$$u20$as$u20$core..iter..traits..iterator..Iterator$GT$5count8to_usize28_$u7b$$u7b$closure$u7d$$u7d$17h7a62e05da6b5ae80E', symObjAddr: 0xFC, symBinAddr: 0xD7C, symSize: 0x5C }
  - { offset: 0x31D7, size: 0x8, addend: 0x0, symName: '__ZN108_$LT$core..iter..adapters..filter..Filter$LT$I$C$P$GT$$u20$as$u20$core..iter..traits..iterator..Iterator$GT$5count17h22c424dd9bc9736cE', symObjAddr: 0x0, symBinAddr: 0xC80, symSize: 0x50 }
  - { offset: 0x3265, size: 0x8, addend: 0x0, symName: '__ZN108_$LT$core..iter..adapters..filter..Filter$LT$I$C$P$GT$$u20$as$u20$core..iter..traits..iterator..Iterator$GT$5count17h7554b20ff22b846fE', symObjAddr: 0x50, symBinAddr: 0xCD0, symSize: 0x50 }
  - { offset: 0x3536, size: 0x8, addend: 0x0, symName: '__ZN11biospy_core4kmer10hash_bytes5STATE28_$u7b$$u7b$closure$u7d$$u7d$17h161a31ddbbb3a960E', symObjAddr: 0x0, symBinAddr: 0xDD8, symSize: 0x40 }
  - { offset: 0x3588, size: 0x8, addend: 0x0, symName: '__ZN11biospy_core4kmer10hash_bytes5STATE28_$u7b$$u7b$closure$u7d$$u7d$17h161a31ddbbb3a960E', symObjAddr: 0x0, symBinAddr: 0xDD8, symSize: 0x40 }
  - { offset: 0x35C3, size: 0x8, addend: 0x0, symName: '__ZN11biospy_core4kmer11KmerCounter5top_n28_$u7b$$u7b$closure$u7d$$u7d$17h1b5ec7f42fba96adE', symObjAddr: 0x40, symBinAddr: 0xE18, symSize: 0x30 }
  - { offset: 0x3607, size: 0x8, addend: 0x0, symName: '__ZN11biospy_core4kmer11KmerCounter5top_n28_$u7b$$u7b$closure$u7d$$u7d$17h1fc433718f024815E', symObjAddr: 0x70, symBinAddr: 0xE48, symSize: 0x30 }
  - { offset: 0x364E, size: 0x8, addend: 0x0, symName: '__ZN11biospy_core4kmer14canonical_hash28_$u7b$$u7b$closure$u7d$$u7d$17h87c2b7a38c517b29E', symObjAddr: 0xA0, symBinAddr: 0xE78, symSize: 0x30 }
  - { offset: 0x37C3, size: 0x8, addend: 0x0, symName: '__ZN11biospy_core2py11biospy_core11__pyo3_init28_$u7b$$u7b$closure$u7d$$u7d$17h9e681c6207e1937bE', symObjAddr: 0x0, symBinAddr: 0xEA8, symSize: 0x30 }
  - { offset: 0x4BC7, size: 0x8, addend: 0x0, symName: '__ZN11biospy_core2py11biospy_core11__pyo3_init28_$u7b$$u7b$closure$u7d$$u7d$17h9e681c6207e1937bE', symObjAddr: 0x0, symBinAddr: 0xEA8, symSize: 0x30 }
  - { offset: 0x54CD, size: 0x8, addend: 0x0, symName: '__ZN128_$LT$pyo3..impl_..pyclass_init..PyNativeTypeInitializer$LT$T$GT$$u20$as$u20$pyo3..impl_..pyclass_init..PyObjectInit$LT$T$GT$$GT$15into_new_object17h2cc17c23af23a3a2E', symObjAddr: 0x0, symBinAddr: 0xED8, symSize: 0x3C }
  - { offset: 0x68D1, size: 0x8, addend: 0x0, symName: '__ZN128_$LT$pyo3..impl_..pyclass_init..PyNativeTypeInitializer$LT$T$GT$$u20$as$u20$pyo3..impl_..pyclass_init..PyObjectInit$LT$T$GT$$GT$15into_new_object17h2cc17c23af23a3a2E', symObjAddr: 0x0, symBinAddr: 0xED8, symSize: 0x3C }
  - { offset: 0x6955, size: 0x8, addend: 0x0, symName: '__ZN128_$LT$pyo3..impl_..pyclass_init..PyNativeTypeInitializer$LT$T$GT$$u20$as$u20$pyo3..impl_..pyclass_init..PyObjectInit$LT$T$GT$$GT$17can_be_subclassed17h3a94b58d98b96c19E', symObjAddr: 0x3C, symBinAddr: 0xF14, symSize: 0x18 }
  - { offset: 0x721C, size: 0x8, addend: 0x0, symName: __ZN4core3ptr19copy_nonoverlapping18precondition_check17h19da44ea4ace2d95E, symObjAddr: 0x0, symBinAddr: 0xF2C, symSize: 0x168 }
  - { offset: 0x7447, size: 0x8, addend: 0x0, symName: __ZN4core3ptr19copy_nonoverlapping18precondition_check17h19da44ea4ace2d95E, symObjAddr: 0x0, symBinAddr: 0xF2C, symSize: 0x168 }
  - { offset: 0x7601, size: 0x8, addend: 0x0, symName: __ZN4core3ptr19swap_nonoverlapping18precondition_check17h089513fb6f693a60E, symObjAddr: 0x168, symBinAddr: 0x1094, symSize: 0x16C }
  - { offset: 0x7825, size: 0x8, addend: 0x0, symName: __ZN4core3ptr25swap_nonoverlapping_bytes17hf878ad57d00a3932E, symObjAddr: 0x2D4, symBinAddr: 0x1200, symSize: 0xD8 }
  - { offset: 0x79CE, size: 0x8, addend: 0x0, symName: __ZN4core3ptr25swap_nonoverlapping_bytes25swap_nonoverlapping_short17h532b45f504bbf503E, symObjAddr: 0x3AC, symBinAddr: 0x12D8, symSize: 0x11C }
  - { offset: 0x7B60, size: 0x8, addend: 0x0, symName: __ZN4core3ptr4copy18precondition_check17hfea71f283a45276bE, symObjAddr: 0x4C8, symBinAddr: 0x13F4, symSize: 0x130 }
  - { offset: 0x7E76, size: 0x8, addend: 0x0, symName: __ZN9getrandom4util12ptr_from_mut17h056738209378b68cE, symObjAddr: 0x0, symBinAddr: 0x1524, symSize: 0x18 }
  - { offset: 0x7E8D, size: 0x8, addend: 0x0, symName: __ZN9getrandom4util12ptr_from_mut17h056738209378b68cE, symObjAddr: 0x0, symBinAddr: 0x1524, symSize: 0x18 }
  - { offset: 0x7EC2, size: 0x8, addend: 0x0, symName: __ZN9getrandom4util12ptr_from_mut17h82afbaa849d021e2E, symObjAddr: 0x18, symBinAddr: 0x153C, symSize: 0x18 }
  - { offset: 0x8013, size: 0x8, addend: 0x0, symName: '__ZN4core3num21_$LT$impl$u20$u16$GT$13from_ne_bytes17hafd33ed0035efb50E', symObjAddr: 0x0, symBinAddr: 0x1554, symSize: 0x1C }
  - { offset: 0x802F, size: 0x8, addend: 0x0, symName: '__ZN4core3num21_$LT$impl$u20$u16$GT$13from_ne_bytes17hafd33ed0035efb50E', symObjAddr: 0x0, symBinAddr: 0x1554, symSize: 0x1C }
  - { offset: 0x8063, size: 0x8, addend: 0x0, symName: '__ZN4core3num21_$LT$impl$u20$u32$GT$13from_ne_bytes17ha7bbfd993682d550E', symObjAddr: 0x1C, symBinAddr: 0x1570, symSize: 0x1C }
  - { offset: 0x8097, size: 0x8, addend: 0x0, symName: '__ZN4core3num21_$LT$impl$u20$u64$GT$13from_ne_bytes17h4f9b52c2b68206ceE', symObjAddr: 0x38, symBinAddr: 0x158C, symSize: 0x1C }
  - { offset: 0x80CB, size: 0x8, addend: 0x0, symName: '__ZN4core3num22_$LT$impl$u20$u128$GT$13from_ne_bytes17h0206bf66b3a1a8ddE', symObjAddr: 0x54, symBinAddr: 0x15A8, symSize: 0x18 }
  - { offset: 0x8123, size: 0x8, addend: 0x0, symName: '__ZN4core3num23_$LT$impl$u20$isize$GT$13unchecked_neg18precondition_check17h2207ad7410ff4b63E', symObjAddr: 0x6C, symBinAddr: 0x15C0, symSize: 0x6C }
  - { offset: 0x81DA, size: 0x8, addend: 0x0, symName: '__ZN4core3num23_$LT$impl$u20$usize$GT$13unchecked_add18precondition_check17h10fab3eb458bceccE', symObjAddr: 0xD8, symBinAddr: 0x162C, symSize: 0x64 }
  - { offset: 0x8259, size: 0x8, addend: 0x0, symName: '__ZN4core3num23_$LT$impl$u20$usize$GT$13unchecked_sub18precondition_check17h002d053701e7e3a0E', symObjAddr: 0x13C, symBinAddr: 0x1690, symSize: 0x60 }
  - { offset: 0x83C8, size: 0x8, addend: 0x0, symName: '__ZN4pyo35impl_4wrap30IntoPyObjectConverter$LT$T$GT$4wrap17h0a6d3b6853ae4970E', symObjAddr: 0x0, symBinAddr: 0x16F0, symSize: 0x24 }
  - { offset: 0xA7B9, size: 0x8, addend: 0x0, symName: '__ZN4pyo35impl_4wrap62IntoPyObjectConverter$LT$core..result..Result$LT$T$C$E$GT$$GT$12map_into_ptr28_$u7b$$u7b$closure$u7d$$u7d$17h27db1c0a02669a0eE', symObjAddr: 0x2A4, symBinAddr: 0x1994, symSize: 0x34 }
  - { offset: 0xA811, size: 0x8, addend: 0x0, symName: '__ZN4pyo35impl_4wrap62IntoPyObjectConverter$LT$core..result..Result$LT$T$C$E$GT$$GT$12map_into_ptr28_$u7b$$u7b$closure$u7d$$u7d$17h2c1bd8e89202d606E', symObjAddr: 0x2D8, symBinAddr: 0x19C8, symSize: 0x34 }
  - { offset: 0xA869, size: 0x8, addend: 0x0, symName: '__ZN4pyo35impl_4wrap62IntoPyObjectConverter$LT$core..result..Result$LT$T$C$E$GT$$GT$12map_into_ptr28_$u7b$$u7b$closure$u7d$$u7d$17h32c129d65be0ddc1E', symObjAddr: 0x30C, symBinAddr: 0x19FC, symSize: 0x34 }
  - { offset: 0xA8C1, size: 0x8, addend: 0x0, symName: '__ZN4pyo35impl_4wrap62IntoPyObjectConverter$LT$core..result..Result$LT$T$C$E$GT$$GT$12map_into_ptr28_$u7b$$u7b$closure$u7d$$u7d$17hb428071493f58afdE', symObjAddr: 0x340, symBinAddr: 0x1A30, symSize: 0x24 }
  - { offset: 0xA918, size: 0x8, addend: 0x0, symName: '__ZN4pyo35impl_4wrap62IntoPyObjectConverter$LT$core..result..Result$LT$T$C$E$GT$$GT$12map_into_ptr28_$u7b$$u7b$closure$u7d$$u7d$17hec411b8710a34ebdE', symObjAddr: 0x364, symBinAddr: 0x1A54, symSize: 0x2C }
  - { offset: 0xA96F, size: 0x8, addend: 0x0, symName: '__ZN4pyo35impl_4wrap62IntoPyObjectConverter$LT$core..result..Result$LT$T$C$E$GT$$GT$12map_into_ptr28_$u7b$$u7b$closure$u7d$$u7d$17hf56613f9c7ad7461E', symObjAddr: 0x390, symBinAddr: 0x1A80, symSize: 0x34 }
  - { offset: 0xAA45, size: 0x8, addend: 0x0, symName: '__ZN4pyo35impl_4wrap82EmptyTupleConverter$LT$core..result..Result$LT$$LP$$RP$$C$pyo3..err..PyErr$GT$$GT$12map_into_ptr28_$u7b$$u7b$closure$u7d$$u7d$17h741c17b8e31ff044E', symObjAddr: 0x42C, symBinAddr: 0x1B1C, symSize: 0x28 }
  - { offset: 0xAA9B, size: 0x8, addend: 0x0, symName: __ZN4pyo35impl_4wrap9converter17h0560145a6a96ed23E, symObjAddr: 0x454, symBinAddr: 0x1B44, symSize: 0x10 }
  - { offset: 0xAAC8, size: 0x8, addend: 0x0, symName: __ZN4pyo35impl_4wrap9converter17h1e4d9ce3788767eaE, symObjAddr: 0x464, symBinAddr: 0x1B54, symSize: 0x10 }
  - { offset: 0xAAF5, size: 0x8, addend: 0x0, symName: __ZN4pyo35impl_4wrap9converter17h1ebd28a5fab314feE, symObjAddr: 0x474, symBinAddr: 0x1B64, symSize: 0x10 }
  - { offset: 0xAB22, size: 0x8, addend: 0x0, symName: __ZN4pyo35impl_4wrap9converter17h23ca41c76bd26db9E, symObjAddr: 0x484, symBinAddr: 0x1B74, symSize: 0x10 }
  - { offset: 0xAB4F, size: 0x8, addend: 0x0, symName: __ZN4pyo35impl_4wrap9converter17h4f6126fe579f09aeE, symObjAddr: 0x494, symBinAddr: 0x1B84, symSize: 0x10 }
  - { offset: 0xAB7C, size: 0x8, addend: 0x0, symName: __ZN4pyo35impl_4wrap9converter17h5a07792ca45a4237E, symObjAddr: 0x4A4, symBinAddr: 0x1B94, symSize: 0x10 }
  - { offset: 0xABA9, size: 0x8, addend: 0x0, symName: __ZN4pyo35impl_4wrap9converter17h9729960866f24297E, symObjAddr: 0x4B4, symBinAddr: 0x1BA4, symSize: 0x10 }
  - { offset: 0xABD6, size: 0x8, addend: 0x0, symName: __ZN4pyo35impl_4wrap9converter17hac32503c6e1c1eefE, symObjAddr: 0x4C4, symBinAddr: 0x1BB4, symSize: 0x10 }
  - { offset: 0xAC03, size: 0x8, addend: 0x0, symName: __ZN4pyo35impl_4wrap9converter17hc908028aeaeb8e25E, symObjAddr: 0x4D4, symBinAddr: 0x1BC4, symSize: 0x10 }
  - { offset: 0xAC30, size: 0x8, addend: 0x0, symName: __ZN4pyo35impl_4wrap9converter17hc9630903e4d46d59E, symObjAddr: 0x4E4, symBinAddr: 0x1BD4, symSize: 0x10 }
  - { offset: 0xAC5D, size: 0x8, addend: 0x0, symName: __ZN4pyo35impl_4wrap9converter17hd15594b04a547e54E, symObjAddr: 0x4F4, symBinAddr: 0x1BE4, symSize: 0x10 }
  - { offset: 0xAC8A, size: 0x8, addend: 0x0, symName: __ZN4pyo35impl_4wrap9converter17hd5993ea6dbe53d64E, symObjAddr: 0x504, symBinAddr: 0x1BF4, symSize: 0x10 }
  - { offset: 0xACB7, size: 0x8, addend: 0x0, symName: __ZN4pyo35impl_4wrap9converter17hecad5d70f734feeeE, symObjAddr: 0x514, symBinAddr: 0x1C04, symSize: 0x10 }
  - { offset: 0xACE9, size: 0x8, addend: 0x0, symName: '__ZN81_$LT$pyo3..impl_..wrap..Converter$LT$T$GT$$u20$as$u20$core..ops..deref..Deref$GT$5deref17h025b19de6ae94f98E', symObjAddr: 0x524, symBinAddr: 0x1C14, symSize: 0x14 }
  - { offset: 0xAD1E, size: 0x8, addend: 0x0, symName: '__ZN81_$LT$pyo3..impl_..wrap..Converter$LT$T$GT$$u20$as$u20$core..ops..deref..Deref$GT$5deref17h1fe2c900e4af3eb8E', symObjAddr: 0x538, symBinAddr: 0x1C28, symSize: 0x14 }
  - { offset: 0xAD53, size: 0x8, addend: 0x0, symName: '__ZN81_$LT$pyo3..impl_..wrap..Converter$LT$T$GT$$u20$as$u20$core..ops..deref..Deref$GT$5deref17h2b8f8c4cad5bb472E', symObjAddr: 0x54C, symBinAddr: 0x1C3C, symSize: 0x14 }
  - { offset: 0xAD88, size: 0x8, addend: 0x0, symName: '__ZN81_$LT$pyo3..impl_..wrap..Converter$LT$T$GT$$u20$as$u20$core..ops..deref..Deref$GT$5deref17h5146b1e394e9f758E', symObjAddr: 0x560, symBinAddr: 0x1C50, symSize: 0x14 }
  - { offset: 0xADBD, size: 0x8, addend: 0x0, symName: '__ZN81_$LT$pyo3..impl_..wrap..Converter$LT$T$GT$$u20$as$u20$core..ops..deref..Deref$GT$5deref17h5a01a6c2d0079c05E', symObjAddr: 0x574, symBinAddr: 0x1C64, symSize: 0x14 }
  - { offset: 0xADF2, size: 0x8, addend: 0x0, symName: '__ZN81_$LT$pyo3..impl_..wrap..Converter$LT$T$GT$$u20$as$u20$core..ops..deref..Deref$GT$5deref17h93d5c515635e29d0E', symObjAddr: 0x588, symBinAddr: 0x1C78, symSize: 0x14 }
  - { offset: 0xAE27, size: 0x8, addend: 0x0, symName: '__ZN81_$LT$pyo3..impl_..wrap..Converter$LT$T$GT$$u20$as$u20$core..ops..deref..Deref$GT$5deref17h9d1d545725483c9dE', symObjAddr: 0x59C, symBinAddr: 0x1C8C, symSize: 0x14 }
  - { offset: 0xAE5C, size: 0x8, addend: 0x0, symName: '__ZN81_$LT$pyo3..impl_..wrap..Converter$LT$T$GT$$u20$as$u20$core..ops..deref..Deref$GT$5deref17ha31d250e64b493ceE', symObjAddr: 0x5B0, symBinAddr: 0x1CA0, symSize: 0x14 }
  - { offset: 0xAE91, size: 0x8, addend: 0x0, symName: '__ZN81_$LT$pyo3..impl_..wrap..Converter$LT$T$GT$$u20$as$u20$core..ops..deref..Deref$GT$5deref17hb3858b33589d220cE', symObjAddr: 0x5C4, symBinAddr: 0x1CB4, symSize: 0x14 }
  - { offset: 0xAEC6, size: 0x8, addend: 0x0, symName: '__ZN81_$LT$pyo3..impl_..wrap..Converter$LT$T$GT$$u20$as$u20$core..ops..deref..Deref$GT$5deref17hb59a60d012385b41E', symObjAddr: 0x5D8, symBinAddr: 0x1CC8, symSize: 0x14 }
  - { offset: 0xAEFB, size: 0x8, addend: 0x0, symName: '__ZN81_$LT$pyo3..impl_..wrap..Converter$LT$T$GT$$u20$as$u20$core..ops..deref..Deref$GT$5deref17hb6db0564c1218eceE', symObjAddr: 0x5EC, symBinAddr: 0x1CDC, symSize: 0x14 }
  - { offset: 0xAF30, size: 0x8, addend: 0x0, symName: '__ZN81_$LT$pyo3..impl_..wrap..Converter$LT$T$GT$$u20$as$u20$core..ops..deref..Deref$GT$5deref17hcc12ddb7f31e8e7dE', symObjAddr: 0x600, symBinAddr: 0x1CF0, symSize: 0x14 }
  - { offset: 0xAF65, size: 0x8, addend: 0x0, symName: '__ZN81_$LT$pyo3..impl_..wrap..Converter$LT$T$GT$$u20$as$u20$core..ops..deref..Deref$GT$5deref17hed08763e185a40d0E', symObjAddr: 0x614, symBinAddr: 0x1D04, symSize: 0x14 }
  - { offset: 0xAFA0, size: 0x8, addend: 0x0, symName: '__ZN91_$LT$pyo3..impl_..wrap..EmptyTupleConverter$LT$T$GT$$u20$as$u20$core..ops..deref..Deref$GT$5deref17h11a861fcc089b6c1E', symObjAddr: 0x628, symBinAddr: 0x1D18, symSize: 0x14 }
  - { offset: 0xAFD5, size: 0x8, addend: 0x0, symName: '__ZN91_$LT$pyo3..impl_..wrap..EmptyTupleConverter$LT$T$GT$$u20$as$u20$core..ops..deref..Deref$GT$5deref17h1ad8b1831c591cc8E', symObjAddr: 0x63C, symBinAddr: 0x1D2C, symSize: 0x14 }
  - { offset: 0xB00A, size: 0x8, addend: 0x0, symName: '__ZN91_$LT$pyo3..impl_..wrap..EmptyTupleConverter$LT$T$GT$$u20$as$u20$core..ops..deref..Deref$GT$5deref17h2d555964603bd5d9E', symObjAddr: 0x650, symBinAddr: 0x1D40, symSize: 0x14 }
  - { offset: 0xB03F, size: 0x8, addend: 0x0, symName: '__ZN91_$LT$pyo3..impl_..wrap..EmptyTupleConverter$LT$T$GT$$u20$as$u20$core..ops..deref..Deref$GT$5deref17h7af445ffc910e792E', symObjAddr: 0x664, symBinAddr: 0x1D54, symSize: 0x14 }
  - { offset: 0xB074, size: 0x8, addend: 0x0, symName: '__ZN91_$LT$pyo3..impl_..wrap..EmptyTupleConverter$LT$T$GT$$u20$as$u20$core..ops..deref..Deref$GT$5deref17h7f62d32b4d0173d5E', symObjAddr: 0x678, symBinAddr: 0x1D68, symSize: 0x14 }
  - { offset: 0xB0A9, size: 0x8, addend: 0x0, symName: '__ZN91_$LT$pyo3..impl_..wrap..EmptyTupleConverter$LT$T$GT$$u20$as$u20$core..ops..deref..Deref$GT$5deref17h8812e24424de050fE', symObjAddr: 0x68C, symBinAddr: 0x1D7C, symSize: 0x14 }
  - { offset: 0xB0DE, size: 0x8, addend: 0x0, symName: '__ZN91_$LT$pyo3..impl_..wrap..EmptyTupleConverter$LT$T$GT$$u20$as$u20$core..ops..deref..Deref$GT$5deref17h8f3739fa50c69666E', symObjAddr: 0x6A0, symBinAddr: 0x1D90, symSize: 0x14 }
  - { offset: 0xB113, size: 0x8, addend: 0x0, symName: '__ZN91_$LT$pyo3..impl_..wrap..EmptyTupleConverter$LT$T$GT$$u20$as$u20$core..ops..deref..Deref$GT$5deref17h990b8c95ed6e530aE', symObjAddr: 0x6B4, symBinAddr: 0x1DA4, symSize: 0x14 }
  - { offset: 0xB148, size: 0x8, addend: 0x0, symName: '__ZN91_$LT$pyo3..impl_..wrap..EmptyTupleConverter$LT$T$GT$$u20$as$u20$core..ops..deref..Deref$GT$5deref17ha79d626b0a886790E', symObjAddr: 0x6C8, symBinAddr: 0x1DB8, symSize: 0x14 }
  - { offset: 0xB17D, size: 0x8, addend: 0x0, symName: '__ZN91_$LT$pyo3..impl_..wrap..EmptyTupleConverter$LT$T$GT$$u20$as$u20$core..ops..deref..Deref$GT$5deref17hca93f52bb1d3962aE', symObjAddr: 0x6DC, symBinAddr: 0x1DCC, symSize: 0x14 }
  - { offset: 0xB1B2, size: 0x8, addend: 0x0, symName: '__ZN91_$LT$pyo3..impl_..wrap..EmptyTupleConverter$LT$T$GT$$u20$as$u20$core..ops..deref..Deref$GT$5deref17hdb995c93ab6894a7E', symObjAddr: 0x6F0, symBinAddr: 0x1DE0, symSize: 0x14 }
  - { offset: 0xB1E7, size: 0x8, addend: 0x0, symName: '__ZN91_$LT$pyo3..impl_..wrap..EmptyTupleConverter$LT$T$GT$$u20$as$u20$core..ops..deref..Deref$GT$5deref17hfe568c51fc3a5c7fE', symObjAddr: 0x704, symBinAddr: 0x1DF4, symSize: 0x14 }
  - { offset: 0xBA46, size: 0x8, addend: 0x0, symName: '__ZN4pyo35impl_4wrap30IntoPyObjectConverter$LT$T$GT$4wrap17h0a6d3b6853ae4970E', symObjAddr: 0x0, symBinAddr: 0x16F0, symSize: 0x24 }
  - { offset: 0xBA93, size: 0x8, addend: 0x0, symName: '__ZN4pyo35impl_4wrap30IntoPyObjectConverter$LT$T$GT$4wrap17h2d74e53ea80d7ca0E', symObjAddr: 0x24, symBinAddr: 0x1714, symSize: 0x14 }
  - { offset: 0xBAE0, size: 0x8, addend: 0x0, symName: '__ZN4pyo35impl_4wrap30IntoPyObjectConverter$LT$T$GT$4wrap17h50b1ed86e817d924E', symObjAddr: 0x38, symBinAddr: 0x1728, symSize: 0x10 }
  - { offset: 0xBB26, size: 0x8, addend: 0x0, symName: '__ZN4pyo35impl_4wrap30IntoPyObjectConverter$LT$T$GT$4wrap17h9dc422a1d3ebf278E', symObjAddr: 0x48, symBinAddr: 0x1738, symSize: 0x24 }
  - { offset: 0xBB6C, size: 0x8, addend: 0x0, symName: '__ZN4pyo35impl_4wrap30IntoPyObjectConverter$LT$T$GT$4wrap17hbdbbc5bae700efabE', symObjAddr: 0x6C, symBinAddr: 0x175C, symSize: 0x1C }
  - { offset: 0xBBB2, size: 0x8, addend: 0x0, symName: '__ZN4pyo35impl_4wrap30IntoPyObjectConverter$LT$T$GT$4wrap17hfd6875522bfa19c1E', symObjAddr: 0x88, symBinAddr: 0x1778, symSize: 0x24 }
  - { offset: 0xC26D, size: 0x8, addend: 0x0, symName: '__ZN4pyo35impl_4wrap62IntoPyObjectConverter$LT$core..result..Result$LT$T$C$E$GT$$GT$12map_into_ptr17h45c782869a087402E', symObjAddr: 0xAC, symBinAddr: 0x179C, symSize: 0x54 }
  - { offset: 0xC2D8, size: 0x8, addend: 0x0, symName: '__ZN4pyo35impl_4wrap62IntoPyObjectConverter$LT$core..result..Result$LT$T$C$E$GT$$GT$12map_into_ptr17h54a9977523e0af79E', symObjAddr: 0x100, symBinAddr: 0x17F0, symSize: 0x54 }
  - { offset: 0xC343, size: 0x8, addend: 0x0, symName: '__ZN4pyo35impl_4wrap62IntoPyObjectConverter$LT$core..result..Result$LT$T$C$E$GT$$GT$12map_into_ptr17h9f57e29084fab455E', symObjAddr: 0x154, symBinAddr: 0x1844, symSize: 0x54 }
  - { offset: 0xC3AE, size: 0x8, addend: 0x0, symName: '__ZN4pyo35impl_4wrap62IntoPyObjectConverter$LT$core..result..Result$LT$T$C$E$GT$$GT$12map_into_ptr17ha1c75cab0800d7aeE', symObjAddr: 0x1A8, symBinAddr: 0x1898, symSize: 0x54 }
  - { offset: 0xC419, size: 0x8, addend: 0x0, symName: '__ZN4pyo35impl_4wrap62IntoPyObjectConverter$LT$core..result..Result$LT$T$C$E$GT$$GT$12map_into_ptr17ha2147cd22115c171E', symObjAddr: 0x1FC, symBinAddr: 0x18EC, symSize: 0x54 }
  - { offset: 0xC484, size: 0x8, addend: 0x0, symName: '__ZN4pyo35impl_4wrap62IntoPyObjectConverter$LT$core..result..Result$LT$T$C$E$GT$$GT$12map_into_ptr17hbec5df3c6b41dfb3E', symObjAddr: 0x250, symBinAddr: 0x1940, symSize: 0x54 }
  - { offset: 0xC4E2, size: 0x8, addend: 0x0, symName: '__ZN4pyo35impl_4wrap62IntoPyObjectConverter$LT$core..result..Result$LT$T$C$E$GT$$GT$4wrap17h4cc4289445adf63fE', symObjAddr: 0x3C4, symBinAddr: 0x1AB4, symSize: 0x34 }
  - { offset: 0xC525, size: 0x8, addend: 0x0, symName: '__ZN4pyo35impl_4wrap62IntoPyObjectConverter$LT$core..result..Result$LT$T$C$E$GT$$GT$4wrap17h7be24cbae4f368c1E', symObjAddr: 0x3F8, symBinAddr: 0x1AE8, symSize: 0x34 }
  - { offset: 0xC880, size: 0x8, addend: 0x0, symName: '__ZN4core5slice29_$LT$impl$u20$$u5b$T$u5d$$GT$10chunks_mut17hf7c97f2b636151f3E', symObjAddr: 0x58, symBinAddr: 0x1E08, symSize: 0x84 }
  - { offset: 0xC8EC, size: 0x8, addend: 0x0, symName: '__ZN4core5slice29_$LT$impl$u20$$u5b$T$u5d$$GT$8is_empty17hf2bec1c3c812765dE', symObjAddr: 0xDC, symBinAddr: 0x1E8C, symSize: 0x1C }
  - { offset: 0xCA20, size: 0x8, addend: 0x0, symName: '__ZN4core3mem13manually_drop21ManuallyDrop$LT$T$GT$4drop17h0f8aa3c2caaf97b2E', symObjAddr: 0x0, symBinAddr: 0x1EA8, symSize: 0x24 }
  - { offset: 0xD04B, size: 0x8, addend: 0x0, symName: '__ZN4core3mem13manually_drop21ManuallyDrop$LT$T$GT$4drop17h0f8aa3c2caaf97b2E', symObjAddr: 0x0, symBinAddr: 0x1EA8, symSize: 0x24 }
  - { offset: 0xD0A8, size: 0x8, addend: 0x0, symName: '__ZN4core3mem13manually_drop21ManuallyDrop$LT$T$GT$4drop17h36b9dd3a1c01f69aE', symObjAddr: 0x24, symBinAddr: 0x1ECC, symSize: 0x24 }
  - { offset: 0xD0F1, size: 0x8, addend: 0x0, symName: __ZN4core9core_arch10arm_shared4neon9generated18vreinterpret_s8_u817h82ad40b22fe4b220E, symObjAddr: 0x0, symBinAddr: 0x1EF0, symSize: 0xC }
  - { offset: 0xD117, size: 0x8, addend: 0x0, symName: __ZN4core9core_arch10arm_shared4neon9generated18vreinterpret_s8_u817h82ad40b22fe4b220E, symObjAddr: 0x0, symBinAddr: 0x1EF0, symSize: 0xC }
  - { offset: 0xD145, size: 0x8, addend: 0x0, symName: __ZN4core9core_arch10arm_shared4neon9generated19vreinterpret_u64_u817h3a820cb010e62c28E, symObjAddr: 0xC, symBinAddr: 0x1EFC, symSize: 0xC }
  - { offset: 0xD173, size: 0x8, addend: 0x0, symName: __ZN4core9core_arch10arm_shared4neon9generated7vceq_u817hbf15a8427794dd58E, symObjAddr: 0x18, symBinAddr: 0x1F08, symSize: 0x14 }
  - { offset: 0xD1B0, size: 0x8, addend: 0x0, symName: __ZN4core9core_arch10arm_shared4neon9generated7vorr_u817h5a8b1cf95aa81c18E, symObjAddr: 0x2C, symBinAddr: 0x1F1C, symSize: 0x14 }
  - { offset: 0xD1ED, size: 0x8, addend: 0x0, symName: __ZN4core9core_arch10arm_shared4neon9generated9vdup_n_u817h9af718e183428ea4E, symObjAddr: 0x40, symBinAddr: 0x1F30, symSize: 0x2C }
  - { offset: 0xD35B, size: 0x8, addend: 0x0, symName: __ZN4pyo35impl_16extract_argument16extract_argument17h26a8e010781ad420E, symObjAddr: 0x0, symBinAddr: 0x1F5C, symSize: 0x138 }
  - { offset: 0xF383, size: 0x8, addend: 0x0, symName: __ZN4pyo35impl_16extract_argument16extract_argument17h26a8e010781ad420E, symObjAddr: 0x0, symBinAddr: 0x1F5C, symSize: 0x138 }
  - { offset: 0xF408, size: 0x8, addend: 0x0, symName: __ZN4pyo35impl_16extract_argument16extract_argument17h3328030eaa4455b0E, symObjAddr: 0x138, symBinAddr: 0x2094, symSize: 0x150 }
  - { offset: 0xF48D, size: 0x8, addend: 0x0, symName: __ZN4pyo35impl_16extract_argument16extract_argument17hb3162b2f171a293cE, symObjAddr: 0x288, symBinAddr: 0x21E4, symSize: 0x144 }
  - { offset: 0xF513, size: 0x8, addend: 0x0, symName: __ZN4pyo35impl_16extract_argument16extract_argument17hb459cb3e3a4a98c1E, symObjAddr: 0x3CC, symBinAddr: 0x2328, symSize: 0x138 }
  - { offset: 0xF598, size: 0x8, addend: 0x0, symName: __ZN4pyo35impl_16extract_argument16extract_argument17hf3e2328d68975f62E, symObjAddr: 0x504, symBinAddr: 0x2460, symSize: 0x144 }
  - { offset: 0xF79F, size: 0x8, addend: 0x0, symName: '__ZN4pyo35impl_16extract_argument19FunctionDescription26extract_arguments_fastcall28_$u7b$$u7b$closure$u7d$$u7d$17h053583dcbe6485b6E', symObjAddr: 0x1A94, symBinAddr: 0x39F0, symSize: 0x24 }
  - { offset: 0xF7F7, size: 0x8, addend: 0x0, symName: '__ZN4pyo35impl_16extract_argument19FunctionDescription28extract_arguments_tuple_dict28_$u7b$$u7b$closure$u7d$$u7d$17h3946b53e9d232882E', symObjAddr: 0x1F98, symBinAddr: 0x3EF4, symSize: 0x24 }
  - { offset: 0xF84F, size: 0x8, addend: 0x0, symName: '__ZN4pyo35impl_16extract_argument19FunctionDescription36find_keyword_parameter_in_positional28_$u7b$$u7b$closure$u7d$$u7d$17haab9ffec4550542eE', symObjAddr: 0x1FBC, symBinAddr: 0x3F18, symSize: 0x48 }
  - { offset: 0xF8AF, size: 0x8, addend: 0x0, symName: '__ZN4pyo35impl_16extract_argument19FunctionDescription38find_keyword_parameter_in_keyword_only28_$u7b$$u7b$closure$u7d$$u7d$17h5b63a202b082252dE', symObjAddr: 0x2004, symBinAddr: 0x3F60, symSize: 0x38 }
  - { offset: 0xF8F1, size: 0x8, addend: 0x0, symName: __ZN4pyo35impl_16extract_argument19extract_pyclass_ref17h5176dced6b579858E, symObjAddr: 0x203C, symBinAddr: 0x3F98, symSize: 0xC8 }
  - { offset: 0xF954, size: 0x8, addend: 0x0, symName: __ZN4pyo35impl_16extract_argument19extract_pyclass_ref17ha851d06452971d73E, symObjAddr: 0x2104, symBinAddr: 0x4060, symSize: 0xC8 }
  - { offset: 0xF9B7, size: 0x8, addend: 0x0, symName: __ZN4pyo35impl_16extract_argument23extract_pyclass_ref_mut17h16ce80604180a708E, symObjAddr: 0x21CC, symBinAddr: 0x4128, symSize: 0xC8 }
  - { offset: 0xFA1A, size: 0x8, addend: 0x0, symName: __ZN4pyo35impl_16extract_argument23extract_pyclass_ref_mut17h748ac297055d09faE, symObjAddr: 0x2294, symBinAddr: 0x41F0, symSize: 0xC8 }
  - { offset: 0xFA82, size: 0x8, addend: 0x0, symName: '__ZN80_$LT$T$u20$as$u20$pyo3..impl_..extract_argument..PyFunctionArgument$LT$_$GT$$GT$7extract17h0060247088c35353E', symObjAddr: 0x235C, symBinAddr: 0x42B8, symSize: 0x28 }
  - { offset: 0xFAC1, size: 0x8, addend: 0x0, symName: '__ZN80_$LT$T$u20$as$u20$pyo3..impl_..extract_argument..PyFunctionArgument$LT$_$GT$$GT$7extract17h3337d56cb2808101E', symObjAddr: 0x2384, symBinAddr: 0x42E0, symSize: 0x28 }
  - { offset: 0xFB00, size: 0x8, addend: 0x0, symName: '__ZN80_$LT$T$u20$as$u20$pyo3..impl_..extract_argument..PyFunctionArgument$LT$_$GT$$GT$7extract17hcc0e30944bc81467E', symObjAddr: 0x23AC, symBinAddr: 0x4308, symSize: 0x28 }
  - { offset: 0x107CD, size: 0x8, addend: 0x0, symName: __ZN4pyo35impl_16extract_argument19FunctionDescription13handle_kwargs17hc39cc95907aae332E, symObjAddr: 0x648, symBinAddr: 0x25A4, symSize: 0x708 }
  - { offset: 0x109E8, size: 0x8, addend: 0x0, symName: __ZN4pyo35impl_16extract_argument19FunctionDescription13handle_kwargs17hf6c925a9776db7c6E, symObjAddr: 0xD50, symBinAddr: 0x2CAC, symSize: 0x70C }
  - { offset: 0x10C07, size: 0x8, addend: 0x0, symName: __ZN4pyo35impl_16extract_argument19FunctionDescription26extract_arguments_fastcall17h44dc9691192cc256E, symObjAddr: 0x145C, symBinAddr: 0x33B8, symSize: 0x638 }
  - { offset: 0x10F39, size: 0x8, addend: 0x0, symName: __ZN4pyo35impl_16extract_argument19FunctionDescription28extract_arguments_tuple_dict17h17a275cb88269482E, symObjAddr: 0x1AB8, symBinAddr: 0x3A14, symSize: 0x4E0 }
  - { offset: 0x117AB, size: 0x8, addend: 0x0, symName: '__ZN5alloc3vec16Vec$LT$T$C$A$GT$17from_raw_parts_in18precondition_check17h5b1f06059dbae401E', symObjAddr: 0x0, symBinAddr: 0x4330, symSize: 0x60 }
  - { offset: 0x117CC, size: 0x8, addend: 0x0, symName: '__ZN5alloc3vec16Vec$LT$T$C$A$GT$17from_raw_parts_in18precondition_check17h5b1f06059dbae401E', symObjAddr: 0x0, symBinAddr: 0x4330, symSize: 0x60 }
  - { offset: 0x11825, size: 0x8, addend: 0x0, symName: '__ZN5alloc3vec16Vec$LT$T$C$A$GT$7set_len18precondition_check17h3058a080779d67b5E', symObjAddr: 0x60, symBinAddr: 0x4390, symSize: 0x60 }
  - { offset: 0x118CF, size: 0x8, addend: 0x0, symName: '__ZN4core3str21_$LT$impl$u20$str$GT$4trim17h8f73e39be85c5df9E', symObjAddr: 0x0, symBinAddr: 0x43F0, symSize: 0x28 }
  - { offset: 0x118EB, size: 0x8, addend: 0x0, symName: '__ZN4core3str21_$LT$impl$u20$str$GT$4trim17h8f73e39be85c5df9E', symObjAddr: 0x0, symBinAddr: 0x43F0, symSize: 0x28 }
  - { offset: 0x11919, size: 0x8, addend: 0x0, symName: '__ZN4core3str21_$LT$impl$u20$str$GT$5chars17hfcf7545bb3581170E', symObjAddr: 0x28, symBinAddr: 0x4418, symSize: 0x20 }
  - { offset: 0x11B37, size: 0x8, addend: 0x0, symName: __ZN11biospy_core6sketch7MinHash11insert_hash17h17537a8e14893ef8E, symObjAddr: 0x0, symBinAddr: 0x4438, symSize: 0x108 }
  - { offset: 0x12023, size: 0x8, addend: 0x0, symName: __ZN11biospy_core6sketch7MinHash11insert_hash17h17537a8e14893ef8E, symObjAddr: 0x0, symBinAddr: 0x4438, symSize: 0x108 }
  - { offset: 0x12062, size: 0x8, addend: 0x0, symName: __ZN11biospy_core6sketch7MinHash3new17hb337faeeaf60f1acE, symObjAddr: 0x108, symBinAddr: 0x4540, symSize: 0xC4 }
  - { offset: 0x1209F, size: 0x8, addend: 0x0, symName: __ZN11biospy_core6sketch7MinHash6sorted17h84339b74e5e17f87E, symObjAddr: 0x1CC, symBinAddr: 0x4604, symSize: 0x98 }
  - { offset: 0x120FD, size: 0x8, addend: 0x0, symName: __ZN11biospy_core6sketch7MinHash7add_seq17hb7586314f91f8f4dE, symObjAddr: 0x264, symBinAddr: 0x469C, symSize: 0xD8 }
  - { offset: 0x12184, size: 0x8, addend: 0x0, symName: __ZN11biospy_core6sketch7MinHash7jaccard17h4a8097c8c903ac9eE, symObjAddr: 0x33C, symBinAddr: 0x4774, symSize: 0x4A4 }
  - { offset: 0x12254, size: 0x8, addend: 0x0, symName: '__ZN111_$LT$alloc..vec..Vec$LT$T$GT$$u20$as$u20$alloc..vec..spec_from_iter_nested..SpecFromIterNested$LT$T$C$I$GT$$GT$9from_iter17h03e9005a94f98382E', symObjAddr: 0x0, symBinAddr: 0x4C18, symSize: 0x134 }
  - { offset: 0x13697, size: 0x8, addend: 0x0, symName: '__ZN4core5slice29_$LT$impl$u20$$u5b$T$u5d$$GT$4iter17h19fc5a08411a3583E', symObjAddr: 0x8E0, symBinAddr: 0x54F8, symSize: 0x28 }
  - { offset: 0x13C70, size: 0x8, addend: 0x0, symName: '__ZN74_$LT$T$u20$as$u20$core..iter..adapters..flatten..ConstSizeIntoIterator$GT$4size17hf298c8af822d223dE', symObjAddr: 0x2944, symBinAddr: 0x755C, symSize: 0x18 }
  - { offset: 0x16341, size: 0x8, addend: 0x0, symName: '__ZN111_$LT$alloc..vec..Vec$LT$T$GT$$u20$as$u20$alloc..vec..spec_from_iter_nested..SpecFromIterNested$LT$T$C$I$GT$$GT$9from_iter17h03e9005a94f98382E', symObjAddr: 0x0, symBinAddr: 0x4C18, symSize: 0x134 }
  - { offset: 0x16403, size: 0x8, addend: 0x0, symName: '__ZN111_$LT$alloc..vec..Vec$LT$T$GT$$u20$as$u20$alloc..vec..spec_from_iter_nested..SpecFromIterNested$LT$T$C$I$GT$$GT$9from_iter17h119ef6b0b90db519E', symObjAddr: 0x34C, symBinAddr: 0x4F64, symSize: 0x12C }
  - { offset: 0x164CA, size: 0x8, addend: 0x0, symName: '__ZN111_$LT$alloc..vec..Vec$LT$T$GT$$u20$as$u20$alloc..vec..spec_from_iter_nested..SpecFromIterNested$LT$T$C$I$GT$$GT$9from_iter17h0c5f1ee1cb8dd0dfE', symObjAddr: 0x134, symBinAddr: 0x4D4C, symSize: 0x218 }
  - { offset: 0x16729, size: 0x8, addend: 0x0, symName: '__ZN111_$LT$alloc..vec..Vec$LT$T$GT$$u20$as$u20$alloc..vec..spec_from_iter_nested..SpecFromIterNested$LT$T$C$I$GT$$GT$9from_iter17h7879da4788ae4d1bE', symObjAddr: 0x478, symBinAddr: 0x5090, symSize: 0x238 }
  - { offset: 0x16988, size: 0x8, addend: 0x0, symName: '__ZN111_$LT$alloc..vec..Vec$LT$T$GT$$u20$as$u20$alloc..vec..spec_from_iter_nested..SpecFromIterNested$LT$T$C$I$GT$$GT$9from_iter17ha7bb1ccab502a23cE', symObjAddr: 0x6B0, symBinAddr: 0x52C8, symSize: 0x230 }
  - { offset: 0x17646, size: 0x8, addend: 0x0, symName: '__ZN5alloc3vec16Vec$LT$T$C$A$GT$14extend_trusted28_$u7b$$u7b$closure$u7d$$u7d$17h1b6fc1bfb6df41c6E', symObjAddr: 0x175C, symBinAddr: 0x6374, symSize: 0x30 }
  - { offset: 0x176EE, size: 0x8, addend: 0x0, symName: '__ZN5alloc3vec16Vec$LT$T$C$A$GT$14extend_trusted28_$u7b$$u7b$closure$u7d$$u7d$17hff77ce310df9d09eE', symObjAddr: 0x178C, symBinAddr: 0x63A4, symSize: 0x44 }
  - { offset: 0x17934, size: 0x8, addend: 0x0, symName: '__ZN72_$LT$alloc..vec..Vec$LT$T$C$A$GT$$u20$as$u20$core..ops..deref..Deref$GT$5deref17h8c05c180ff43b97bE', symObjAddr: 0x28FC, symBinAddr: 0x7514, symSize: 0x24 }
  - { offset: 0x17974, size: 0x8, addend: 0x0, symName: '__ZN72_$LT$alloc..vec..Vec$LT$T$C$A$GT$$u20$as$u20$core..ops..deref..Deref$GT$5deref17hf7a65d12c03e5936E', symObjAddr: 0x2920, symBinAddr: 0x7538, symSize: 0x24 }
  - { offset: 0x17A4A, size: 0x8, addend: 0x0, symName: '__ZN75_$LT$alloc..vec..Vec$LT$T$C$A$GT$$u20$as$u20$core..ops..deref..DerefMut$GT$9deref_mut17h415cdffeea55da2bE', symObjAddr: 0x295C, symBinAddr: 0x7574, symSize: 0x24 }
  - { offset: 0x17A8A, size: 0x8, addend: 0x0, symName: '__ZN75_$LT$alloc..vec..Vec$LT$T$C$A$GT$$u20$as$u20$core..ops..deref..DerefMut$GT$9deref_mut17h83cb49410d9f0c6dE', symObjAddr: 0x2980, symBinAddr: 0x7598, symSize: 0x24 }
  - { offset: 0x17AD0, size: 0x8, addend: 0x0, symName: '__ZN81_$LT$alloc..vec..Vec$LT$T$C$A$GT$$u20$as$u20$core..ops..index..Index$LT$I$GT$$GT$5index17h24d88d21446c1b48E', symObjAddr: 0x29CC, symBinAddr: 0x75E4, symSize: 0x88 }
  - { offset: 0x17C58, size: 0x8, addend: 0x0, symName: '__ZN88_$LT$alloc..vec..Vec$LT$T$C$A$GT$$u20$as$u20$core..convert..AsRef$LT$$u5b$T$u5d$$GT$$GT$6as_ref17h397a133032ac9f16E', symObjAddr: 0x2A54, symBinAddr: 0x766C, symSize: 0x68 }
  - { offset: 0x17D5F, size: 0x8, addend: 0x0, symName: '__ZN90_$LT$alloc..vec..Vec$LT$T$C$A$GT$$u20$as$u20$core..iter..traits..collect..IntoIterator$GT$9into_iter17h043f842c75f2753fE', symObjAddr: 0x2ABC, symBinAddr: 0x76D4, symSize: 0x98 }
  - { offset: 0x17F42, size: 0x8, addend: 0x0, symName: '__ZN90_$LT$alloc..vec..Vec$LT$T$C$A$GT$$u20$as$u20$core..iter..traits..collect..IntoIterator$GT$9into_iter17h4ba49544a2d026c8E', symObjAddr: 0x2B54, symBinAddr: 0x776C, symSize: 0xA0 }
  - { offset: 0x18125, size: 0x8, addend: 0x0, symName: '__ZN90_$LT$alloc..vec..Vec$LT$T$C$A$GT$$u20$as$u20$core..iter..traits..collect..IntoIterator$GT$9into_iter17h72876ac17cadf796E', symObjAddr: 0x2BF4, symBinAddr: 0x780C, symSize: 0xA0 }
  - { offset: 0x18308, size: 0x8, addend: 0x0, symName: '__ZN90_$LT$alloc..vec..Vec$LT$T$C$A$GT$$u20$as$u20$core..iter..traits..collect..IntoIterator$GT$9into_iter17he9b6e4ad4d9f16baE', symObjAddr: 0x2C94, symBinAddr: 0x78AC, symSize: 0x98 }
  - { offset: 0x184F1, size: 0x8, addend: 0x0, symName: '__ZN94_$LT$$RF$alloc..vec..Vec$LT$T$C$A$GT$$u20$as$u20$core..iter..traits..collect..IntoIterator$GT$9into_iter17h10447d82e5968698E', symObjAddr: 0x2D2C, symBinAddr: 0x7944, symSize: 0xA4 }
  - { offset: 0x18741, size: 0x8, addend: 0x0, symName: '__ZN95_$LT$alloc..vec..Vec$LT$T$GT$$u20$as$u20$core..iter..traits..collect..FromIterator$LT$T$GT$$GT$9from_iter17h132996f95781e147E', symObjAddr: 0x2DD0, symBinAddr: 0x79E8, symSize: 0x34 }
  - { offset: 0x18782, size: 0x8, addend: 0x0, symName: '__ZN95_$LT$alloc..vec..Vec$LT$T$GT$$u20$as$u20$core..iter..traits..collect..FromIterator$LT$T$GT$$GT$9from_iter17h172b46a0bdce1017E', symObjAddr: 0x2E04, symBinAddr: 0x7A1C, symSize: 0x38 }
  - { offset: 0x187C2, size: 0x8, addend: 0x0, symName: '__ZN95_$LT$alloc..vec..Vec$LT$T$GT$$u20$as$u20$core..iter..traits..collect..FromIterator$LT$T$GT$$GT$9from_iter17h5f0d3d5c10d80a22E', symObjAddr: 0x2E3C, symBinAddr: 0x7A54, symSize: 0x34 }
  - { offset: 0x18803, size: 0x8, addend: 0x0, symName: '__ZN95_$LT$alloc..vec..Vec$LT$T$GT$$u20$as$u20$core..iter..traits..collect..FromIterator$LT$T$GT$$GT$9from_iter17h87878855e86e4e15E', symObjAddr: 0x2E70, symBinAddr: 0x7A88, symSize: 0x34 }
  - { offset: 0x18844, size: 0x8, addend: 0x0, symName: '__ZN95_$LT$alloc..vec..Vec$LT$T$GT$$u20$as$u20$core..iter..traits..collect..FromIterator$LT$T$GT$$GT$9from_iter17ha6c907043eb91391E', symObjAddr: 0x2EA4, symBinAddr: 0x7ABC, symSize: 0x38 }
  - { offset: 0x1888F, size: 0x8, addend: 0x0, symName: '__ZN97_$LT$alloc..vec..Vec$LT$T$C$A$GT$$u20$as$u20$alloc..vec..spec_extend..SpecExtend$LT$T$C$I$GT$$GT$11spec_extend17h3e48045f8d628985E', symObjAddr: 0x2EDC, symBinAddr: 0x7AF4, symSize: 0x24 }
  - { offset: 0x188E1, size: 0x8, addend: 0x0, symName: '__ZN97_$LT$alloc..vec..Vec$LT$T$C$A$GT$$u20$as$u20$alloc..vec..spec_extend..SpecExtend$LT$T$C$I$GT$$GT$11spec_extend17h6905e2d1a3a15f89E', symObjAddr: 0x2F00, symBinAddr: 0x7B18, symSize: 0x34 }
  - { offset: 0x18938, size: 0x8, addend: 0x0, symName: '__ZN97_$LT$alloc..vec..Vec$LT$T$C$A$GT$$u20$as$u20$alloc..vec..spec_extend..SpecExtend$LT$T$C$I$GT$$GT$11spec_extend17h99f0c2a0c73136c8E', symObjAddr: 0x2F34, symBinAddr: 0x7B4C, symSize: 0x24 }
  - { offset: 0x1898A, size: 0x8, addend: 0x0, symName: '__ZN97_$LT$alloc..vec..Vec$LT$T$C$A$GT$$u20$as$u20$alloc..vec..spec_extend..SpecExtend$LT$T$C$I$GT$$GT$11spec_extend17ha82cc7b12e356d57E', symObjAddr: 0x2F58, symBinAddr: 0x7B70, symSize: 0x34 }
  - { offset: 0x189DB, size: 0x8, addend: 0x0, symName: '__ZN97_$LT$alloc..vec..Vec$LT$T$C$A$GT$$u20$as$u20$alloc..vec..spec_extend..SpecExtend$LT$T$C$I$GT$$GT$11spec_extend17hc4d1adde64b5cb49E', symObjAddr: 0x2F8C, symBinAddr: 0x7BA4, symSize: 0x24 }
  - { offset: 0x18A39, size: 0x8, addend: 0x0, symName: '__ZN98_$LT$alloc..vec..Vec$LT$T$GT$$u20$as$u20$alloc..vec..spec_from_iter..SpecFromIter$LT$T$C$I$GT$$GT$9from_iter17h521eded747df0485E', symObjAddr: 0x2FB0, symBinAddr: 0x7BC8, symSize: 0x2C }
  - { offset: 0x18A77, size: 0x8, addend: 0x0, symName: '__ZN98_$LT$alloc..vec..Vec$LT$T$GT$$u20$as$u20$alloc..vec..spec_from_iter..SpecFromIter$LT$T$C$I$GT$$GT$9from_iter17h714cbb74e3d5ecedE', symObjAddr: 0x2FDC, symBinAddr: 0x7BF4, symSize: 0x14 }
  - { offset: 0x18AB6, size: 0x8, addend: 0x0, symName: '__ZN98_$LT$alloc..vec..Vec$LT$T$GT$$u20$as$u20$alloc..vec..spec_from_iter..SpecFromIter$LT$T$C$I$GT$$GT$9from_iter17h7e317a6b14a36ef6E', symObjAddr: 0x2FF0, symBinAddr: 0x7C08, symSize: 0x2C }
  - { offset: 0x18AF4, size: 0x8, addend: 0x0, symName: '__ZN98_$LT$alloc..vec..Vec$LT$T$GT$$u20$as$u20$alloc..vec..spec_from_iter..SpecFromIter$LT$T$C$I$GT$$GT$9from_iter17ha6b6e7c71eba4719E', symObjAddr: 0x301C, symBinAddr: 0x7C34, symSize: 0x14 }
  - { offset: 0x18B33, size: 0x8, addend: 0x0, symName: '__ZN98_$LT$alloc..vec..Vec$LT$T$GT$$u20$as$u20$alloc..vec..spec_from_iter..SpecFromIter$LT$T$C$I$GT$$GT$9from_iter17hf70ca0a1b77086d6E', symObjAddr: 0x3030, symBinAddr: 0x7C48, symSize: 0x14 }
  - { offset: 0x19311, size: 0x8, addend: 0x0, symName: __ZN4pyo310conversion12IntoPyObject28owned_sequence_into_pyobject17h211e1f4765bf94e5E, symObjAddr: 0x908, symBinAddr: 0x5520, symSize: 0xDC }
  - { offset: 0x193A8, size: 0x8, addend: 0x0, symName: __ZN4pyo310conversion12IntoPyObject28owned_sequence_into_pyobject17he7eb482ccae430c9E, symObjAddr: 0x9E4, symBinAddr: 0x55FC, symSize: 0xDC }
  - { offset: 0x19471, size: 0x8, addend: 0x0, symName: __ZN4pyo310conversion15IntoPyObjectExt17into_bound_py_any17h19b40d16e65659a8E, symObjAddr: 0xAC0, symBinAddr: 0x56D8, symSize: 0xE0 }
  - { offset: 0x19504, size: 0x8, addend: 0x0, symName: __ZN4pyo310conversion15IntoPyObjectExt17into_bound_py_any17h575afef0b0b63e3dE, symObjAddr: 0xBA0, symBinAddr: 0x57B8, symSize: 0xE0 }
  - { offset: 0x19597, size: 0x8, addend: 0x0, symName: __ZN4pyo310conversion15IntoPyObjectExt17into_bound_py_any17h605ce2518d0c2eacE, symObjAddr: 0xC80, symBinAddr: 0x5898, symSize: 0xE0 }
  - { offset: 0x1962A, size: 0x8, addend: 0x0, symName: __ZN4pyo310conversion15IntoPyObjectExt17into_bound_py_any17h963c39d451a40263E, symObjAddr: 0xD60, symBinAddr: 0x5978, symSize: 0xE0 }
  - { offset: 0x196BD, size: 0x8, addend: 0x0, symName: __ZN4pyo310conversion15IntoPyObjectExt17into_bound_py_any17hc68a9d24ebaddab2E, symObjAddr: 0xE40, symBinAddr: 0x5A58, symSize: 0xE0 }
  - { offset: 0x19756, size: 0x8, addend: 0x0, symName: '__ZN57_$LT$T$u20$as$u20$pyo3..conversion..FromPyObjectBound$GT$20from_py_object_bound17h754791271a05aa83E', symObjAddr: 0x1134, symBinAddr: 0x5D4C, symSize: 0x34 }
  - { offset: 0x1978D, size: 0x8, addend: 0x0, symName: '__ZN57_$LT$T$u20$as$u20$pyo3..conversion..FromPyObjectBound$GT$20from_py_object_bound17h91345770cfa44531E', symObjAddr: 0x1168, symBinAddr: 0x5D80, symSize: 0x34 }
  - { offset: 0x197E8, size: 0x8, addend: 0x0, symName: '__ZN4pyo311conversions3std3vec85_$LT$impl$u20$pyo3..conversion..IntoPyObject$u20$for$u20$alloc..vec..Vec$LT$T$GT$$GT$13into_pyobject17h1edb8e291d22ba3fE', symObjAddr: 0xF20, symBinAddr: 0x5B38, symSize: 0x34 }
  - { offset: 0x19837, size: 0x8, addend: 0x0, symName: '__ZN4pyo311conversions3std3vec85_$LT$impl$u20$pyo3..conversion..IntoPyObject$u20$for$u20$alloc..vec..Vec$LT$T$GT$$GT$13into_pyobject17h4808b323862e97bcE', symObjAddr: 0xF54, symBinAddr: 0x5B6C, symSize: 0x34 }
  - { offset: 0x19886, size: 0x8, addend: 0x0, symName: '__ZN4pyo311conversions3std3vec85_$LT$impl$u20$pyo3..conversion..IntoPyObject$u20$for$u20$alloc..vec..Vec$LT$T$GT$$GT$13into_pyobject17h7380179755b497d8E', symObjAddr: 0xF88, symBinAddr: 0x5BA0, symSize: 0x34 }
  - { offset: 0x198D5, size: 0x8, addend: 0x0, symName: '__ZN4pyo311conversions3std3vec85_$LT$impl$u20$pyo3..conversion..IntoPyObject$u20$for$u20$alloc..vec..Vec$LT$T$GT$$GT$13into_pyobject17h8a630d22d7b257fcE', symObjAddr: 0xFBC, symBinAddr: 0x5BD4, symSize: 0x34 }
  - { offset: 0x19924, size: 0x8, addend: 0x0, symName: '__ZN4pyo311conversions3std3vec85_$LT$impl$u20$pyo3..conversion..IntoPyObject$u20$for$u20$alloc..vec..Vec$LT$T$GT$$GT$13into_pyobject17he15d8bf81b6af943E', symObjAddr: 0xFF0, symBinAddr: 0x5C08, symSize: 0x34 }
  - { offset: 0x19986, size: 0x8, addend: 0x0, symName: '__ZN4pyo35types8sequence85_$LT$impl$u20$pyo3..conversion..FromPyObject$u20$for$u20$alloc..vec..Vec$LT$T$GT$$GT$13extract_bound17h6a1e157fd5dbd20aE', symObjAddr: 0x1024, symBinAddr: 0x5C3C, symSize: 0x88 }
  - { offset: 0x199BD, size: 0x8, addend: 0x0, symName: '__ZN4pyo35types8sequence85_$LT$impl$u20$pyo3..conversion..FromPyObject$u20$for$u20$alloc..vec..Vec$LT$T$GT$$GT$13extract_bound17hfdba4979db248c8aE', symObjAddr: 0x10AC, symBinAddr: 0x5CC4, symSize: 0x88 }
  - { offset: 0x19A3C, size: 0x8, addend: 0x0, symName: '__ZN80_$LT$T$u20$as$u20$pyo3..impl_..extract_argument..PyFunctionArgument$LT$_$GT$$GT$7extract17hb64f8977c5692010E', symObjAddr: 0x29A4, symBinAddr: 0x75BC, symSize: 0x28 }
  - { offset: 0x19D52, size: 0x8, addend: 0x0, symName: '__ZN5alloc3vec12Vec$LT$T$GT$13with_capacity17h917d01a683d304efE', symObjAddr: 0x119C, symBinAddr: 0x5DB4, symSize: 0x40 }
  - { offset: 0x19E2C, size: 0x8, addend: 0x0, symName: '__ZN5alloc3vec12Vec$LT$T$GT$13with_capacity17hb82c7e9969698f92E', symObjAddr: 0x11DC, symBinAddr: 0x5DF4, symSize: 0x44 }
  - { offset: 0x19EA4, size: 0x8, addend: 0x0, symName: '__ZN5alloc3vec12Vec$LT$T$GT$3new17h22a32aafd36ddddaE', symObjAddr: 0x1220, symBinAddr: 0x5E38, symSize: 0x14 }
  - { offset: 0x19EE8, size: 0x8, addend: 0x0, symName: '__ZN5alloc3vec12Vec$LT$T$GT$3new17h29e8dcec2a319f7bE', symObjAddr: 0x1234, symBinAddr: 0x5E4C, symSize: 0x14 }
  - { offset: 0x19F05, size: 0x8, addend: 0x0, symName: '__ZN5alloc3vec12Vec$LT$T$GT$3new17h3764fcc657a9b9e7E', symObjAddr: 0x1248, symBinAddr: 0x5E60, symSize: 0x14 }
  - { offset: 0x19F71, size: 0x8, addend: 0x0, symName: '__ZN5alloc3vec12Vec$LT$T$GT$3new17h4fb06537ff20e687E', symObjAddr: 0x125C, symBinAddr: 0x5E74, symSize: 0x14 }
  - { offset: 0x1A0AB, size: 0x8, addend: 0x0, symName: '__ZN5alloc3vec16Vec$LT$T$C$A$GT$11extend_with17h8c87631303c9f367E', symObjAddr: 0x1270, symBinAddr: 0x5E88, symSize: 0x1C4 }
  - { offset: 0x1A3FD, size: 0x8, addend: 0x0, symName: '__ZN5alloc3vec16Vec$LT$T$C$A$GT$12as_mut_slice17h23b80b9bc4e7b93bE', symObjAddr: 0x1434, symBinAddr: 0x604C, symSize: 0x68 }
  - { offset: 0x1A573, size: 0x8, addend: 0x0, symName: '__ZN5alloc3vec16Vec$LT$T$C$A$GT$12as_mut_slice17he06f775f7543efccE', symObjAddr: 0x149C, symBinAddr: 0x60B4, symSize: 0x6C }
  - { offset: 0x1A78D, size: 0x8, addend: 0x0, symName: '__ZN5alloc3vec16Vec$LT$T$C$A$GT$14extend_trusted17hb443cc54062fcacdE', symObjAddr: 0x1508, symBinAddr: 0x6120, symSize: 0x124 }
  - { offset: 0x1A9DB, size: 0x8, addend: 0x0, symName: '__ZN5alloc3vec16Vec$LT$T$C$A$GT$14extend_trusted17hc9d3a1d78178aca5E', symObjAddr: 0x162C, symBinAddr: 0x6244, symSize: 0x130 }
  - { offset: 0x1ACF5, size: 0x8, addend: 0x0, symName: '__ZN5alloc3vec16Vec$LT$T$C$A$GT$16extend_desugared17h4852355e9bbc2ed2E', symObjAddr: 0x17D0, symBinAddr: 0x63E8, symSize: 0x1C0 }
  - { offset: 0x1B0ED, size: 0x8, addend: 0x0, symName: '__ZN5alloc3vec16Vec$LT$T$C$A$GT$16extend_desugared17hc6beea11cdb58e44E', symObjAddr: 0x1990, symBinAddr: 0x65A8, symSize: 0x1AC }
  - { offset: 0x1B77E, size: 0x8, addend: 0x0, symName: '__ZN5alloc3vec16Vec$LT$T$C$A$GT$16extend_desugared17hfeadeb85cc9f9b8aE', symObjAddr: 0x1B3C, symBinAddr: 0x6754, symSize: 0x1A8 }
  - { offset: 0x1BB0B, size: 0x8, addend: 0x0, symName: '__ZN5alloc3vec16Vec$LT$T$C$A$GT$17from_raw_parts_in17h5ed1e8f218b4e29dE', symObjAddr: 0x1CE4, symBinAddr: 0x68FC, symSize: 0xA4 }
  - { offset: 0x1BC8F, size: 0x8, addend: 0x0, symName: '__ZN5alloc3vec16Vec$LT$T$C$A$GT$3len17h9cdf3e41bf58d15dE', symObjAddr: 0x1D88, symBinAddr: 0x69A0, symSize: 0x18 }
  - { offset: 0x1BCC4, size: 0x8, addend: 0x0, symName: '__ZN5alloc3vec16Vec$LT$T$C$A$GT$3len17hc8659b0a5c9e992fE', symObjAddr: 0x1DA0, symBinAddr: 0x69B8, symSize: 0x18 }
  - { offset: 0x1BE13, size: 0x8, addend: 0x0, symName: '__ZN5alloc3vec16Vec$LT$T$C$A$GT$3pop17h3826c1efa97287e5E', symObjAddr: 0x1DB8, symBinAddr: 0x69D0, symSize: 0xE0 }
  - { offset: 0x1BF9E, size: 0x8, addend: 0x0, symName: '__ZN5alloc3vec16Vec$LT$T$C$A$GT$4push17h5bc60bc5bf3b3003E', symObjAddr: 0x1E98, symBinAddr: 0x6AB0, symSize: 0x30 }
  - { offset: 0x1BFE2, size: 0x8, addend: 0x0, symName: '__ZN5alloc3vec16Vec$LT$T$C$A$GT$4push17h66e14b9fb3aa1b64E', symObjAddr: 0x1EC8, symBinAddr: 0x6AE0, symSize: 0x28 }
  - { offset: 0x1C033, size: 0x8, addend: 0x0, symName: '__ZN5alloc3vec16Vec$LT$T$C$A$GT$4push17h9aa3667d5615002fE', symObjAddr: 0x1EF0, symBinAddr: 0x6B08, symSize: 0x34 }
  - { offset: 0x1C084, size: 0x8, addend: 0x0, symName: '__ZN5alloc3vec16Vec$LT$T$C$A$GT$4push17haf880422362068b9E', symObjAddr: 0x1F24, symBinAddr: 0x6B3C, symSize: 0x24 }
  - { offset: 0x1C18C, size: 0x8, addend: 0x0, symName: '__ZN5alloc3vec16Vec$LT$T$C$A$GT$5clear17h8b78536aa839f143E', symObjAddr: 0x1F48, symBinAddr: 0x6B60, symSize: 0x7C }
  - { offset: 0x1C3B2, size: 0x8, addend: 0x0, symName: '__ZN5alloc3vec16Vec$LT$T$C$A$GT$6resize17h51e13e41e818af15E', symObjAddr: 0x1FC4, symBinAddr: 0x6BDC, symSize: 0xF8 }
  - { offset: 0x1C689, size: 0x8, addend: 0x0, symName: '__ZN5alloc3vec16Vec$LT$T$C$A$GT$7reserve17h0bb95a0489dd3597E', symObjAddr: 0x20BC, symBinAddr: 0x6CD4, symSize: 0xA8 }
  - { offset: 0x1C8ED, size: 0x8, addend: 0x0, symName: '__ZN5alloc3vec16Vec$LT$T$C$A$GT$7reserve17h818f1d236b0bb080E', symObjAddr: 0x2164, symBinAddr: 0x6D7C, symSize: 0xA0 }
  - { offset: 0x1CB51, size: 0x8, addend: 0x0, symName: '__ZN5alloc3vec16Vec$LT$T$C$A$GT$7reserve17h9f928615248f798bE', symObjAddr: 0x2204, symBinAddr: 0x6E1C, symSize: 0xA8 }
  - { offset: 0x1CDB5, size: 0x8, addend: 0x0, symName: '__ZN5alloc3vec16Vec$LT$T$C$A$GT$7reserve17hd670dd9aa4fa3694E', symObjAddr: 0x22AC, symBinAddr: 0x6EC4, symSize: 0xA0 }
  - { offset: 0x1CFC1, size: 0x8, addend: 0x0, symName: '__ZN5alloc3vec16Vec$LT$T$C$A$GT$8as_slice17h5dc32a29eb67b435E', symObjAddr: 0x234C, symBinAddr: 0x6F64, symSize: 0x6C }
  - { offset: 0x1D139, size: 0x8, addend: 0x0, symName: '__ZN5alloc3vec16Vec$LT$T$C$A$GT$8as_slice17heac1f27d21c2903aE', symObjAddr: 0x23B8, symBinAddr: 0x6FD0, symSize: 0x6C }
  - { offset: 0x1D218, size: 0x8, addend: 0x0, symName: '__ZN5alloc3vec16Vec$LT$T$C$A$GT$8is_empty17hb29dfe6aaa2eff9eE', symObjAddr: 0x2424, symBinAddr: 0x703C, symSize: 0x20 }
  - { offset: 0x1D34B, size: 0x8, addend: 0x0, symName: '__ZN5alloc3vec16Vec$LT$T$C$A$GT$8push_mut17h1aff582b3a1d72e5E', symObjAddr: 0x2444, symBinAddr: 0x705C, symSize: 0xF4 }
  - { offset: 0x1D5C5, size: 0x8, addend: 0x0, symName: '__ZN5alloc3vec16Vec$LT$T$C$A$GT$8push_mut17h43966fa04583bf5bE', symObjAddr: 0x2538, symBinAddr: 0x7150, symSize: 0xE4 }
  - { offset: 0x1D83E, size: 0x8, addend: 0x0, symName: '__ZN5alloc3vec16Vec$LT$T$C$A$GT$8push_mut17h4db1291729987582E', symObjAddr: 0x261C, symBinAddr: 0x7234, symSize: 0xCC }
  - { offset: 0x1DAB5, size: 0x8, addend: 0x0, symName: '__ZN5alloc3vec16Vec$LT$T$C$A$GT$8push_mut17h8cee16c44b47f0e6E', symObjAddr: 0x26E8, symBinAddr: 0x7300, symSize: 0xCC }
  - { offset: 0x1DD53, size: 0x8, addend: 0x0, symName: '__ZN5alloc3vec16Vec$LT$T$C$A$GT$8push_mut17hd997e33050d052adE', symObjAddr: 0x27B4, symBinAddr: 0x73CC, symSize: 0xE0 }
  - { offset: 0x1DF7C, size: 0x8, addend: 0x0, symName: '__ZN5alloc3vec16Vec$LT$T$C$A$GT$8truncate17hd2a427687a10dd36E', symObjAddr: 0x2894, symBinAddr: 0x74AC, symSize: 0x68 }
  - { offset: 0x1EE1D, size: 0x8, addend: 0x0, symName: '__ZN100_$LT$pyo3..types..tuple..BorrowedTupleIterator$u20$as$u20$core..iter..traits..iterator..Iterator$GT$4next17he55524e7e649e03dE', symObjAddr: 0x0, symBinAddr: 0x7C5C, symSize: 0x9C }
  - { offset: 0x20007, size: 0x8, addend: 0x0, symName: '__ZN100_$LT$pyo3..types..tuple..BorrowedTupleIterator$u20$as$u20$core..iter..traits..iterator..Iterator$GT$4next17he55524e7e649e03dE', symObjAddr: 0x0, symBinAddr: 0x7C5C, symSize: 0x9C }
  - { offset: 0x206DD, size: 0x8, addend: 0x0, symName: __ZN4pyo310conversion12IntoPyObject28owned_sequence_into_pyobject17h63defaca1ac2a4bfE, symObjAddr: 0x0, symBinAddr: 0x7CF8, symSize: 0xDC }
  - { offset: 0x21DA5, size: 0x8, addend: 0x0, symName: __ZN4pyo310conversion12IntoPyObject28owned_sequence_into_pyobject17h63defaca1ac2a4bfE, symObjAddr: 0x0, symBinAddr: 0x7CF8, symSize: 0xDC }
  - { offset: 0x21E3C, size: 0x8, addend: 0x0, symName: __ZN4pyo310conversion12IntoPyObject28owned_sequence_into_pyobject17h81936d3bbd447773E, symObjAddr: 0xDC, symBinAddr: 0x7DD4, symSize: 0xDC }
  - { offset: 0x21ED8, size: 0x8, addend: 0x0, symName: '__ZN4pyo310conversion12IntoPyObject28owned_sequence_into_pyobject28_$u7b$$u7b$closure$u7d$$u7d$17h0d7a4e19aa8aa2bbE', symObjAddr: 0x1B8, symBinAddr: 0x7EB0, symSize: 0x34 }
  - { offset: 0x21F30, size: 0x8, addend: 0x0, symName: '__ZN4pyo310conversion12IntoPyObject28owned_sequence_into_pyobject28_$u7b$$u7b$closure$u7d$$u7d$17hcb276d8c0248d472E', symObjAddr: 0x1EC, symBinAddr: 0x7EE4, symSize: 0x24 }
  - { offset: 0x21F87, size: 0x8, addend: 0x0, symName: '__ZN4pyo310conversion12IntoPyObject28owned_sequence_into_pyobject28_$u7b$$u7b$closure$u7d$$u7d$17hf43eda1e05433d05E', symObjAddr: 0x210, symBinAddr: 0x7F08, symSize: 0x34 }
  - { offset: 0x21FDE, size: 0x8, addend: 0x0, symName: '__ZN4pyo310conversion12IntoPyObject28owned_sequence_into_pyobject28_$u7b$$u7b$closure$u7d$$u7d$17hff69315197b4c4f1E', symObjAddr: 0x244, symBinAddr: 0x7F3C, symSize: 0x34 }
  - { offset: 0x22089, size: 0x8, addend: 0x0, symName: __ZN4pyo310conversion15IntoPyObjectExt17into_bound_py_any17h777dfbe42d444ea9E, symObjAddr: 0x278, symBinAddr: 0x7F70, symSize: 0x4C }
  - { offset: 0x220F9, size: 0x8, addend: 0x0, symName: __ZN4pyo310conversion15IntoPyObjectExt17into_bound_py_any17hb82c6836f2cddef5E, symObjAddr: 0x2C4, symBinAddr: 0x7FBC, symSize: 0x4C }
  - { offset: 0x22169, size: 0x8, addend: 0x0, symName: __ZN4pyo310conversion15IntoPyObjectExt17into_bound_py_any17hc2d9e2989871ce5fE, symObjAddr: 0x310, symBinAddr: 0x8008, symSize: 0xD0 }
  - { offset: 0x22FBD, size: 0x8, addend: 0x0, symName: '__ZN100_$LT$core..iter..adapters..take..Take$LT$I$GT$$u20$as$u20$core..iter..traits..iterator..Iterator$GT$4next17hd720b29a69e4fca6E', symObjAddr: 0x0, symBinAddr: 0x80D8, symSize: 0x58 }
  - { offset: 0x237BA, size: 0x8, addend: 0x0, symName: '__ZN100_$LT$core..iter..adapters..take..Take$LT$I$GT$$u20$as$u20$core..iter..traits..iterator..Iterator$GT$4next17hd720b29a69e4fca6E', symObjAddr: 0x0, symBinAddr: 0x80D8, symSize: 0x58 }
  - { offset: 0x237EF, size: 0x8, addend: 0x0, symName: '__ZN100_$LT$core..iter..adapters..take..Take$LT$I$GT$$u20$as$u20$core..iter..traits..iterator..Iterator$GT$8try_fold17h14c5db4b7c5c9420E', symObjAddr: 0x58, symBinAddr: 0x8130, symSize: 0x100 }
  - { offset: 0x238A7, size: 0x8, addend: 0x0, symName: '__ZN100_$LT$core..iter..adapters..take..Take$LT$I$GT$$u20$as$u20$core..iter..traits..iterator..Iterator$GT$8try_fold17h6adb09883449ee59E', symObjAddr: 0x158, symBinAddr: 0x8230, symSize: 0x100 }
  - { offset: 0x2395F, size: 0x8, addend: 0x0, symName: '__ZN100_$LT$core..iter..adapters..take..Take$LT$I$GT$$u20$as$u20$core..iter..traits..iterator..Iterator$GT$8try_fold17h8990efedc350760fE', symObjAddr: 0x258, symBinAddr: 0x8330, symSize: 0x100 }
  - { offset: 0x23A17, size: 0x8, addend: 0x0, symName: '__ZN100_$LT$core..iter..adapters..take..Take$LT$I$GT$$u20$as$u20$core..iter..traits..iterator..Iterator$GT$8try_fold17hbb073ca6c2690a8dE', symObjAddr: 0x358, symBinAddr: 0x8430, symSize: 0x100 }
  - { offset: 0x23AD9, size: 0x8, addend: 0x0, symName: '__ZN100_$LT$core..iter..adapters..take..Take$LT$I$GT$$u20$as$u20$core..iter..traits..iterator..Iterator$GT$8try_fold5check28_$u7b$$u7b$closure$u7d$$u7d$17h7224ef2e85f5d268E', symObjAddr: 0x458, symBinAddr: 0x8530, symSize: 0x138 }
  - { offset: 0x23BC1, size: 0x8, addend: 0x0, symName: '__ZN100_$LT$core..iter..adapters..take..Take$LT$I$GT$$u20$as$u20$core..iter..traits..iterator..Iterator$GT$8try_fold5check28_$u7b$$u7b$closure$u7d$$u7d$17hae18b0066d6d302cE', symObjAddr: 0x590, symBinAddr: 0x8668, symSize: 0x138 }
  - { offset: 0x23CA9, size: 0x8, addend: 0x0, symName: '__ZN100_$LT$core..iter..adapters..take..Take$LT$I$GT$$u20$as$u20$core..iter..traits..iterator..Iterator$GT$8try_fold5check28_$u7b$$u7b$closure$u7d$$u7d$17hcca890f23cce33f0E', symObjAddr: 0x6C8, symBinAddr: 0x87A0, symSize: 0x138 }
  - { offset: 0x23D91, size: 0x8, addend: 0x0, symName: '__ZN100_$LT$core..iter..adapters..take..Take$LT$I$GT$$u20$as$u20$core..iter..traits..iterator..Iterator$GT$8try_fold5check28_$u7b$$u7b$closure$u7d$$u7d$17hf14a7d60c4e2408fE', symObjAddr: 0x800, symBinAddr: 0x88D8, symSize: 0x138 }
  - { offset: 0x2407F, size: 0x8, addend: 0x0, symName: __ZN4core4iter6traits8iterator8Iterator9enumerate17hdf6ed7feeb0e2435E, symObjAddr: 0x938, symBinAddr: 0x8A10, symSize: 0x18 }
  - { offset: 0x240B0, size: 0x8, addend: 0x0, symName: __ZN4core4iter6traits8iterator8Iterator9enumerate17hdf6ed7feeb0e2435E, symObjAddr: 0x938, symBinAddr: 0x8A10, symSize: 0x18 }
  - { offset: 0x260EA, size: 0x8, addend: 0x0, symName: '__ZN4core5array4iter10iter_inner78PolymorphicIter$LT$$u5b$core..mem..maybe_uninit..MaybeUninit$LT$T$GT$$u5d$$GT$4next17h0df7a2c166127494E', symObjAddr: 0x0, symBinAddr: 0x8A28, symSize: 0x17C }
  - { offset: 0x26770, size: 0x8, addend: 0x0, symName: '__ZN4core5array4iter10iter_inner78PolymorphicIter$LT$$u5b$core..mem..maybe_uninit..MaybeUninit$LT$T$GT$$u5d$$GT$4next17h0df7a2c166127494E', symObjAddr: 0x0, symBinAddr: 0x8A28, symSize: 0x17C }
  - { offset: 0x269C3, size: 0x8, addend: 0x0, symName: __ZN3std2io5Write9write_all17hb25c099f9e41dedfE, symObjAddr: 0x0, symBinAddr: 0x8BA4, symSize: 0x27C }
  - { offset: 0x26D50, size: 0x8, addend: 0x0, symName: __ZN3std2io5Write9write_all17hb25c099f9e41dedfE, symObjAddr: 0x0, symBinAddr: 0x8BA4, symSize: 0x27C }
  - { offset: 0x26F40, size: 0x8, addend: 0x0, symName: __ZN3std2io5Write9write_fmt17h581af9e5e3f1d47eE, symObjAddr: 0x27C, symBinAddr: 0x8E20, symSize: 0x8C }
  - { offset: 0x275F3, size: 0x8, addend: 0x0, symName: __ZN9hashbrown3raw11TableLayout20calculate_layout_for17hfea8516c5786d022E, symObjAddr: 0x0, symBinAddr: 0x8EAC, symSize: 0x220 }
  - { offset: 0x28CAE, size: 0x8, addend: 0x0, symName: __ZN9hashbrown3raw11TableLayout20calculate_layout_for17hfea8516c5786d022E, symObjAddr: 0x0, symBinAddr: 0x8EAC, symSize: 0x220 }
  - { offset: 0x2918C, size: 0x8, addend: 0x0, symName: __ZN9hashbrown3raw13RawTableInner15rehash_in_place17ha783b6a55a4d8994E, symObjAddr: 0x220, symBinAddr: 0x90CC, symSize: 0x408 }
  - { offset: 0x299EE, size: 0x8, addend: 0x0, symName: __ZN9hashbrown3raw13RawTableInner16fix_insert_index17ha5a9675110dc52d1E, symObjAddr: 0x628, symBinAddr: 0x94D4, symSize: 0x100 }
  - { offset: 0x29C60, size: 0x8, addend: 0x0, symName: __ZN9hashbrown3raw13RawTableInner17find_insert_index17h238138ffc34e1308E, symObjAddr: 0x728, symBinAddr: 0x95D4, symSize: 0xFC }
  - { offset: 0x29F65, size: 0x8, addend: 0x0, symName: __ZN9hashbrown3raw13RawTableInner23prepare_rehash_in_place17h45e05fbfbdc2ba53E, symObjAddr: 0x824, symBinAddr: 0x96D0, symSize: 0x204 }
  - { offset: 0x2A55B, size: 0x8, addend: 0x0, symName: __ZN9hashbrown3raw13RawTableInner26find_insert_index_in_group17h0acb259a9cdf8c76E, symObjAddr: 0xA28, symBinAddr: 0x98D4, symSize: 0x120 }
  - { offset: 0x2A818, size: 0x8, addend: 0x0, symName: __ZN9hashbrown3raw13RawTableInner31find_or_find_insert_index_inner17h82c4e517778279e3E, symObjAddr: 0xB48, symBinAddr: 0x99F4, symSize: 0x2A0 }
  - { offset: 0x2AC3A, size: 0x8, addend: 0x0, symName: __ZN9hashbrown3raw13RawTableInner5erase17hdd65bf347073ceffE, symObjAddr: 0xDE8, symBinAddr: 0x9C94, symSize: 0x178 }
  - { offset: 0x2AF4A, size: 0x8, addend: 0x0, symName: '__ZN11biospy_core3seq15count_ambiguous28_$u7b$$u7b$closure$u7d$$u7d$17h8f0581b4b2cc8270E', symObjAddr: 0x0, symBinAddr: 0x9E0C, symSize: 0x38 }
  - { offset: 0x2AF66, size: 0x8, addend: 0x0, symName: '__ZN11biospy_core3seq15count_ambiguous28_$u7b$$u7b$closure$u7d$$u7d$17h8f0581b4b2cc8270E', symObjAddr: 0x0, symBinAddr: 0x9E0C, symSize: 0x38 }
  - { offset: 0x2B012, size: 0x8, addend: 0x0, symName: __ZN5ahash12random_state11RandomState10with_seeds17h623e0c85588d5fb7E, symObjAddr: 0x0, symBinAddr: 0x9E44, symSize: 0x98 }
  - { offset: 0x2B096, size: 0x8, addend: 0x0, symName: __ZN5ahash12random_state15get_fixed_seeds17hc00af5101541c237E, symObjAddr: 0x100, symBinAddr: 0x9F44, symSize: 0x1C }
  - { offset: 0x2B0B3, size: 0x8, addend: 0x0, symName: __ZN5ahash12random_state7get_src17hf4cc3ae7da1a373fE, symObjAddr: 0x11C, symBinAddr: 0x9F60, symSize: 0x20 }
  - { offset: 0x2B0D5, size: 0x8, addend: 0x0, symName: '__ZN76_$LT$ahash..random_state..RandomState$u20$as$u20$core..hash..BuildHasher$GT$12build_hasher17h04afed284da10184E', symObjAddr: 0x13C, symBinAddr: 0x9F80, symSize: 0x24 }
  - { offset: 0x2B140, size: 0x8, addend: 0x0, symName: __ZN5ahash12random_state11RandomState10with_seeds17h623e0c85588d5fb7E, symObjAddr: 0x0, symBinAddr: 0x9E44, symSize: 0x98 }
  - { offset: 0x2B194, size: 0x8, addend: 0x0, symName: __ZN5ahash12random_state11RandomState3new17h721101f1b83d735eE, symObjAddr: 0x98, symBinAddr: 0x9EDC, symSize: 0x68 }
  - { offset: 0x2B297, size: 0x8, addend: 0x0, symName: __ZN4core9core_arch7aarch644neon9generated7vld1_u817h30d2df8f1f94f7f1E, symObjAddr: 0x0, symBinAddr: 0x9FA4, symSize: 0x34 }
  - { offset: 0x2B2BD, size: 0x8, addend: 0x0, symName: __ZN4core9core_arch7aarch644neon9generated7vld1_u817h30d2df8f1f94f7f1E, symObjAddr: 0x0, symBinAddr: 0x9FA4, symSize: 0x34 }
  - { offset: 0x2B2EB, size: 0x8, addend: 0x0, symName: __ZN4core9core_arch7aarch644neon9generated7vst1_u817hdac1449b6de1b219E, symObjAddr: 0x34, symBinAddr: 0x9FD8, symSize: 0x40 }
  - { offset: 0x2B325, size: 0x8, addend: 0x0, symName: __ZN4core9core_arch7aarch644neon9generated8vcgez_s817h498b7bd196e08a1eE, symObjAddr: 0x74, symBinAddr: 0xA018, symSize: 0x68 }
  - { offset: 0x2B3C7, size: 0x8, addend: 0x0, symName: __ZN4core9core_arch7aarch644neon9generated8vcltz_s817hce0efe6a102fb6e0E, symObjAddr: 0xDC, symBinAddr: 0xA080, symSize: 0x68 }
  - { offset: 0x2B5BD, size: 0x8, addend: 0x0, symName: '__ZN4pyo35impl_7pyclass16lazy_type_object23LazyTypeObject$LT$T$GT$11get_or_init17h8d3258a6b640ed41E', symObjAddr: 0x0, symBinAddr: 0xA0E8, symSize: 0x40 }
  - { offset: 0x2CF9D, size: 0x8, addend: 0x0, symName: '__ZN4pyo35impl_7pyclass16lazy_type_object23LazyTypeObject$LT$T$GT$11get_or_init28_$u7b$$u7b$closure$u7d$$u7d$17h1f9c1b8e203255ecE', symObjAddr: 0x80, symBinAddr: 0xA168, symSize: 0xA8 }
  - { offset: 0x2D026, size: 0x8, addend: 0x0, symName: '__ZN4pyo35impl_7pyclass16lazy_type_object23LazyTypeObject$LT$T$GT$11get_or_init28_$u7b$$u7b$closure$u7d$$u7d$17hbfe7cf37c980d2baE', symObjAddr: 0x128, symBinAddr: 0xA210, symSize: 0xA8 }
  - { offset: 0x2E0A6, size: 0x8, addend: 0x0, symName: '__ZN4pyo35impl_7pyclass16lazy_type_object23LazyTypeObject$LT$T$GT$11get_or_init17h8d3258a6b640ed41E', symObjAddr: 0x0, symBinAddr: 0xA0E8, symSize: 0x40 }
  - { offset: 0x2E115, size: 0x8, addend: 0x0, symName: '__ZN4pyo35impl_7pyclass16lazy_type_object23LazyTypeObject$LT$T$GT$11get_or_init17hc51f8192df58dd51E', symObjAddr: 0x40, symBinAddr: 0xA128, symSize: 0x40 }
  - { offset: 0x2E159, size: 0x8, addend: 0x0, symName: '__ZN4pyo35impl_7pyclass16lazy_type_object23LazyTypeObject$LT$T$GT$15get_or_try_init17h02dbe14618975f88E', symObjAddr: 0x1D0, symBinAddr: 0xA2B8, symSize: 0x58 }
  - { offset: 0x2E19D, size: 0x8, addend: 0x0, symName: '__ZN4pyo35impl_7pyclass16lazy_type_object23LazyTypeObject$LT$T$GT$15get_or_try_init17hfc5fff5e55417a22E', symObjAddr: 0x228, symBinAddr: 0xA310, symSize: 0x58 }
  - { offset: 0x2E2F3, size: 0x8, addend: 0x0, symName: __ZN4core4hash6Hasher19write_length_prefix17h8fa788d0568afabeE, symObjAddr: 0x0, symBinAddr: 0xA368, symSize: 0x28 }
  - { offset: 0x2E30F, size: 0x8, addend: 0x0, symName: __ZN4core4hash6Hasher19write_length_prefix17h8fa788d0568afabeE, symObjAddr: 0x0, symBinAddr: 0xA368, symSize: 0x28 }
  - { offset: 0x2E3DA, size: 0x8, addend: 0x0, symName: '__ZN52_$LT$char$u20$as$u20$core..str..pattern..Pattern$GT$12is_prefix_of17h5593b5e9a15f7a60E', symObjAddr: 0x0, symBinAddr: 0xA390, symSize: 0x78 }
  - { offset: 0x2E50D, size: 0x8, addend: 0x0, symName: '__ZN52_$LT$char$u20$as$u20$core..str..pattern..Pattern$GT$12is_prefix_of17h5593b5e9a15f7a60E', symObjAddr: 0x0, symBinAddr: 0xA390, symSize: 0x78 }
  - { offset: 0x2E5B4, size: 0x8, addend: 0x0, symName: '__ZN52_$LT$char$u20$as$u20$core..str..pattern..Pattern$GT$13into_searcher17hcda500acb2dd7751E', symObjAddr: 0x78, symBinAddr: 0xA408, symSize: 0x114 }
  - { offset: 0x2E6D2, size: 0x8, addend: 0x0, symName: '__ZN81_$LT$core..str..pattern..CharSearcher$u20$as$u20$core..str..pattern..Searcher$GT$4next17h0690b17f59d99454E', symObjAddr: 0x18C, symBinAddr: 0xA51C, symSize: 0x1D4 }
  - { offset: 0x2F18D, size: 0x8, addend: 0x0, symName: '__ZN4core3ptr7mut_ptr31_$LT$impl$u20$$BP$mut$u20$T$GT$6offset18precondition_check17h0d8d9cb9675a9976E', symObjAddr: 0x0, symBinAddr: 0xA6F0, symSize: 0xC4 }
  - { offset: 0x2F243, size: 0x8, addend: 0x0, symName: '__ZN4core3ptr7mut_ptr31_$LT$impl$u20$$BP$mut$u20$T$GT$6offset18precondition_check17h0d8d9cb9675a9976E', symObjAddr: 0x0, symBinAddr: 0xA6F0, symSize: 0xC4 }
  - { offset: 0x2F636, size: 0x8, addend: 0x0, symName: '__ZN4pyo312pyclass_init27PyClassInitializer$LT$T$GT$27create_class_object_of_type17h076e1661abc07bcbE', symObjAddr: 0x0, symBinAddr: 0xA7B4, symSize: 0x310 }
  - { offset: 0x315A5, size: 0x8, addend: 0x0, symName: '__ZN96_$LT$pyo3..pyclass_init..PyClassInitializer$LT$T$GT$$u20$as$u20$core..convert..From$LT$T$GT$$GT$4from17h44e3e9399b301043E', symObjAddr: 0x80C, symBinAddr: 0xAFC0, symSize: 0x48 }
  - { offset: 0x315DB, size: 0x8, addend: 0x0, symName: '__ZN96_$LT$pyo3..pyclass_init..PyClassInitializer$LT$T$GT$$u20$as$u20$core..convert..From$LT$T$GT$$GT$4from17h8da1ef465907e6a3E', symObjAddr: 0x854, symBinAddr: 0xB008, symSize: 0x48 }
  - { offset: 0x320E9, size: 0x8, addend: 0x0, symName: '__ZN4pyo312pyclass_init27PyClassInitializer$LT$T$GT$27create_class_object_of_type17h076e1661abc07bcbE', symObjAddr: 0x0, symBinAddr: 0xA7B4, symSize: 0x310 }
  - { offset: 0x32319, size: 0x8, addend: 0x0, symName: '__ZN4pyo312pyclass_init27PyClassInitializer$LT$T$GT$27create_class_object_of_type17h1f5d1b6edde7d26bE', symObjAddr: 0x310, symBinAddr: 0xAAC4, symSize: 0x30C }
  - { offset: 0x32503, size: 0x8, addend: 0x0, symName: '__ZN4pyo312pyclass_init27PyClassInitializer$LT$T$GT$3new17h33eaa108432f73d3E', symObjAddr: 0x61C, symBinAddr: 0xADD0, symSize: 0xF8 }
  - { offset: 0x3253E, size: 0x8, addend: 0x0, symName: '__ZN4pyo312pyclass_init27PyClassInitializer$LT$T$GT$3new17hcad7559aa48497b3E', symObjAddr: 0x714, symBinAddr: 0xAEC8, symSize: 0xF8 }
  - { offset: 0x32597, size: 0x8, addend: 0x0, symName: '__ZN71_$LT$std..hash..random..DefaultHasher$u20$as$u20$core..hash..Hasher$GT$5write17h932616aee34197a6E', symObjAddr: 0x0, symBinAddr: 0xB050, symSize: 0x2C }
  - { offset: 0x32769, size: 0x8, addend: 0x0, symName: '__ZN71_$LT$std..hash..random..DefaultHasher$u20$as$u20$core..hash..Hasher$GT$5write17h932616aee34197a6E', symObjAddr: 0x0, symBinAddr: 0xB050, symSize: 0x2C }
  - { offset: 0x327C3, size: 0x8, addend: 0x0, symName: '__ZN71_$LT$std..hash..random..DefaultHasher$u20$as$u20$core..hash..Hasher$GT$6finish17h99e1dfe268dfba20E', symObjAddr: 0x2C, symBinAddr: 0xB07C, symSize: 0x20 }
  - { offset: 0x32841, size: 0x8, addend: 0x0, symName: '__ZN73_$LT$std..hash..random..RandomState$u20$as$u20$core..default..Default$GT$7default17hef32a3dd5588f6ffE', symObjAddr: 0x4C, symBinAddr: 0xB09C, symSize: 0x1C }
  - { offset: 0x32879, size: 0x8, addend: 0x0, symName: '__ZN74_$LT$std..hash..random..RandomState$u20$as$u20$core..hash..BuildHasher$GT$12build_hasher17ha8d82e525600182bE', symObjAddr: 0x68, symBinAddr: 0xB0B8, symSize: 0xCC }
  - { offset: 0x329CC, size: 0x8, addend: 0x0, symName: '__ZN4core4hash5impls49_$LT$impl$u20$core..hash..Hash$u20$for$u20$u8$GT$10hash_slice17hf2746a3f65df26caE', symObjAddr: 0x0, symBinAddr: 0xB184, symSize: 0x80 }
  - { offset: 0x32A83, size: 0x8, addend: 0x0, symName: '__ZN4core4hash5impls49_$LT$impl$u20$core..hash..Hash$u20$for$u20$u8$GT$10hash_slice17hf2746a3f65df26caE', symObjAddr: 0x0, symBinAddr: 0xB184, symSize: 0x80 }
  - { offset: 0x32B63, size: 0x8, addend: 0x0, symName: '__ZN4core4hash5impls49_$LT$impl$u20$core..hash..Hash$u20$for$u20$u8$GT$4hash17hcc46fcc1e8f1a197E', symObjAddr: 0x80, symBinAddr: 0xB204, symSize: 0x38 }
  - { offset: 0x32BAB, size: 0x8, addend: 0x0, symName: '__ZN4core4hash5impls50_$LT$impl$u20$core..hash..Hash$u20$for$u20$u64$GT$4hash17h43008494e58e5e85E', symObjAddr: 0xB8, symBinAddr: 0xB23C, symSize: 0x38 }
  - { offset: 0x32BF3, size: 0x8, addend: 0x0, symName: '__ZN4core4hash5impls52_$LT$impl$u20$core..hash..Hash$u20$for$u20$$RF$T$GT$4hash17h006df2b2fb6ec93bE', symObjAddr: 0xF0, symBinAddr: 0xB274, symSize: 0x30 }
  - { offset: 0x32C3E, size: 0x8, addend: 0x0, symName: '__ZN4core4hash5impls52_$LT$impl$u20$core..hash..Hash$u20$for$u20$$RF$T$GT$4hash17h24e9d7cbdd298f71E', symObjAddr: 0x120, symBinAddr: 0xB2A4, symSize: 0x3C }
  - { offset: 0x32C89, size: 0x8, addend: 0x0, symName: '__ZN4core4hash5impls52_$LT$impl$u20$core..hash..Hash$u20$for$u20$$RF$T$GT$4hash17h6fd3ddf43503dcccE', symObjAddr: 0x15C, symBinAddr: 0xB2E0, symSize: 0x30 }
  - { offset: 0x32CDA, size: 0x8, addend: 0x0, symName: '__ZN4core4hash5impls58_$LT$impl$u20$core..hash..Hash$u20$for$u20$$u5b$T$u5d$$GT$4hash17h7de14df25c07536dE', symObjAddr: 0x18C, symBinAddr: 0xB310, symSize: 0x50 }
  - { offset: 0x32D2B, size: 0x8, addend: 0x0, symName: '__ZN4core4hash5impls64_$LT$impl$u20$core..hash..Hash$u20$for$u20$$LP$T$C$B$C$C$RP$$GT$4hash17h17a99d6e71113249E', symObjAddr: 0x1DC, symBinAddr: 0xB360, symSize: 0x68 }
  - { offset: 0x33010, size: 0x8, addend: 0x0, symName: '__ZN100_$LT$pyo3..pycell..impl_..MutableClass$u20$as$u20$pyo3..pycell..impl_..GetBorrowChecker$LT$T$GT$$GT$14borrow_checker17hbfa88c0bd24ff685E', symObjAddr: 0x0, symBinAddr: 0xB3C8, symSize: 0x14 }
  - { offset: 0x3438C, size: 0x8, addend: 0x0, symName: '__ZN100_$LT$pyo3..pycell..impl_..MutableClass$u20$as$u20$pyo3..pycell..impl_..GetBorrowChecker$LT$T$GT$$GT$14borrow_checker17hbfa88c0bd24ff685E', symObjAddr: 0x0, symBinAddr: 0xB3C8, symSize: 0x14 }
  - { offset: 0x343C1, size: 0x8, addend: 0x0, symName: '__ZN100_$LT$pyo3..pycell..impl_..MutableClass$u20$as$u20$pyo3..pycell..impl_..GetBorrowChecker$LT$T$GT$$GT$14borrow_checker17hcd0920480ac5e7abE', symObjAddr: 0x14, symBinAddr: 0xB3DC, symSize: 0x14 }
  - { offset: 0x343FC, size: 0x8, addend: 0x0, symName: '__ZN113_$LT$pyo3..pycell..impl_..PyClassObject$LT$T$GT$$u20$as$u20$pyo3..pycell..impl_..PyClassObjectLayout$LT$T$GT$$GT$10tp_dealloc17h5082828163a0f128E', symObjAddr: 0x28, symBinAddr: 0xB3F0, symSize: 0xB4 }
  - { offset: 0x34460, size: 0x8, addend: 0x0, symName: '__ZN113_$LT$pyo3..pycell..impl_..PyClassObject$LT$T$GT$$u20$as$u20$pyo3..pycell..impl_..PyClassObjectLayout$LT$T$GT$$GT$10tp_dealloc17hdd9ea6c873f2bc70E', symObjAddr: 0xDC, symBinAddr: 0xB4A4, symSize: 0xB4 }
  - { offset: 0x344C4, size: 0x8, addend: 0x0, symName: '__ZN113_$LT$pyo3..pycell..impl_..PyClassObject$LT$T$GT$$u20$as$u20$pyo3..pycell..impl_..PyClassObjectLayout$LT$T$GT$$GT$17ensure_threadsafe17h5983ece889925ae6E', symObjAddr: 0x190, symBinAddr: 0xB558, symSize: 0x30 }
  - { offset: 0x344F7, size: 0x8, addend: 0x0, symName: '__ZN113_$LT$pyo3..pycell..impl_..PyClassObject$LT$T$GT$$u20$as$u20$pyo3..pycell..impl_..PyClassObjectLayout$LT$T$GT$$GT$17ensure_threadsafe17h7aea0d5d612e1ccaE', symObjAddr: 0x1C0, symBinAddr: 0xB588, symSize: 0x30 }
  - { offset: 0x34530, size: 0x8, addend: 0x0, symName: '__ZN117_$LT$pyo3..pycell..impl_..PyClassObjectBase$LT$U$GT$$u20$as$u20$pyo3..pycell..impl_..PyClassObjectLayout$LT$T$GT$$GT$10tp_dealloc17h1ffb992bf1ea72e6E', symObjAddr: 0x1F0, symBinAddr: 0xB5B8, symSize: 0x288 }
  - { offset: 0x34659, size: 0x8, addend: 0x0, symName: '__ZN117_$LT$pyo3..pycell..impl_..PyClassObjectBase$LT$U$GT$$u20$as$u20$pyo3..pycell..impl_..PyClassObjectLayout$LT$T$GT$$GT$17ensure_threadsafe17h7c99953cc62c53a2E', symObjAddr: 0x478, symBinAddr: 0xB840, symSize: 0x10 }
  - { offset: 0x352A2, size: 0x8, addend: 0x0, symName: '__ZN4pyo36pycell5impl_22PyClassObject$LT$T$GT$14borrow_checker17h1d2911ce2ebd584bE', symObjAddr: 0x488, symBinAddr: 0xB850, symSize: 0x24 }
  - { offset: 0x35300, size: 0x8, addend: 0x0, symName: '__ZN4pyo36pycell5impl_22PyClassObject$LT$T$GT$14borrow_checker17hb9a1943a7cdfbf38E', symObjAddr: 0x4AC, symBinAddr: 0xB874, symSize: 0x24 }
  - { offset: 0x35339, size: 0x8, addend: 0x0, symName: '__ZN4pyo36pycell5impl_22PyClassObject$LT$T$GT$7get_ptr17hdc659eec130a47dfE', symObjAddr: 0x4D0, symBinAddr: 0xB898, symSize: 0x24 }
  - { offset: 0x35372, size: 0x8, addend: 0x0, symName: '__ZN4pyo36pycell5impl_22PyClassObject$LT$T$GT$7get_ptr17he17974bcf13fd3beE', symObjAddr: 0x4F4, symBinAddr: 0xB8BC, symSize: 0x24 }
  - { offset: 0x35428, size: 0x8, addend: 0x0, symName: __ZN4pyo35types8sequence16extract_sequence17h949abed6c686488eE, symObjAddr: 0x0, symBinAddr: 0xB8E0, symSize: 0x3F8 }
  - { offset: 0x36ABB, size: 0x8, addend: 0x0, symName: __ZN4pyo35types8sequence16extract_sequence17h949abed6c686488eE, symObjAddr: 0x0, symBinAddr: 0xB8E0, symSize: 0x3F8 }
  - { offset: 0x36BBB, size: 0x8, addend: 0x0, symName: __ZN4pyo35types8sequence16extract_sequence17hc31eda55252f4258E, symObjAddr: 0x3F8, symBinAddr: 0xBCD8, symSize: 0x41C }
  - { offset: 0x3778F, size: 0x8, addend: 0x0, symName: __ZN3std9panicking12catch_unwind7do_call17h0b7454bdfb8eb9dcE, symObjAddr: 0x0, symBinAddr: 0xC0F4, symSize: 0x78 }
  - { offset: 0x39832, size: 0x8, addend: 0x0, symName: __ZN3std9panicking12catch_unwind7do_call17h0b7454bdfb8eb9dcE, symObjAddr: 0x0, symBinAddr: 0xC0F4, symSize: 0x78 }
  - { offset: 0x39919, size: 0x8, addend: 0x0, symName: __ZN3std9panicking12catch_unwind7do_call17h2675f789eb3065c6E, symObjAddr: 0x78, symBinAddr: 0xC16C, symSize: 0x78 }
  - { offset: 0x39A00, size: 0x8, addend: 0x0, symName: __ZN3std9panicking12catch_unwind7do_call17h5c1af7316dcd1cc3E, symObjAddr: 0xF0, symBinAddr: 0xC1E4, symSize: 0x78 }
  - { offset: 0x39AE7, size: 0x8, addend: 0x0, symName: __ZN3std9panicking12catch_unwind7do_call17hb2fc54ac04825d83E, symObjAddr: 0x168, symBinAddr: 0xC25C, symSize: 0x6C }
  - { offset: 0x39BCE, size: 0x8, addend: 0x0, symName: __ZN3std9panicking12catch_unwind7do_call17hfa64b6c77c36701eE, symObjAddr: 0x1D4, symBinAddr: 0xC2C8, symSize: 0x7C }
  - { offset: 0x39CB5, size: 0x8, addend: 0x0, symName: __ZN3std9panicking12catch_unwind8do_catch17h3d961c0a0a94a572E, symObjAddr: 0x250, symBinAddr: 0xC344, symSize: 0x70 }
  - { offset: 0x39D4A, size: 0x8, addend: 0x0, symName: __ZN3std9panicking12catch_unwind8do_catch17h406963824d9b7641E, symObjAddr: 0x2C0, symBinAddr: 0xC3B4, symSize: 0x70 }
  - { offset: 0x39DDF, size: 0x8, addend: 0x0, symName: __ZN3std9panicking12catch_unwind8do_catch17h6fde637f27315866E, symObjAddr: 0x330, symBinAddr: 0xC424, symSize: 0x70 }
  - { offset: 0x39E74, size: 0x8, addend: 0x0, symName: __ZN3std9panicking12catch_unwind8do_catch17h7b9daf53762ac84eE, symObjAddr: 0x3A0, symBinAddr: 0xC494, symSize: 0x70 }
  - { offset: 0x39F09, size: 0x8, addend: 0x0, symName: __ZN3std9panicking12catch_unwind8do_catch17hac21949ffb158af3E, symObjAddr: 0x410, symBinAddr: 0xC504, symSize: 0x70 }
  - { offset: 0x3A489, size: 0x8, addend: 0x0, symName: '__ZN106_$LT$core..slice..iter..Iter$LT$T$GT$$u20$as$u20$core..iter..traits..double_ended..DoubleEndedIterator$GT$9next_back17h13499e907107d479E', symObjAddr: 0x0, symBinAddr: 0xC574, symSize: 0xE8 }
  - { offset: 0x3ACF8, size: 0x8, addend: 0x0, symName: '__ZN106_$LT$core..slice..iter..Iter$LT$T$GT$$u20$as$u20$core..iter..traits..double_ended..DoubleEndedIterator$GT$9next_back17h13499e907107d479E', symObjAddr: 0x0, symBinAddr: 0xC574, symSize: 0xE8 }
  - { offset: 0x3AF48, size: 0x8, addend: 0x0, symName: '__ZN91_$LT$core..slice..iter..Iter$LT$T$GT$$u20$as$u20$core..iter..traits..iterator..Iterator$GT$4fold17h7066f140782660fdE', symObjAddr: 0x4A4, symBinAddr: 0xCA18, symSize: 0x1A4 }
  - { offset: 0x3B082, size: 0x8, addend: 0x0, symName: '__ZN91_$LT$core..slice..iter..Iter$LT$T$GT$$u20$as$u20$core..iter..traits..iterator..Iterator$GT$4fold17h9e0e36af6ac05d28E', symObjAddr: 0x648, symBinAddr: 0xCBBC, symSize: 0x1A8 }
  - { offset: 0x3B1B8, size: 0x8, addend: 0x0, symName: '__ZN91_$LT$core..slice..iter..Iter$LT$T$GT$$u20$as$u20$core..iter..traits..iterator..Iterator$GT$4fold17hc7059a2f930e91d6E', symObjAddr: 0x7F0, symBinAddr: 0xCD64, symSize: 0x1A4 }
  - { offset: 0x3B2F2, size: 0x8, addend: 0x0, symName: '__ZN91_$LT$core..slice..iter..Iter$LT$T$GT$$u20$as$u20$core..iter..traits..iterator..Iterator$GT$4next17h5268ad19979ecc6cE', symObjAddr: 0x994, symBinAddr: 0xCF08, symSize: 0x84 }
  - { offset: 0x3B3A8, size: 0x8, addend: 0x0, symName: '__ZN91_$LT$core..slice..iter..Iter$LT$T$GT$$u20$as$u20$core..iter..traits..iterator..Iterator$GT$4next17h9d2d291e61c14026E', symObjAddr: 0xA18, symBinAddr: 0xCF8C, symSize: 0x84 }
  - { offset: 0x3B45E, size: 0x8, addend: 0x0, symName: '__ZN91_$LT$core..slice..iter..Iter$LT$T$GT$$u20$as$u20$core..iter..traits..iterator..Iterator$GT$4next17ha78fe953f986ceccE', symObjAddr: 0xA9C, symBinAddr: 0xD010, symSize: 0x84 }
  - { offset: 0x3B514, size: 0x8, addend: 0x0, symName: '__ZN91_$LT$core..slice..iter..Iter$LT$T$GT$$u20$as$u20$core..iter..traits..iterator..Iterator$GT$4next17hc9f391f2dd52eb77E', symObjAddr: 0xB20, symBinAddr: 0xD094, symSize: 0x84 }
  - { offset: 0x3B619, size: 0x8, addend: 0x0, symName: '__ZN91_$LT$core..slice..iter..Iter$LT$T$GT$$u20$as$u20$core..iter..traits..iterator..Iterator$GT$8position17h887e2aa47ddc0ee1E', symObjAddr: 0xBA4, symBinAddr: 0xD118, symSize: 0x194 }
  - { offset: 0x3B7A6, size: 0x8, addend: 0x0, symName: '__ZN91_$LT$core..slice..iter..Iter$LT$T$GT$$u20$as$u20$core..iter..traits..iterator..Iterator$GT$8position17hbfa644767c99e644E', symObjAddr: 0xD38, symBinAddr: 0xD2AC, symSize: 0x194 }
  - { offset: 0x3B8E4, size: 0x8, addend: 0x0, symName: '__ZN91_$LT$core..slice..iter..Iter$LT$T$GT$$u20$as$u20$core..iter..traits..iterator..Iterator$GT$9size_hint17h091f31cdc4033973E', symObjAddr: 0xECC, symBinAddr: 0xD440, symSize: 0x60 }
  - { offset: 0x3B953, size: 0x8, addend: 0x0, symName: '__ZN91_$LT$core..slice..iter..Iter$LT$T$GT$$u20$as$u20$core..iter..traits..iterator..Iterator$GT$9size_hint17h427a3586f67097c9E', symObjAddr: 0xF2C, symBinAddr: 0xD4A0, symSize: 0x60 }
  - { offset: 0x3B9C2, size: 0x8, addend: 0x0, symName: '__ZN91_$LT$core..slice..iter..Iter$LT$T$GT$$u20$as$u20$core..iter..traits..iterator..Iterator$GT$9size_hint17h98e0fecc4724d9fdE', symObjAddr: 0xF8C, symBinAddr: 0xD500, symSize: 0x60 }
  - { offset: 0x3BAA3, size: 0x8, addend: 0x0, symName: '__ZN94_$LT$core..slice..iter..Windows$LT$T$GT$$u20$as$u20$core..iter..traits..iterator..Iterator$GT$4next17h73082cf154576991E', symObjAddr: 0xFEC, symBinAddr: 0xD560, symSize: 0x168 }
  - { offset: 0x3BC42, size: 0x8, addend: 0x0, symName: '__ZN96_$LT$core..slice..iter..ChunksMut$LT$T$GT$$u20$as$u20$core..iter..traits..iterator..Iterator$GT$4next17ha5a80585e9f9ca0dE', symObjAddr: 0x1154, symBinAddr: 0xD6C8, symSize: 0x110 }
  - { offset: 0x3CAF0, size: 0x8, addend: 0x0, symName: __ZN4core4iter6traits12double_ended19DoubleEndedIterator5rfold17h44c01d2b46120858E, symObjAddr: 0xE8, symBinAddr: 0xC65C, symSize: 0xD4 }
  - { offset: 0x3CB8C, size: 0x8, addend: 0x0, symName: __ZN4core4iter6traits8iterator8Iterator3map17hb245e8d4a281e594E, symObjAddr: 0x1BC, symBinAddr: 0xC730, symSize: 0x1C }
  - { offset: 0x3CBE4, size: 0x8, addend: 0x0, symName: __ZN4core4iter6traits8iterator8Iterator3map17hd2730738be95f108E, symObjAddr: 0x1D8, symBinAddr: 0xC74C, symSize: 0x1C }
  - { offset: 0x3CC3C, size: 0x8, addend: 0x0, symName: __ZN4core4iter6traits8iterator8Iterator3map17he993966f298e84d7E, symObjAddr: 0x1F4, symBinAddr: 0xC768, symSize: 0x30 }
  - { offset: 0x3CCA9, size: 0x8, addend: 0x0, symName: __ZN4core4iter6traits8iterator8Iterator3map17hf0dcb8b2c21028aaE, symObjAddr: 0x224, symBinAddr: 0xC798, symSize: 0x38 }
  - { offset: 0x3CD16, size: 0x8, addend: 0x0, symName: __ZN4core4iter6traits8iterator8Iterator3rev17h16cb61906e45cc86E, symObjAddr: 0x25C, symBinAddr: 0xC7D0, symSize: 0x1C }
  - { offset: 0x3CD4D, size: 0x8, addend: 0x0, symName: __ZN4core4iter6traits8iterator8Iterator6copied17hc0e2c026eb82fa7eE, symObjAddr: 0x278, symBinAddr: 0xC7EC, symSize: 0x1C }
  - { offset: 0x3CD8D, size: 0x8, addend: 0x0, symName: __ZN4core4iter6traits8iterator8Iterator6filter17h49cdd9b5c029ea70E, symObjAddr: 0x294, symBinAddr: 0xC808, symSize: 0x1C }
  - { offset: 0x3CDDC, size: 0x8, addend: 0x0, symName: __ZN4core4iter6traits8iterator8Iterator6filter17h784495cf36951fc1E, symObjAddr: 0x2B0, symBinAddr: 0xC824, symSize: 0x1C }
  - { offset: 0x3CE52, size: 0x8, addend: 0x0, symName: __ZN4core4iter6traits8iterator8Iterator8flat_map17h8407c957d9ad95a8E, symObjAddr: 0x2CC, symBinAddr: 0xC840, symSize: 0xB0 }
  - { offset: 0x3CF60, size: 0x8, addend: 0x0, symName: '__ZN63_$LT$I$u20$as$u20$core..iter..traits..collect..IntoIterator$GT$9into_iter17h0f0c0bf2c3e5c481E', symObjAddr: 0x474, symBinAddr: 0xC9E8, symSize: 0x18 }
  - { offset: 0x3CF97, size: 0x8, addend: 0x0, symName: '__ZN63_$LT$I$u20$as$u20$core..iter..traits..collect..IntoIterator$GT$9into_iter17h2b0748ef1911e27aE', symObjAddr: 0x48C, symBinAddr: 0xCA00, symSize: 0x18 }
  - { offset: 0x3EEE4, size: 0x8, addend: 0x0, symName: '__ZN4core5slice4iter13Iter$LT$T$GT$3new17h1f3ddcbd94385c9fE', symObjAddr: 0x37C, symBinAddr: 0xC8F0, symSize: 0x50 }
  - { offset: 0x3F094, size: 0x8, addend: 0x0, symName: '__ZN4core5slice4iter13Iter$LT$T$GT$3new17h94f9cfd8694f45cdE', symObjAddr: 0x3CC, symBinAddr: 0xC940, symSize: 0x58 }
  - { offset: 0x3F244, size: 0x8, addend: 0x0, symName: '__ZN4core5slice4iter13Iter$LT$T$GT$3new17he030329dbf62e88fE', symObjAddr: 0x424, symBinAddr: 0xC998, symSize: 0x50 }
  - { offset: 0x3F714, size: 0x8, addend: 0x0, symName: __ZN4core5slice20copy_from_slice_impl17hc8dac7587e1292b1E, symObjAddr: 0x0, symBinAddr: 0xD7D8, symSize: 0xAC }
  - { offset: 0x3FFDD, size: 0x8, addend: 0x0, symName: '__ZN4core5slice29_$LT$impl$u20$$u5b$T$u5d$$GT$12split_at_mut17h50a6e7846205e11fE', symObjAddr: 0xAC, symBinAddr: 0xD884, symSize: 0xAC }
  - { offset: 0x40074, size: 0x8, addend: 0x0, symName: '__ZN4core5slice29_$LT$impl$u20$$u5b$T$u5d$$GT$12split_at_mut17h528fb37ea7d12193E', symObjAddr: 0x158, symBinAddr: 0xD930, symSize: 0xAC }
  - { offset: 0x400D8, size: 0x8, addend: 0x0, symName: '__ZN4core5slice29_$LT$impl$u20$$u5b$T$u5d$$GT$13sort_unstable17hb293d1961aad748bE', symObjAddr: 0x204, symBinAddr: 0xD9DC, symSize: 0xA8 }
  - { offset: 0x401AC, size: 0x8, addend: 0x0, symName: '__ZN4core5slice29_$LT$impl$u20$$u5b$T$u5d$$GT$14swap_unchecked17ha1fd7750277f808cE', symObjAddr: 0x2AC, symBinAddr: 0xDA84, symSize: 0x74 }
  - { offset: 0x402AC, size: 0x8, addend: 0x0, symName: '__ZN4core5slice29_$LT$impl$u20$$u5b$T$u5d$$GT$14swap_unchecked17hf9335c74e16de224E', symObjAddr: 0x320, symBinAddr: 0xDAF8, symSize: 0x74 }
  - { offset: 0x4039D, size: 0x8, addend: 0x0, symName: '__ZN4core5slice29_$LT$impl$u20$$u5b$T$u5d$$GT$16sort_unstable_by28_$u7b$$u7b$closure$u7d$$u7d$17hc2df31c53310ea61E', symObjAddr: 0x460, symBinAddr: 0xDC38, symSize: 0x50 }
  - { offset: 0x40415, size: 0x8, addend: 0x0, symName: '__ZN4core5slice29_$LT$impl$u20$$u5b$T$u5d$$GT$16sort_unstable_by17hcd019922fad43ef6E', symObjAddr: 0x394, symBinAddr: 0xDB6C, symSize: 0xCC }
  - { offset: 0x404F1, size: 0x8, addend: 0x0, symName: '__ZN4core5slice29_$LT$impl$u20$$u5b$T$u5d$$GT$18split_at_unchecked17h72120e68eaf8d09bE', symObjAddr: 0x4B0, symBinAddr: 0xDC88, symSize: 0xE8 }
  - { offset: 0x40672, size: 0x8, addend: 0x0, symName: '__ZN4core5slice29_$LT$impl$u20$$u5b$T$u5d$$GT$22split_at_mut_unchecked17h76d352e784a30314E', symObjAddr: 0x598, symBinAddr: 0xDD70, symSize: 0xFC }
  - { offset: 0x407ED, size: 0x8, addend: 0x0, symName: '__ZN4core5slice29_$LT$impl$u20$$u5b$T$u5d$$GT$22split_at_mut_unchecked17hbab0198a5982167fE', symObjAddr: 0x694, symBinAddr: 0xDE6C, symSize: 0xF4 }
  - { offset: 0x4098F, size: 0x8, addend: 0x0, symName: '__ZN4core5slice29_$LT$impl$u20$$u5b$T$u5d$$GT$7reverse17h373d003376392f68E', symObjAddr: 0x788, symBinAddr: 0xDF60, symSize: 0x10C }
  - { offset: 0x40B6D, size: 0x8, addend: 0x0, symName: '__ZN4core5slice29_$LT$impl$u20$$u5b$T$u5d$$GT$7reverse17hc592fde9e2f620dfE', symObjAddr: 0x894, symBinAddr: 0xE06C, symSize: 0x114 }
  - { offset: 0x40D02, size: 0x8, addend: 0x0, symName: '__ZN4core5slice29_$LT$impl$u20$$u5b$T$u5d$$GT$7reverse7revswap17h671de0d49768d8ccE', symObjAddr: 0x9A8, symBinAddr: 0xE180, symSize: 0x190 }
  - { offset: 0x40DBF, size: 0x8, addend: 0x0, symName: '__ZN4core5slice29_$LT$impl$u20$$u5b$T$u5d$$GT$7reverse7revswap17h6ef7fb2f6113334dE', symObjAddr: 0xB38, symBinAddr: 0xE310, symSize: 0x17C }
  - { offset: 0x40E7D, size: 0x8, addend: 0x0, symName: '__ZN4core5slice29_$LT$impl$u20$$u5b$T$u5d$$GT$7windows17h92b040aaf6b9f33fE', symObjAddr: 0xCB4, symBinAddr: 0xE48C, symSize: 0x98 }
  - { offset: 0x40F76, size: 0x8, addend: 0x0, symName: '__ZN4core5slice29_$LT$impl$u20$$u5b$T$u5d$$GT$8split_at17h1e39cdc53b7a4410E', symObjAddr: 0xD4C, symBinAddr: 0xE524, symSize: 0xAC }
  - { offset: 0x40FDB, size: 0x8, addend: 0x0, symName: __ZN4core5slice20copy_from_slice_impl17hc8dac7587e1292b1E, symObjAddr: 0x0, symBinAddr: 0xD7D8, symSize: 0xAC }
  - { offset: 0x42C79, size: 0x8, addend: 0x0, symName: '__ZN185_$LT$core..ops..control_flow..ControlFlow$LT$B$C$C$GT$$u20$as$u20$core..ops..try_trait..FromResidual$LT$core..ops..control_flow..ControlFlow$LT$B$C$core..convert..Infallible$GT$$GT$$GT$13from_residual17h230d2a8cd1789c22E', symObjAddr: 0x0, symBinAddr: 0xE5D0, symSize: 0x48 }
  - { offset: 0x43453, size: 0x8, addend: 0x0, symName: '__ZN185_$LT$core..ops..control_flow..ControlFlow$LT$B$C$C$GT$$u20$as$u20$core..ops..try_trait..FromResidual$LT$core..ops..control_flow..ControlFlow$LT$B$C$core..convert..Infallible$GT$$GT$$GT$13from_residual17h230d2a8cd1789c22E', symObjAddr: 0x0, symBinAddr: 0xE5D0, symSize: 0x48 }
  - { offset: 0x43498, size: 0x8, addend: 0x0, symName: '__ZN95_$LT$core..ops..control_flow..ControlFlow$LT$B$C$C$GT$$u20$as$u20$core..ops..try_trait..Try$GT$11from_output17h8ddbb8b0d5d63950E', symObjAddr: 0x48, symBinAddr: 0xE618, symSize: 0x20 }
  - { offset: 0x434D6, size: 0x8, addend: 0x0, symName: '__ZN95_$LT$core..ops..control_flow..ControlFlow$LT$B$C$C$GT$$u20$as$u20$core..ops..try_trait..Try$GT$6branch17h4dcea4e9c3ceb0feE', symObjAddr: 0x68, symBinAddr: 0xE638, symSize: 0x98 }
  - { offset: 0x44A44, size: 0x8, addend: 0x0, symName: __ZN4core5slice4sort8unstable7ipnsort17h20d519305531ee31E, symObjAddr: 0x0, symBinAddr: 0xE6D0, symSize: 0x328 }
  - { offset: 0x44BE2, size: 0x8, addend: 0x0, symName: __ZN4core5slice4sort8unstable7ipnsort17h20d519305531ee31E, symObjAddr: 0x0, symBinAddr: 0xE6D0, symSize: 0x328 }
  - { offset: 0x44F55, size: 0x8, addend: 0x0, symName: __ZN4core5slice4sort8unstable7ipnsort17hf358df08c4da2137E, symObjAddr: 0x328, symBinAddr: 0xE9F8, symSize: 0x328 }
  - { offset: 0x4577E, size: 0x8, addend: 0x0, symName: '__ZN109_$LT$$RF$biospy_core..py..PyMinHash$u20$as$u20$pyo3..impl_..extract_argument..PyFunctionArgument$LT$_$GT$$GT$7extract17h3c85bccfc38a06a4E', symObjAddr: 0x0, symBinAddr: 0xED20, symSize: 0x2C }
  - { offset: 0x4580B, size: 0x8, addend: 0x0, symName: '__ZN11biospy_core2py172_$LT$impl$u20$pyo3..impl_..pyclass..PyMethods$LT$biospy_core..py..PyMinHash$GT$$u20$for$u20$pyo3..impl_..pyclass..PyClassImplCollector$LT$biospy_core..py..PyMinHash$GT$$GT$10py_methods5ITEMS17hed9a26f278de0909E', symObjAddr: 0x4F80, symBinAddr: 0xED0A8, symSize: 0x0 }
  - { offset: 0x4581D, size: 0x8, addend: 0x0, symName: '__ZN11biospy_core2py172_$LT$impl$u20$pyo3..impl_..pyclass..PyMethods$LT$biospy_core..py..PyMinHash$GT$$u20$for$u20$pyo3..impl_..pyclass..PyClassImplCollector$LT$biospy_core..py..PyMinHash$GT$$GT$10py_methods5ITEMS10trampoline17h02c79cb840f22d44E', symObjAddr: 0x1A1C, symBinAddr: 0x1073C, symSize: 0x4C }
  - { offset: 0x45865, size: 0x8, addend: 0x0, symName: '__ZN11biospy_core2py172_$LT$impl$u20$pyo3..impl_..pyclass..PyMethods$LT$biospy_core..py..PyMinHash$GT$$u20$for$u20$pyo3..impl_..pyclass..PyClassImplCollector$LT$biospy_core..py..PyMinHash$GT$$GT$10py_methods5ITEMS10trampoline17h1a020a89ea848521E', symObjAddr: 0x1A68, symBinAddr: 0x10788, symSize: 0x50 }
  - { offset: 0x458BB, size: 0x8, addend: 0x0, symName: '__ZN11biospy_core2py172_$LT$impl$u20$pyo3..impl_..pyclass..PyMethods$LT$biospy_core..py..PyMinHash$GT$$u20$for$u20$pyo3..impl_..pyclass..PyClassImplCollector$LT$biospy_core..py..PyMinHash$GT$$GT$10py_methods5ITEMS10trampoline17h66097a06142a407cE', symObjAddr: 0x1AB8, symBinAddr: 0x107D8, symSize: 0x50 }
  - { offset: 0x4592B, size: 0x8, addend: 0x0, symName: '__ZN11biospy_core2py180_$LT$impl$u20$pyo3..impl_..pyclass..PyMethods$LT$biospy_core..py..PyKmerCounter$GT$$u20$for$u20$pyo3..impl_..pyclass..PyClassImplCollector$LT$biospy_core..py..PyKmerCounter$GT$$GT$10py_methods5ITEMS17h074d37b76596a6c6E', symObjAddr: 0x5070, symBinAddr: 0xED198, symSize: 0x0 }
  - { offset: 0x4593D, size: 0x8, addend: 0x0, symName: '__ZN11biospy_core2py180_$LT$impl$u20$pyo3..impl_..pyclass..PyMethods$LT$biospy_core..py..PyKmerCounter$GT$$u20$for$u20$pyo3..impl_..pyclass..PyClassImplCollector$LT$biospy_core..py..PyKmerCounter$GT$$GT$10py_methods5ITEMS10trampoline17h08e705c5d759fefdE', symObjAddr: 0x1B08, symBinAddr: 0x10828, symSize: 0x4C }
  - { offset: 0x45985, size: 0x8, addend: 0x0, symName: '__ZN11biospy_core2py180_$LT$impl$u20$pyo3..impl_..pyclass..PyMethods$LT$biospy_core..py..PyKmerCounter$GT$$u20$for$u20$pyo3..impl_..pyclass..PyClassImplCollector$LT$biospy_core..py..PyKmerCounter$GT$$GT$10py_methods5ITEMS10trampoline17h86dacfacd8c634ffE', symObjAddr: 0x1B54, symBinAddr: 0x10874, symSize: 0x44 }
  - { offset: 0x459BF, size: 0x8, addend: 0x0, symName: '__ZN11biospy_core2py180_$LT$impl$u20$pyo3..impl_..pyclass..PyMethods$LT$biospy_core..py..PyKmerCounter$GT$$u20$for$u20$pyo3..impl_..pyclass..PyClassImplCollector$LT$biospy_core..py..PyKmerCounter$GT$$GT$10py_methods5ITEMS10trampoline17h9287c345bc4530d1E', symObjAddr: 0x1B98, symBinAddr: 0x108B8, symSize: 0x50 }
  - { offset: 0x45A15, size: 0x8, addend: 0x0, symName: '__ZN11biospy_core2py180_$LT$impl$u20$pyo3..impl_..pyclass..PyMethods$LT$biospy_core..py..PyKmerCounter$GT$$u20$for$u20$pyo3..impl_..pyclass..PyClassImplCollector$LT$biospy_core..py..PyKmerCounter$GT$$GT$10py_methods5ITEMS10trampoline17hb9972577fbfb4147E', symObjAddr: 0x1BE8, symBinAddr: 0x10908, symSize: 0x50 }
  - { offset: 0x45A85, size: 0x8, addend: 0x0, symName: '__ZN80_$LT$biospy_core..py..PyMinHash$u20$as$u20$pyo3..impl_..pyclass..PyClassImpl$GT$10items_iter15INTRINSIC_ITEMS17h636488dacd88f1e7E', symObjAddr: 0x56B8, symBinAddr: 0xA84C8, symSize: 0x0 }
  - { offset: 0x45AA5, size: 0x8, addend: 0x0, symName: '__ZN80_$LT$biospy_core..py..PyMinHash$u20$as$u20$pyo3..impl_..pyclass..PyClassImpl$GT$16lazy_type_object11TYPE_OBJECT17hff41635799d98110E', symObjAddr: 0x5710, symBinAddr: 0xF43E8, symSize: 0x0 }
  - { offset: 0x45AC5, size: 0x8, addend: 0x0, symName: '__ZN80_$LT$biospy_core..py..PyMinHash$u20$as$u20$pyo3..impl_..pyclass..PyClassImpl$GT$3doc3DOC17h95e7badee58ce794E', symObjAddr: 0x5768, symBinAddr: 0xF4440, symSize: 0x0 }
  - { offset: 0x45AD3, size: 0x8, addend: 0x0, symName: '__ZN80_$LT$biospy_core..py..PyMinHash$u20$as$u20$pyo3..impl_..pyclass..PyClassImpl$GT$10items_iter17h8ed1ae558a54e228E', symObjAddr: 0x40EC, symBinAddr: 0x12E0C, symSize: 0x38 }
  - { offset: 0x45B0E, size: 0x8, addend: 0x0, symName: '__ZN80_$LT$biospy_core..py..PyMinHash$u20$as$u20$pyo3..impl_..pyclass..PyClassImpl$GT$16lazy_type_object17ha1d878be53804216E', symObjAddr: 0x4124, symBinAddr: 0x12E44, symSize: 0xC }
  - { offset: 0x45B2B, size: 0x8, addend: 0x0, symName: '__ZN80_$LT$biospy_core..py..PyMinHash$u20$as$u20$pyo3..impl_..pyclass..PyClassImpl$GT$3doc17h5b72d2e6713616a3E', symObjAddr: 0x4130, symBinAddr: 0x12E50, symSize: 0x3C }
  - { offset: 0x45C4F, size: 0x8, addend: 0x0, symName: '__ZN84_$LT$biospy_core..py..PyKmerCounter$u20$as$u20$pyo3..impl_..pyclass..PyClassImpl$GT$10items_iter15INTRINSIC_ITEMS17h5f2852d5d2033448E', symObjAddr: 0x56D8, symBinAddr: 0xA84E8, symSize: 0x0 }
  - { offset: 0x45C6F, size: 0x8, addend: 0x0, symName: '__ZN84_$LT$biospy_core..py..PyKmerCounter$u20$as$u20$pyo3..impl_..pyclass..PyClassImpl$GT$16lazy_type_object11TYPE_OBJECT17hc583a7fee3e5c565E', symObjAddr: 0x5788, symBinAddr: 0xF4460, symSize: 0x0 }
  - { offset: 0x45C8F, size: 0x8, addend: 0x0, symName: '__ZN84_$LT$biospy_core..py..PyKmerCounter$u20$as$u20$pyo3..impl_..pyclass..PyClassImpl$GT$3doc3DOC17hdf05bdeaa2da9f7aE', symObjAddr: 0x57E0, symBinAddr: 0xF44B8, symSize: 0x0 }
  - { offset: 0x45C9D, size: 0x8, addend: 0x0, symName: '__ZN84_$LT$biospy_core..py..PyKmerCounter$u20$as$u20$pyo3..impl_..pyclass..PyClassImpl$GT$10items_iter17h4e9a6c279822880aE', symObjAddr: 0x416C, symBinAddr: 0x12E8C, symSize: 0x38 }
  - { offset: 0x45CD8, size: 0x8, addend: 0x0, symName: '__ZN84_$LT$biospy_core..py..PyKmerCounter$u20$as$u20$pyo3..impl_..pyclass..PyClassImpl$GT$16lazy_type_object17h969dbfd77174be9aE', symObjAddr: 0x41A4, symBinAddr: 0x12EC4, symSize: 0xC }
  - { offset: 0x45CF5, size: 0x8, addend: 0x0, symName: '__ZN84_$LT$biospy_core..py..PyKmerCounter$u20$as$u20$pyo3..impl_..pyclass..PyClassImpl$GT$3doc17h92b9fd71e9bdd175E', symObjAddr: 0x41B0, symBinAddr: 0x12ED0, symSize: 0x3C }
  - { offset: 0x45E31, size: 0x8, addend: 0x0, symName: '__ZN109_$LT$$RF$biospy_core..py..PyMinHash$u20$as$u20$pyo3..impl_..extract_argument..PyFunctionArgument$LT$_$GT$$GT$7extract17h3c85bccfc38a06a4E', symObjAddr: 0x0, symBinAddr: 0xED20, symSize: 0x2C }
  - { offset: 0x45E6C, size: 0x8, addend: 0x0, symName: __ZN11biospy_core2py11biospy_core17h7ae2f8442a3180bcE, symObjAddr: 0x2C, symBinAddr: 0xED4C, symSize: 0x6F4 }
  - { offset: 0x4603D, size: 0x8, addend: 0x0, symName: __ZN11biospy_core2py11count_fastq17hecc918e8f496a656E, symObjAddr: 0x720, symBinAddr: 0xF440, symSize: 0x370 }
  - { offset: 0x46150, size: 0x8, addend: 0x0, symName: __ZN11biospy_core2py15count_ambiguous17he987039c5802a47bE, symObjAddr: 0x1750, symBinAddr: 0x10470, symSize: 0x28 }
  - { offset: 0x4617C, size: 0x8, addend: 0x0, symName: __ZN11biospy_core2py15read_fasta_seqs17h2275b49f66d7051bE, symObjAddr: 0x1778, symBinAddr: 0x10498, symSize: 0x40 }
  - { offset: 0x461A8, size: 0x8, addend: 0x0, symName: __ZN11biospy_core2py15read_fastq_seqs17hfbab0644fffe6185E, symObjAddr: 0x17B8, symBinAddr: 0x104D8, symSize: 0x40 }
  - { offset: 0x461D4, size: 0x8, addend: 0x0, symName: __ZN11biospy_core2py16extract_features17h5f3018138cd4a162E, symObjAddr: 0x17F8, symBinAddr: 0x10518, symSize: 0x224 }
  - { offset: 0x4626E, size: 0x8, addend: 0x0, symName: __ZN11biospy_core2py22extract_features_batch17h66c129ff17b4106aE, symObjAddr: 0x1C38, symBinAddr: 0x10958, symSize: 0x280 }
  - { offset: 0x46300, size: 0x8, addend: 0x0, symName: __ZN11biospy_core2py24__pyfunction_count_fastq17hf043dc72ee65b43dE, symObjAddr: 0x1EB8, symBinAddr: 0x10BD8, symSize: 0x2E8 }
  - { offset: 0x46479, size: 0x8, addend: 0x0, symName: __ZN11biospy_core2py28__pyfunction_count_ambiguous17h4ac942a8f77b169bE, symObjAddr: 0x21A0, symBinAddr: 0x10EC0, symSize: 0x254 }
  - { offset: 0x465FA, size: 0x8, addend: 0x0, symName: __ZN11biospy_core2py28__pyfunction_read_fasta_seqs17hb8a3f5c3548cabacE, symObjAddr: 0x23F4, symBinAddr: 0x11114, symSize: 0x2E8 }
  - { offset: 0x46773, size: 0x8, addend: 0x0, symName: __ZN11biospy_core2py28__pyfunction_read_fastq_seqs17h8cf0a4f4f198f325E, symObjAddr: 0x26DC, symBinAddr: 0x113FC, symSize: 0x2E8 }
  - { offset: 0x468EC, size: 0x8, addend: 0x0, symName: __ZN11biospy_core2py29__pyfunction_extract_features17h4c193e3cdcdd182eE, symObjAddr: 0x29C4, symBinAddr: 0x116E4, symSize: 0x47C }
  - { offset: 0x46ACD, size: 0x8, addend: 0x0, symName: __ZN11biospy_core2py35__pyfunction_extract_features_batch17hce1eb32a9efa0501E, symObjAddr: 0x2E40, symBinAddr: 0x11B60, symSize: 0x514 }
  - { offset: 0x46CC6, size: 0x8, addend: 0x0, symName: '__ZN11biospy_core2py55_$LT$impl$u20$biospy_core..py..biospy_core..MakeDef$GT$8make_def15__pyo3_pymodule17h4bc6fefa615c47dbE', symObjAddr: 0x3354, symBinAddr: 0x12074, symSize: 0x38 }
  - { offset: 0x46CFE, size: 0x8, addend: 0x0, symName: '__ZN11biospy_core2py55_$LT$impl$u20$biospy_core..py..count_fastq..MakeDef$GT$9_PYO3_DEF10trampoline17hca6d998467012c76E', symObjAddr: 0x338C, symBinAddr: 0x120AC, symSize: 0x50 }
  - { offset: 0x46D60, size: 0x8, addend: 0x0, symName: '__ZN11biospy_core2py59_$LT$impl$u20$biospy_core..py..count_ambiguous..MakeDef$GT$9_PYO3_DEF10trampoline17hc304b178ed473701E', symObjAddr: 0x33DC, symBinAddr: 0x120FC, symSize: 0x50 }
  - { offset: 0x46DC2, size: 0x8, addend: 0x0, symName: '__ZN11biospy_core2py59_$LT$impl$u20$biospy_core..py..read_fasta_seqs..MakeDef$GT$9_PYO3_DEF10trampoline17h3c1d730d005dc1a7E', symObjAddr: 0x342C, symBinAddr: 0x1214C, symSize: 0x50 }
  - { offset: 0x46E24, size: 0x8, addend: 0x0, symName: '__ZN11biospy_core2py59_$LT$impl$u20$biospy_core..py..read_fastq_seqs..MakeDef$GT$9_PYO3_DEF10trampoline17h77c7344d793074d5E', symObjAddr: 0x347C, symBinAddr: 0x1219C, symSize: 0x50 }
  - { offset: 0x46E86, size: 0x8, addend: 0x0, symName: '__ZN11biospy_core2py60_$LT$impl$u20$biospy_core..py..extract_features..MakeDef$GT$9_PYO3_DEF10trampoline17h727c488d4300710aE', symObjAddr: 0x34CC, symBinAddr: 0x121EC, symSize: 0x50 }
  - { offset: 0x46EE8, size: 0x8, addend: 0x0, symName: '__ZN11biospy_core2py66_$LT$impl$u20$biospy_core..py..extract_features_batch..MakeDef$GT$9_PYO3_DEF10trampoline17hf922f5ffe56da5d8E', symObjAddr: 0x351C, symBinAddr: 0x1223C, symSize: 0x50 }
  - { offset: 0x46F45, size: 0x8, addend: 0x0, symName: '__ZN76_$LT$biospy_core..py..PyMinHash$u20$as$u20$pyo3..type_object..PyTypeInfo$GT$15type_object_raw17h49681708d91e8aaeE', symObjAddr: 0x40A4, symBinAddr: 0x12DC4, symSize: 0x24 }
  - { offset: 0x46F82, size: 0x8, addend: 0x0, symName: '__ZN80_$LT$biospy_core..py..PyKmerCounter$u20$as$u20$pyo3..type_object..PyTypeInfo$GT$15type_object_raw17h84d23a361707a42bE', symObjAddr: 0x40C8, symBinAddr: 0x12DE8, symSize: 0x24 }
  - { offset: 0x4AF04, size: 0x8, addend: 0x0, symName: __ZN11biospy_core2py13PyKmerCounter16__pymethod_len__17h258556de6a169e69E, symObjAddr: 0xA90, symBinAddr: 0xF7B0, symSize: 0x214 }
  - { offset: 0x4AFF4, size: 0x8, addend: 0x0, symName: __ZN11biospy_core2py13PyKmerCounter18__pymethod_top_n__17h835a19680bb049fcE, symObjAddr: 0xCA4, symBinAddr: 0xF9C4, symSize: 0x3F8 }
  - { offset: 0x4B187, size: 0x8, addend: 0x0, symName: __ZN11biospy_core2py13PyKmerCounter20__pymethod___new____17h250e3f9e9e8776d9E, symObjAddr: 0x109C, symBinAddr: 0xFDBC, symSize: 0x2A4 }
  - { offset: 0x4B2F7, size: 0x8, addend: 0x0, symName: __ZN11biospy_core2py13PyKmerCounter20__pymethod_add_seq__17h199ff86b5b5ca2eaE, symObjAddr: 0x1340, symBinAddr: 0x10060, symSize: 0x354 }
  - { offset: 0x4B49F, size: 0x8, addend: 0x0, symName: __ZN11biospy_core2py13PyKmerCounter3len17h73461f968b7972ebE, symObjAddr: 0x1694, symBinAddr: 0x103B4, symSize: 0x24 }
  - { offset: 0x4B4C1, size: 0x8, addend: 0x0, symName: __ZN11biospy_core2py13PyKmerCounter3new17h84420e4d11ef8e2aE, symObjAddr: 0x16B8, symBinAddr: 0x103D8, symSize: 0x40 }
  - { offset: 0x4B4E3, size: 0x8, addend: 0x0, symName: __ZN11biospy_core2py13PyKmerCounter5top_n17h7bdf8ac4cacaff6cE, symObjAddr: 0x16F8, symBinAddr: 0x10418, symSize: 0x28 }
  - { offset: 0x4B53E, size: 0x8, addend: 0x0, symName: __ZN11biospy_core2py13PyKmerCounter7add_seq17h1e5442599443d24cE, symObjAddr: 0x1720, symBinAddr: 0x10440, symSize: 0x30 }
  - { offset: 0x4B588, size: 0x8, addend: 0x0, symName: __ZN11biospy_core2py9PyMinHash20__pymethod___new____17h13825187fbf99081E, symObjAddr: 0x356C, symBinAddr: 0x1228C, symSize: 0x394 }
  - { offset: 0x4B72C, size: 0x8, addend: 0x0, symName: __ZN11biospy_core2py9PyMinHash20__pymethod_add_seq__17h7cc4849d23cae275E, symObjAddr: 0x3900, symBinAddr: 0x12620, symSize: 0x354 }
  - { offset: 0x4B8C7, size: 0x8, addend: 0x0, symName: __ZN11biospy_core2py9PyMinHash20__pymethod_jaccard__17h2f206b80a089e1dfE, symObjAddr: 0x3C54, symBinAddr: 0x12974, symSize: 0x3B0 }
  - { offset: 0x4BA62, size: 0x8, addend: 0x0, symName: __ZN11biospy_core2py9PyMinHash3new17haf9724e65cf0c018E, symObjAddr: 0x4004, symBinAddr: 0x12D24, symSize: 0x44 }
  - { offset: 0x4BA9F, size: 0x8, addend: 0x0, symName: __ZN11biospy_core2py9PyMinHash7add_seq17h19bb94c724c5e1c9E, symObjAddr: 0x4048, symBinAddr: 0x12D68, symSize: 0x30 }
  - { offset: 0x4BAE3, size: 0x8, addend: 0x0, symName: __ZN11biospy_core2py9PyMinHash7jaccard17h079fc9b801031e62E, symObjAddr: 0x4078, symBinAddr: 0x12D98, symSize: 0x2C }
  - { offset: 0x4BDE7, size: 0x8, addend: 0x0, symName: __ZN4pyo35types4list17try_new_from_iter17h714aa34c059f85f6E, symObjAddr: 0x0, symBinAddr: 0x12F0C, symSize: 0x2C8 }
  - { offset: 0x4D618, size: 0x8, addend: 0x0, symName: __ZN4pyo35types4list17try_new_from_iter17h714aa34c059f85f6E, symObjAddr: 0x0, symBinAddr: 0x12F0C, symSize: 0x2C8 }
  - { offset: 0x4D739, size: 0x8, addend: 0x0, symName: __ZN4pyo35types4list17try_new_from_iter17h72eb2c8d714b97b8E, symObjAddr: 0x2C8, symBinAddr: 0x131D4, symSize: 0x2C8 }
  - { offset: 0x4D85A, size: 0x8, addend: 0x0, symName: __ZN4pyo35types4list17try_new_from_iter17haca1caa4913261bdE, symObjAddr: 0x590, symBinAddr: 0x1349C, symSize: 0x2C8 }
  - { offset: 0x4D97B, size: 0x8, addend: 0x0, symName: __ZN4pyo35types4list17try_new_from_iter17hf6a8be50b1ca3f1eE, symObjAddr: 0x858, symBinAddr: 0x13764, symSize: 0x2C8 }
  - { offset: 0x4DAA1, size: 0x8, addend: 0x0, symName: '__ZN4pyo35types4list17try_new_from_iter28_$u7b$$u7b$closure$u7d$$u7d$17h122c6704083c57c5E', symObjAddr: 0xB20, symBinAddr: 0x13A2C, symSize: 0x114 }
  - { offset: 0x4DB16, size: 0x8, addend: 0x0, symName: '__ZN4pyo35types4list17try_new_from_iter28_$u7b$$u7b$closure$u7d$$u7d$17h21aac1d3d855f444E', symObjAddr: 0xC34, symBinAddr: 0x13B40, symSize: 0x114 }
  - { offset: 0x4DB8B, size: 0x8, addend: 0x0, symName: '__ZN4pyo35types4list17try_new_from_iter28_$u7b$$u7b$closure$u7d$$u7d$17h61d57eeca96e6014E', symObjAddr: 0xD48, symBinAddr: 0x13C54, symSize: 0x114 }
  - { offset: 0x4DC00, size: 0x8, addend: 0x0, symName: '__ZN4pyo35types4list17try_new_from_iter28_$u7b$$u7b$closure$u7d$$u7d$17hc327d6d64f5bcb73E', symObjAddr: 0xE5C, symBinAddr: 0x13D68, symSize: 0x114 }
  - { offset: 0x4E958, size: 0x8, addend: 0x0, symName: '__ZN104_$LT$core..iter..adapters..copied..Copied$LT$I$GT$$u20$as$u20$core..iter..traits..iterator..Iterator$GT$4next17h1c75bac1199b0141E', symObjAddr: 0x0, symBinAddr: 0x13E7C, symSize: 0x68 }
  - { offset: 0x4FC37, size: 0x8, addend: 0x0, symName: '__ZN104_$LT$core..iter..adapters..copied..Copied$LT$I$GT$$u20$as$u20$core..iter..traits..iterator..Iterator$GT$4next17h1c75bac1199b0141E', symObjAddr: 0x0, symBinAddr: 0x13E7C, symSize: 0x68 }
  - { offset: 0x4FCAC, size: 0x8, addend: 0x0, symName: '__ZN104_$LT$core..iter..adapters..copied..Copied$LT$I$GT$$u20$as$u20$core..iter..traits..iterator..Iterator$GT$4next17h41a779d4e7f8da9dE', symObjAddr: 0x68, symBinAddr: 0x13EE4, symSize: 0x5C }
  - { offset: 0x4FD21, size: 0x8, addend: 0x0, symName: '__ZN104_$LT$core..iter..adapters..copied..Copied$LT$I$GT$$u20$as$u20$core..iter..traits..iterator..Iterator$GT$9size_hint17h253c3f69affa9c2fE', symObjAddr: 0xC4, symBinAddr: 0x13F40, symSize: 0x24 }
  - { offset: 0x4FDAD, size: 0x8, addend: 0x0, symName: __ZN4core4iter6traits8iterator8Iterator7collect17hfd7c4e660f23ae3cE, symObjAddr: 0xE8, symBinAddr: 0x13F64, symSize: 0x2C }
  - { offset: 0x4FDF9, size: 0x8, addend: 0x0, symName: '__ZN63_$LT$I$u20$as$u20$core..iter..traits..collect..IntoIterator$GT$9into_iter17hbac12478afae7b58E', symObjAddr: 0x114, symBinAddr: 0x13F90, symSize: 0x1C }
  - { offset: 0x4FE30, size: 0x8, addend: 0x0, symName: '__ZN63_$LT$I$u20$as$u20$core..iter..traits..collect..IntoIterator$GT$9into_iter17hca536ea92ee35b7eE', symObjAddr: 0x130, symBinAddr: 0x13FAC, symSize: 0x1C }
  - { offset: 0x50821, size: 0x8, addend: 0x0, symName: '__ZN4core3ptr8non_null16NonNull$LT$T$GT$13new_unchecked18precondition_check17h16dd117b08d366c1E', symObjAddr: 0x0, symBinAddr: 0x13FC8, symSize: 0x58 }
  - { offset: 0x50847, size: 0x8, addend: 0x0, symName: '__ZN4core3ptr8non_null16NonNull$LT$T$GT$13new_unchecked18precondition_check17h16dd117b08d366c1E', symObjAddr: 0x0, symBinAddr: 0x13FC8, symSize: 0x58 }
  - { offset: 0x508F8, size: 0x8, addend: 0x0, symName: '__ZN103_$LT$alloc..vec..into_iter..IntoIter$LT$T$C$A$GT$$u20$as$u20$core..iter..traits..iterator..Iterator$GT$4next17h092cfb72ddcc73eaE', symObjAddr: 0x0, symBinAddr: 0x14020, symSize: 0x94 }
  - { offset: 0x52D3F, size: 0x8, addend: 0x0, symName: __ZN4core4iter6traits10exact_size17ExactSizeIterator3len17h05d222eea282fe97E, symObjAddr: 0xA5C, symBinAddr: 0x14A7C, symSize: 0xB8 }
  - { offset: 0x52E0B, size: 0x8, addend: 0x0, symName: __ZN4core4iter6traits10exact_size17ExactSizeIterator3len17h125c91b95521c1f1E, symObjAddr: 0xB14, symBinAddr: 0x14B34, symSize: 0xB8 }
  - { offset: 0x52ED7, size: 0x8, addend: 0x0, symName: __ZN4core4iter6traits10exact_size17ExactSizeIterator3len17h671f5448573b21dfE, symObjAddr: 0xBCC, symBinAddr: 0x14BEC, symSize: 0xB8 }
  - { offset: 0x52FA3, size: 0x8, addend: 0x0, symName: __ZN4core4iter6traits10exact_size17ExactSizeIterator3len17hc63c03eae3435f11E, symObjAddr: 0xC84, symBinAddr: 0x14CA4, symSize: 0xB8 }
  - { offset: 0x532B1, size: 0x8, addend: 0x0, symName: __ZN4core4iter6traits8iterator8Iterator3map17h66a8c8f778853fdfE, symObjAddr: 0xD3C, symBinAddr: 0x14D5C, symSize: 0x28 }
  - { offset: 0x5331E, size: 0x8, addend: 0x0, symName: __ZN4core4iter6traits8iterator8Iterator3map17h99e84965ce8a07d2E, symObjAddr: 0xD64, symBinAddr: 0x14D84, symSize: 0x28 }
  - { offset: 0x5338B, size: 0x8, addend: 0x0, symName: __ZN4core4iter6traits8iterator8Iterator3map17hba91d81bd63c50bdE, symObjAddr: 0xD8C, symBinAddr: 0x14DAC, symSize: 0x28 }
  - { offset: 0x533F8, size: 0x8, addend: 0x0, symName: __ZN4core4iter6traits8iterator8Iterator3map17hc88b2213948ac1a5E, symObjAddr: 0xDB4, symBinAddr: 0x14DD4, symSize: 0x28 }
  - { offset: 0x53B3B, size: 0x8, addend: 0x0, symName: '__ZN103_$LT$alloc..vec..into_iter..IntoIter$LT$T$C$A$GT$$u20$as$u20$core..iter..traits..iterator..Iterator$GT$4next17h092cfb72ddcc73eaE', symObjAddr: 0x0, symBinAddr: 0x14020, symSize: 0x94 }
  - { offset: 0x53C95, size: 0x8, addend: 0x0, symName: '__ZN103_$LT$alloc..vec..into_iter..IntoIter$LT$T$C$A$GT$$u20$as$u20$core..iter..traits..iterator..Iterator$GT$4next17h239fdd7b2f9f654fE', symObjAddr: 0x94, symBinAddr: 0x140B4, symSize: 0xAC }
  - { offset: 0x53DF3, size: 0x8, addend: 0x0, symName: '__ZN103_$LT$alloc..vec..into_iter..IntoIter$LT$T$C$A$GT$$u20$as$u20$core..iter..traits..iterator..Iterator$GT$4next17h3516052b1caaabe8E', symObjAddr: 0x140, symBinAddr: 0x14160, symSize: 0xA0 }
  - { offset: 0x53F4D, size: 0x8, addend: 0x0, symName: '__ZN103_$LT$alloc..vec..into_iter..IntoIter$LT$T$C$A$GT$$u20$as$u20$core..iter..traits..iterator..Iterator$GT$4next17hbcce3a8489b55938E', symObjAddr: 0x1E0, symBinAddr: 0x14200, symSize: 0xAC }
  - { offset: 0x540AB, size: 0x8, addend: 0x0, symName: '__ZN103_$LT$alloc..vec..into_iter..IntoIter$LT$T$C$A$GT$$u20$as$u20$core..iter..traits..iterator..Iterator$GT$8try_fold17h0b66b03decaa608dE', symObjAddr: 0x28C, symBinAddr: 0x142AC, symSize: 0x19C }
  - { offset: 0x5428B, size: 0x8, addend: 0x0, symName: '__ZN103_$LT$alloc..vec..into_iter..IntoIter$LT$T$C$A$GT$$u20$as$u20$core..iter..traits..iterator..Iterator$GT$8try_fold17h2d8c4ee29b5e7fe0E', symObjAddr: 0x428, symBinAddr: 0x14448, symSize: 0x1A4 }
  - { offset: 0x5446B, size: 0x8, addend: 0x0, symName: '__ZN103_$LT$alloc..vec..into_iter..IntoIter$LT$T$C$A$GT$$u20$as$u20$core..iter..traits..iterator..Iterator$GT$8try_fold17h59ec20fbc1827673E', symObjAddr: 0x5CC, symBinAddr: 0x145EC, symSize: 0x17C }
  - { offset: 0x5464B, size: 0x8, addend: 0x0, symName: '__ZN103_$LT$alloc..vec..into_iter..IntoIter$LT$T$C$A$GT$$u20$as$u20$core..iter..traits..iterator..Iterator$GT$8try_fold17h78601815146645e3E', symObjAddr: 0x748, symBinAddr: 0x14768, symSize: 0x1A4 }
  - { offset: 0x5482B, size: 0x8, addend: 0x0, symName: '__ZN103_$LT$alloc..vec..into_iter..IntoIter$LT$T$C$A$GT$$u20$as$u20$core..iter..traits..iterator..Iterator$GT$9size_hint17h10cbb0277494c52fE', symObjAddr: 0x8EC, symBinAddr: 0x1490C, symSize: 0x5C }
  - { offset: 0x54886, size: 0x8, addend: 0x0, symName: '__ZN103_$LT$alloc..vec..into_iter..IntoIter$LT$T$C$A$GT$$u20$as$u20$core..iter..traits..iterator..Iterator$GT$9size_hint17h3bed6a200f1ed64aE', symObjAddr: 0x948, symBinAddr: 0x14968, symSize: 0x5C }
  - { offset: 0x548E1, size: 0x8, addend: 0x0, symName: '__ZN103_$LT$alloc..vec..into_iter..IntoIter$LT$T$C$A$GT$$u20$as$u20$core..iter..traits..iterator..Iterator$GT$9size_hint17h778a6ec78e649affE', symObjAddr: 0x9A4, symBinAddr: 0x149C4, symSize: 0x5C }
  - { offset: 0x5493C, size: 0x8, addend: 0x0, symName: '__ZN103_$LT$alloc..vec..into_iter..IntoIter$LT$T$C$A$GT$$u20$as$u20$core..iter..traits..iterator..Iterator$GT$9size_hint17hb0bddcecad2e7adaE', symObjAddr: 0xA00, symBinAddr: 0x14A20, symSize: 0x5C }
  - { offset: 0x55434, size: 0x8, addend: 0x0, symName: '__ZN5alloc3vec9into_iter21IntoIter$LT$T$C$A$GT$16as_raw_mut_slice17h4f5ff7a36c30cefaE', symObjAddr: 0xDDC, symBinAddr: 0x14DFC, symSize: 0xCC }
  - { offset: 0x555EE, size: 0x8, addend: 0x0, symName: '__ZN5alloc3vec9into_iter21IntoIter$LT$T$C$A$GT$16as_raw_mut_slice17h72333835d1e73f1cE', symObjAddr: 0xEA8, symBinAddr: 0x14EC8, symSize: 0xCC }
  - { offset: 0x557A8, size: 0x8, addend: 0x0, symName: '__ZN5alloc3vec9into_iter21IntoIter$LT$T$C$A$GT$16as_raw_mut_slice17h8187fe2a0d7b2cffE', symObjAddr: 0xF74, symBinAddr: 0x14F94, symSize: 0xCC }
  - { offset: 0x55962, size: 0x8, addend: 0x0, symName: '__ZN5alloc3vec9into_iter21IntoIter$LT$T$C$A$GT$16as_raw_mut_slice17hb42b1f285cbf498dE', symObjAddr: 0x1040, symBinAddr: 0x15060, symSize: 0xCC }
  - { offset: 0x5618F, size: 0x8, addend: 0x0, symName: '__ZN56_$LT$usize$u20$as$u20$core..iter..traits..accum..Sum$GT$3sum28_$u7b$$u7b$closure$u7d$$u7d$17h1c0176ff751ee2c8E', symObjAddr: 0x0, symBinAddr: 0x1512C, symSize: 0x48 }
  - { offset: 0x561BA, size: 0x8, addend: 0x0, symName: '__ZN56_$LT$usize$u20$as$u20$core..iter..traits..accum..Sum$GT$3sum28_$u7b$$u7b$closure$u7d$$u7d$17h1c0176ff751ee2c8E', symObjAddr: 0x0, symBinAddr: 0x1512C, symSize: 0x48 }
  - { offset: 0x56207, size: 0x8, addend: 0x0, symName: '__ZN56_$LT$usize$u20$as$u20$core..iter..traits..accum..Sum$GT$3sum28_$u7b$$u7b$closure$u7d$$u7d$17hd6d6eadc3e55f7a0E', symObjAddr: 0x48, symBinAddr: 0x15174, symSize: 0x48 }
  - { offset: 0x5642E, size: 0x8, addend: 0x0, symName: '__ZN102_$LT$core..iter..adapters..zip..Zip$LT$A$C$B$GT$$u20$as$u20$core..iter..traits..iterator..Iterator$GT$4next17h2eafe6ce139a26a7E', symObjAddr: 0x0, symBinAddr: 0x151BC, symSize: 0x24 }
  - { offset: 0x56C2B, size: 0x8, addend: 0x0, symName: '__ZN102_$LT$core..iter..adapters..zip..Zip$LT$A$C$B$GT$$u20$as$u20$core..iter..traits..iterator..Iterator$GT$4next17h2eafe6ce139a26a7E', symObjAddr: 0x0, symBinAddr: 0x151BC, symSize: 0x24 }
  - { offset: 0x56C6F, size: 0x8, addend: 0x0, symName: '__ZN111_$LT$core..iter..adapters..zip..Zip$LT$A$C$B$GT$$u20$as$u20$core..iter..adapters..zip..ZipImpl$LT$A$C$B$GT$$GT$3new17h2f946fe0d93880b1E', symObjAddr: 0x24, symBinAddr: 0x151E0, symSize: 0x3C }
  - { offset: 0x56CBB, size: 0x8, addend: 0x0, symName: '__ZN111_$LT$core..iter..adapters..zip..Zip$LT$A$C$B$GT$$u20$as$u20$core..iter..adapters..zip..ZipImpl$LT$A$C$B$GT$$GT$4next17hda0af0ab5ae8e0aaE', symObjAddr: 0x60, symBinAddr: 0x1521C, symSize: 0xE0 }
  - { offset: 0x56EE8, size: 0x8, addend: 0x0, symName: '__ZN63_$LT$I$u20$as$u20$core..iter..traits..collect..IntoIterator$GT$9into_iter17h4c4349a4ec8d04ebE', symObjAddr: 0x140, symBinAddr: 0x152FC, symSize: 0x30 }
  - { offset: 0x56F20, size: 0x8, addend: 0x0, symName: '__ZN63_$LT$I$u20$as$u20$core..iter..traits..collect..IntoIterator$GT$9into_iter17he1810ef50a59da51E', symObjAddr: 0x170, symBinAddr: 0x1532C, symSize: 0x30 }
  - { offset: 0x583A5, size: 0x8, addend: 0x0, symName: '__ZN11biospy_core2py11count_fastq28_$u7b$$u7b$closure$u7d$$u7d$17h0e289a33f7eb90b2E', symObjAddr: 0x0, symBinAddr: 0x1535C, symSize: 0x74 }
  - { offset: 0x58BB3, size: 0x8, addend: 0x0, symName: '__ZN50_$LT$T$u20$as$u20$core..convert..Into$LT$U$GT$$GT$4into17h3f10677739f833e9E', symObjAddr: 0x3C0, symBinAddr: 0x1571C, symSize: 0x14 }
  - { offset: 0x58BF4, size: 0x8, addend: 0x0, symName: '__ZN50_$LT$T$u20$as$u20$core..convert..Into$LT$U$GT$$GT$4into17ha4b82965e5586eb2E', symObjAddr: 0x3D4, symBinAddr: 0x15730, symSize: 0x14 }
  - { offset: 0x59F07, size: 0x8, addend: 0x0, symName: '__ZN11biospy_core2py11count_fastq28_$u7b$$u7b$closure$u7d$$u7d$17h0e289a33f7eb90b2E', symObjAddr: 0x0, symBinAddr: 0x1535C, symSize: 0x74 }
  - { offset: 0x59F3D, size: 0x8, addend: 0x0, symName: '__ZN11biospy_core2py11count_fastq28_$u7b$$u7b$closure$u7d$$u7d$17h63d322f2f8e0575dE', symObjAddr: 0x74, symBinAddr: 0x153D0, symSize: 0x74 }
  - { offset: 0x59F87, size: 0x8, addend: 0x0, symName: '__ZN11biospy_core2py15read_fasta_seqs28_$u7b$$u7b$closure$u7d$$u7d$17hdd0bcb23241c438bE', symObjAddr: 0xE8, symBinAddr: 0x15444, symSize: 0x74 }
  - { offset: 0x59FCA, size: 0x8, addend: 0x0, symName: '__ZN11biospy_core2py15read_fastq_seqs28_$u7b$$u7b$closure$u7d$$u7d$17h41f7a8508785bfeeE', symObjAddr: 0x15C, symBinAddr: 0x154B8, symSize: 0x74 }
  - { offset: 0x5A00D, size: 0x8, addend: 0x0, symName: '__ZN11biospy_core2py22extract_features_batch28_$u7b$$u7b$closure$u7d$$u7d$17hdcd3f05b7b8e5bf6E', symObjAddr: 0x1D0, symBinAddr: 0x1552C, symSize: 0x5C }
  - { offset: 0x5A055, size: 0x8, addend: 0x0, symName: '__ZN80_$LT$biospy_core..py..PyMinHash$u20$as$u20$pyo3..impl_..pyclass..PyClassImpl$GT$3doc28_$u7b$$u7b$closure$u7d$$u7d$17h38e353e9f9a8fdd9E', symObjAddr: 0x430, symBinAddr: 0x1578C, symSize: 0x54 }
  - { offset: 0x5A0AD, size: 0x8, addend: 0x0, symName: '__ZN84_$LT$biospy_core..py..PyKmerCounter$u20$as$u20$pyo3..impl_..pyclass..PyClassImpl$GT$3doc28_$u7b$$u7b$closure$u7d$$u7d$17h93d5e80dda41be79E', symObjAddr: 0x484, symBinAddr: 0x157E0, symSize: 0x54 }
  - { offset: 0x5A1C3, size: 0x8, addend: 0x0, symName: __ZN4pyo311type_object10PyTypeInfo10is_type_of17hdd6f1b4f7db3bcd8E, symObjAddr: 0x22C, symBinAddr: 0x15588, symSize: 0x50 }
  - { offset: 0x5A1F8, size: 0x8, addend: 0x0, symName: __ZN4pyo311type_object10PyTypeInfo10is_type_of17he0160552d988d79eE, symObjAddr: 0x27C, symBinAddr: 0x155D8, symSize: 0x50 }
  - { offset: 0x5A233, size: 0x8, addend: 0x0, symName: '__ZN52_$LT$T$u20$as$u20$pyo3..type_object..PyTypeCheck$GT$10type_check17h4052cf54814845f4E', symObjAddr: 0x3E8, symBinAddr: 0x15744, symSize: 0x24 }
  - { offset: 0x5A268, size: 0x8, addend: 0x0, symName: '__ZN52_$LT$T$u20$as$u20$pyo3..type_object..PyTypeCheck$GT$10type_check17h4b3dd7543fd40db9E', symObjAddr: 0x40C, symBinAddr: 0x15768, symSize: 0x24 }
  - { offset: 0x5A2A9, size: 0x8, addend: 0x0, symName: '__ZN4pyo312pyclass_init130_$LT$impl$u20$pyo3..impl_..callback..IntoPyCallbackOutput$LT$pyo3..pyclass_init..PyClassInitializer$LT$T$GT$$GT$$u20$for$u20$U$GT$7convert17hd92bb9cd347bafdcE', symObjAddr: 0x2CC, symBinAddr: 0x15628, symSize: 0x68 }
  - { offset: 0x5A307, size: 0x8, addend: 0x0, symName: '__ZN4pyo312pyclass_init130_$LT$impl$u20$pyo3..impl_..callback..IntoPyCallbackOutput$LT$pyo3..pyclass_init..PyClassInitializer$LT$T$GT$$GT$$u20$for$u20$U$GT$7convert17heb4dfa449c1daf58E', symObjAddr: 0x334, symBinAddr: 0x15690, symSize: 0x6C }
  - { offset: 0x5A4AB, size: 0x8, addend: 0x0, symName: __ZN4pyo35impl_7pyclass11PyClassImpl11dict_offset17h83d4a969c029273aE, symObjAddr: 0x3A0, symBinAddr: 0x156FC, symSize: 0x8 }
  - { offset: 0x5A4D2, size: 0x8, addend: 0x0, symName: __ZN4pyo35impl_7pyclass11PyClassImpl11dict_offset17hf7219bf5f6071dffE, symObjAddr: 0x3A8, symBinAddr: 0x15704, symSize: 0x8 }
  - { offset: 0x5A4F9, size: 0x8, addend: 0x0, symName: __ZN4pyo35impl_7pyclass11PyClassImpl15weaklist_offset17h99196a9de7cea353E, symObjAddr: 0x3B0, symBinAddr: 0x1570C, symSize: 0x8 }
  - { offset: 0x5A520, size: 0x8, addend: 0x0, symName: __ZN4pyo35impl_7pyclass11PyClassImpl15weaklist_offset17hd4ba350cd515fe6bE, symObjAddr: 0x3B8, symBinAddr: 0x15714, symSize: 0x8 }
  - { offset: 0x5B3EC, size: 0x8, addend: 0x0, symName: '__ZN106_$LT$core..ops..range..Range$LT$usize$GT$$u20$as$u20$core..slice..index..SliceIndex$LT$$u5b$T$u5d$$GT$$GT$13get_unchecked18precondition_check17hcd975e0d9cec00efE', symObjAddr: 0x0, symBinAddr: 0x15834, symSize: 0x80 }
  - { offset: 0x5B412, size: 0x8, addend: 0x0, symName: '__ZN106_$LT$core..ops..range..Range$LT$usize$GT$$u20$as$u20$core..slice..index..SliceIndex$LT$$u5b$T$u5d$$GT$$GT$13get_unchecked18precondition_check17hcd975e0d9cec00efE', symObjAddr: 0x0, symBinAddr: 0x15834, symSize: 0x80 }
  - { offset: 0x5B47F, size: 0x8, addend: 0x0, symName: '__ZN75_$LT$usize$u20$as$u20$core..slice..index..SliceIndex$LT$$u5b$T$u5d$$GT$$GT$13get_unchecked18precondition_check17h31a7bb0596ac3e66E', symObjAddr: 0x80, symBinAddr: 0x158B4, symSize: 0x60 }
  - { offset: 0x5B4D8, size: 0x8, addend: 0x0, symName: '__ZN75_$LT$usize$u20$as$u20$core..slice..index..SliceIndex$LT$$u5b$T$u5d$$GT$$GT$17get_unchecked_mut18precondition_check17hdba43e78a7748965E', symObjAddr: 0xE0, symBinAddr: 0x15914, symSize: 0x60 }
  - { offset: 0x5B583, size: 0x8, addend: 0x0, symName: '__ZN87_$LT$hashbrown..map..HashMap$LT$K$C$V$C$S$C$A$GT$$u20$as$u20$core..default..Default$GT$7default17hd53cab94113e06e1E', symObjAddr: 0x0, symBinAddr: 0x15974, symSize: 0x8C }
  - { offset: 0x5BB4C, size: 0x8, addend: 0x0, symName: '__ZN87_$LT$hashbrown..map..HashMap$LT$K$C$V$C$S$C$A$GT$$u20$as$u20$core..default..Default$GT$7default17hd53cab94113e06e1E', symObjAddr: 0x0, symBinAddr: 0x15974, symSize: 0x8C }
  - { offset: 0x5BBD0, size: 0x8, addend: 0x0, symName: '__ZN92_$LT$hashbrown..map..Iter$LT$K$C$V$GT$$u20$as$u20$core..iter..traits..iterator..Iterator$GT$4next17h291adab34da3c2edE', symObjAddr: 0x8C, symBinAddr: 0x15A00, symSize: 0xF0 }
  - { offset: 0x5BE5B, size: 0x8, addend: 0x0, symName: '__ZN9hashbrown3map11make_hasher28_$u7b$$u7b$closure$u7d$$u7d$17h4363c7b643a1d499E', symObjAddr: 0x298, symBinAddr: 0x15C0C, symSize: 0x3C }
  - { offset: 0x5BED7, size: 0x8, addend: 0x0, symName: '__ZN9hashbrown3map11make_hasher28_$u7b$$u7b$closure$u7d$$u7d$17ha74142d51d01d6b1E', symObjAddr: 0x2D4, symBinAddr: 0x15C48, symSize: 0x3C }
  - { offset: 0x5BF53, size: 0x8, addend: 0x0, symName: '__ZN9hashbrown3map11make_hasher28_$u7b$$u7b$closure$u7d$$u7d$17hca273a587691b2e0E', symObjAddr: 0x310, symBinAddr: 0x15C84, symSize: 0x3C }
  - { offset: 0x5C047, size: 0x8, addend: 0x0, symName: '__ZN9hashbrown3map14equivalent_key28_$u7b$$u7b$closure$u7d$$u7d$17h0d16f1b391650484E', symObjAddr: 0x34C, symBinAddr: 0x15CC0, symSize: 0x30 }
  - { offset: 0x5C09E, size: 0x8, addend: 0x0, symName: '__ZN9hashbrown3map14equivalent_key28_$u7b$$u7b$closure$u7d$$u7d$17h403efb4264820163E', symObjAddr: 0x37C, symBinAddr: 0x15CF0, symSize: 0x30 }
  - { offset: 0x5CEED, size: 0x8, addend: 0x0, symName: '__ZN9hashbrown11rustc_entry62_$LT$impl$u20$hashbrown..map..HashMap$LT$K$C$V$C$S$C$A$GT$$GT$11rustc_entry17h8a83c0b13be29522E', symObjAddr: 0x17C, symBinAddr: 0x15AF0, symSize: 0x11C }
  - { offset: 0x5D158, size: 0x8, addend: 0x0, symName: '__ZN9hashbrown3map28HashMap$LT$K$C$V$C$S$C$A$GT$12contains_key17hbefde6f8d7d10df1E', symObjAddr: 0x3AC, symBinAddr: 0x15D20, symSize: 0x10C }
  - { offset: 0x5D323, size: 0x8, addend: 0x0, symName: '__ZN9hashbrown3map28HashMap$LT$K$C$V$C$S$C$A$GT$12remove_entry17h2e313804705d8744E', symObjAddr: 0x4B8, symBinAddr: 0x15E2C, symSize: 0x50 }
  - { offset: 0x5D573, size: 0x8, addend: 0x0, symName: '__ZN9hashbrown3map28HashMap$LT$K$C$V$C$S$C$A$GT$4iter17hc89bcf0ec9dd133fE', symObjAddr: 0x508, symBinAddr: 0x15E7C, symSize: 0xA8 }
  - { offset: 0x5D860, size: 0x8, addend: 0x0, symName: '__ZN9hashbrown3map28HashMap$LT$K$C$V$C$S$C$A$GT$6insert17h188bf1bf8643b629E', symObjAddr: 0x5B0, symBinAddr: 0x15F24, symSize: 0x1E0 }
  - { offset: 0x5DB4B, size: 0x8, addend: 0x0, symName: '__ZN9hashbrown3map28HashMap$LT$K$C$V$C$S$C$A$GT$6insert17h3a66b6bfeafcd065E', symObjAddr: 0x790, symBinAddr: 0x16104, symSize: 0x17C }
  - { offset: 0x5DD13, size: 0x8, addend: 0x0, symName: '__ZN9hashbrown3map28HashMap$LT$K$C$V$C$S$C$A$GT$6remove17hbfb24fc1300f1dc9E', symObjAddr: 0x90C, symBinAddr: 0x16280, symSize: 0x6C }
  - { offset: 0x5DDC8, size: 0x8, addend: 0x0, symName: '__ZN45_$LT$T$u20$as$u20$alloc..string..ToString$GT$9to_string17ha93d91602ae8abdbE', symObjAddr: 0x0, symBinAddr: 0x162EC, symSize: 0x28 }
  - { offset: 0x5DDE4, size: 0x8, addend: 0x0, symName: '__ZN45_$LT$T$u20$as$u20$alloc..string..ToString$GT$9to_string17ha93d91602ae8abdbE', symObjAddr: 0x0, symBinAddr: 0x162EC, symSize: 0x28 }
  - { offset: 0x5DEF8, size: 0x8, addend: 0x0, symName: '__ZN50_$LT$T$u20$as$u20$core..convert..Into$LT$U$GT$$GT$4into17h2262072bd2a8fd26E', symObjAddr: 0x28, symBinAddr: 0x16314, symSize: 0x14 }
  - { offset: 0x5E07E, size: 0x8, addend: 0x0, symName: '__ZN63_$LT$I$u20$as$u20$core..iter..traits..collect..IntoIterator$GT$9into_iter17h2aaae56996f3a89fE', symObjAddr: 0x0, symBinAddr: 0x16328, symSize: 0x18 }
  - { offset: 0x5E87B, size: 0x8, addend: 0x0, symName: '__ZN63_$LT$I$u20$as$u20$core..iter..traits..collect..IntoIterator$GT$9into_iter17h2aaae56996f3a89fE', symObjAddr: 0x0, symBinAddr: 0x16328, symSize: 0x18 }
  - { offset: 0x5F84A, size: 0x8, addend: 0x0, symName: '__ZN106_$LT$core..ops..range..Range$LT$usize$GT$$u20$as$u20$core..slice..index..SliceIndex$LT$$u5b$T$u5d$$GT$$GT$9index_mut17h962423102c6fbf3aE', symObjAddr: 0x0, symBinAddr: 0x16340, symSize: 0xBC }
  - { offset: 0x60A5D, size: 0x8, addend: 0x0, symName: '__ZN106_$LT$core..ops..range..Range$LT$usize$GT$$u20$as$u20$core..slice..index..SliceIndex$LT$$u5b$T$u5d$$GT$$GT$9index_mut17h962423102c6fbf3aE', symObjAddr: 0x0, symBinAddr: 0x16340, symSize: 0xBC }
  - { offset: 0x60B0E, size: 0x8, addend: 0x0, symName: '__ZN108_$LT$core..ops..range..RangeTo$LT$usize$GT$$u20$as$u20$core..slice..index..SliceIndex$LT$$u5b$T$u5d$$GT$$GT$9index_mut17hb942d8aa12c9ebf7E', symObjAddr: 0xBC, symBinAddr: 0x163FC, symSize: 0x54 }
  - { offset: 0x60B95, size: 0x8, addend: 0x0, symName: '__ZN110_$LT$core..ops..range..RangeFrom$LT$usize$GT$$u20$as$u20$core..slice..index..SliceIndex$LT$$u5b$T$u5d$$GT$$GT$5index17hdda2dfcc9add844fE', symObjAddr: 0x110, symBinAddr: 0x16450, symSize: 0x70 }
  - { offset: 0x60C68, size: 0x8, addend: 0x0, symName: '__ZN115_$LT$core..ops..range..RangeInclusive$LT$usize$GT$$u20$as$u20$core..slice..index..SliceIndex$LT$$u5b$T$u5d$$GT$$GT$5index17h8f15326881f2819bE', symObjAddr: 0x180, symBinAddr: 0x164C0, symSize: 0xF4 }
  - { offset: 0x6156F, size: 0x8, addend: 0x0, symName: __ZN4core4hint16assert_unchecked18precondition_check17h4cda65af9b20f9edE, symObjAddr: 0x0, symBinAddr: 0x165B4, symSize: 0x58 }
  - { offset: 0x6158B, size: 0x8, addend: 0x0, symName: __ZN4core4hint16assert_unchecked18precondition_check17h4cda65af9b20f9edE, symObjAddr: 0x0, symBinAddr: 0x165B4, symSize: 0x58 }
  - { offset: 0x615D6, size: 0x8, addend: 0x0, symName: __ZN4core4hint21unreachable_unchecked18precondition_check17h4edbffd36da51dccE, symObjAddr: 0x58, symBinAddr: 0x1660C, symSize: 0x3C }
  - { offset: 0x6166A, size: 0x8, addend: 0x0, symName: __ZN3std5panic12catch_unwind17h6b819f04c77745f3E, symObjAddr: 0x0, symBinAddr: 0x16648, symSize: 0xC4 }
  - { offset: 0x6399D, size: 0x8, addend: 0x0, symName: __ZN3std5panic12catch_unwind17h6b819f04c77745f3E, symObjAddr: 0x0, symBinAddr: 0x16648, symSize: 0xC4 }
  - { offset: 0x63A4F, size: 0x8, addend: 0x0, symName: __ZN3std5panic12catch_unwind17h6f164ae14c55d675E, symObjAddr: 0xC4, symBinAddr: 0x1670C, symSize: 0xC0 }
  - { offset: 0x63AE1, size: 0x8, addend: 0x0, symName: __ZN3std5panic12catch_unwind17h7d01272158c31a1eE, symObjAddr: 0x184, symBinAddr: 0x167CC, symSize: 0xC0 }
  - { offset: 0x63B73, size: 0x8, addend: 0x0, symName: __ZN3std5panic12catch_unwind17hd1c730562622fa20E, symObjAddr: 0x244, symBinAddr: 0x1688C, symSize: 0xB0 }
  - { offset: 0x63C05, size: 0x8, addend: 0x0, symName: __ZN3std5panic12catch_unwind17he348f46376360f6bE, symObjAddr: 0x2F4, symBinAddr: 0x1693C, symSize: 0xDC }
  - { offset: 0x63F26, size: 0x8, addend: 0x0, symName: '__ZN119_$LT$pyo3..instance..Bound$LT$pyo3..types..typeobject..PyType$GT$$u20$as$u20$pyo3..types..typeobject..PyTypeMethods$GT$11as_type_ptr17h5d5dc7443c6a8e7dE', symObjAddr: 0x0, symBinAddr: 0x16A6C, symSize: 0x24 }
  - { offset: 0x65630, size: 0x8, addend: 0x0, symName: '__ZN119_$LT$pyo3..instance..Bound$LT$pyo3..types..typeobject..PyType$GT$$u20$as$u20$pyo3..types..typeobject..PyTypeMethods$GT$11as_type_ptr17h5d5dc7443c6a8e7dE', symObjAddr: 0x0, symBinAddr: 0x16A6C, symSize: 0x24 }
  - { offset: 0x6567D, size: 0x8, addend: 0x0, symName: '__ZN123_$LT$pyo3..instance..Bound$LT$pyo3..types..sequence..PySequence$GT$$u20$as$u20$pyo3..types..sequence..PySequenceMethods$GT$3len17h1abad1dc782c11c8E', symObjAddr: 0x24, symBinAddr: 0x16A90, symSize: 0xD4 }
  - { offset: 0x65707, size: 0x8, addend: 0x0, symName: '__ZN4pyo35types8iterator131_$LT$impl$u20$core..iter..traits..iterator..Iterator$u20$for$u20$pyo3..instance..Bound$LT$pyo3..types..iterator..PyIterator$GT$$GT$4next17h0d68eb4533d97c9aE', symObjAddr: 0xF8, symBinAddr: 0x16B64, symSize: 0x30 }
  - { offset: 0x65FE3, size: 0x8, addend: 0x0, symName: '__ZN4pyo38instance36Bound$LT$pyo3..types..any..PyAny$GT$14from_owned_ptr17h89b379ba307fc19bE', symObjAddr: 0x128, symBinAddr: 0x16B94, symSize: 0x2C }
  - { offset: 0x6602B, size: 0x8, addend: 0x0, symName: '__ZN4pyo38instance39Borrowed$LT$pyo3..types..any..PyAny$GT$15from_ptr_or_opt17hbc823ad2f0e44714E', symObjAddr: 0x154, symBinAddr: 0x16BC0, symSize: 0x2C }
  - { offset: 0x66069, size: 0x8, addend: 0x0, symName: '__ZN4pyo38instance39Borrowed$LT$pyo3..types..any..PyAny$GT$18from_ptr_unchecked17h95d22a94a21861c7E', symObjAddr: 0x180, symBinAddr: 0x16BEC, symSize: 0x2C }
  - { offset: 0x660A7, size: 0x8, addend: 0x0, symName: '__ZN4pyo38instance39Borrowed$LT$pyo3..types..any..PyAny$GT$8from_ptr17h5f75041f8da08a9dE', symObjAddr: 0x1AC, symBinAddr: 0x16C18, symSize: 0x34 }
  - { offset: 0x6631E, size: 0x8, addend: 0x0, symName: '__ZN107_$LT$core..iter..adapters..fuse..Fuse$LT$I$GT$$u20$as$u20$core..iter..adapters..fuse..FuseImpl$LT$I$GT$$GT$4next17hcd50620f20f05116E', symObjAddr: 0x0, symBinAddr: 0x16C4C, symSize: 0x80 }
  - { offset: 0x6657E, size: 0x8, addend: 0x0, symName: '__ZN107_$LT$core..iter..adapters..fuse..Fuse$LT$I$GT$$u20$as$u20$core..iter..adapters..fuse..FuseImpl$LT$I$GT$$GT$4next17hcd50620f20f05116E', symObjAddr: 0x0, symBinAddr: 0x16C4C, symSize: 0x80 }
  - { offset: 0x66A37, size: 0x8, addend: 0x0, symName: '__ZN11biospy_core2io20FastaReader$LT$R$GT$3new17h78d9afe50df577d3E', symObjAddr: 0x0, symBinAddr: 0x16CCC, symSize: 0xA8 }
  - { offset: 0x66E53, size: 0x8, addend: 0x0, symName: '__ZN96_$LT$biospy_core..io..FastaReader$LT$R$GT$$u20$as$u20$core..iter..traits..iterator..Iterator$GT$4next17hfd15e74fe4d0d03dE', symObjAddr: 0x198, symBinAddr: 0x16E64, symSize: 0x434 }
  - { offset: 0x66F30, size: 0x8, addend: 0x0, symName: '__ZN96_$LT$biospy_core..io..FastqReader$LT$R$GT$$u20$as$u20$core..iter..traits..iterator..Iterator$GT$4next17hd9be6266f8414bc6E', symObjAddr: 0x5CC, symBinAddr: 0x17298, symSize: 0x5EC }
  - { offset: 0x6739B, size: 0x8, addend: 0x0, symName: '__ZN63_$LT$I$u20$as$u20$core..iter..traits..collect..IntoIterator$GT$9into_iter17h151dfa0b9b7dca49E', symObjAddr: 0x138, symBinAddr: 0x16E04, symSize: 0x30 }
  - { offset: 0x673D3, size: 0x8, addend: 0x0, symName: '__ZN63_$LT$I$u20$as$u20$core..iter..traits..collect..IntoIterator$GT$9into_iter17h60025bee1b357c8eE', symObjAddr: 0x168, symBinAddr: 0x16E34, symSize: 0x30 }
  - { offset: 0x6780A, size: 0x8, addend: 0x0, symName: '__ZN11biospy_core2io20FastaReader$LT$R$GT$3new17h78d9afe50df577d3E', symObjAddr: 0x0, symBinAddr: 0x16CCC, symSize: 0xA8 }
  - { offset: 0x67836, size: 0x8, addend: 0x0, symName: '__ZN11biospy_core2io20FastqReader$LT$R$GT$3new17had66236ca9a4ce6aE', symObjAddr: 0xA8, symBinAddr: 0x16D74, symSize: 0x90 }
  - { offset: 0x67A32, size: 0x8, addend: 0x0, symName: '__ZN51_$LT$T$u20$as$u20$core..borrow..Borrow$LT$T$GT$$GT$6borrow17h93ef2a47795de2a7E', symObjAddr: 0x0, symBinAddr: 0x17884, symSize: 0x14 }
  - { offset: 0x67A4E, size: 0x8, addend: 0x0, symName: '__ZN51_$LT$T$u20$as$u20$core..borrow..Borrow$LT$T$GT$$GT$6borrow17h93ef2a47795de2a7E', symObjAddr: 0x0, symBinAddr: 0x17884, symSize: 0x14 }
  - { offset: 0x67A83, size: 0x8, addend: 0x0, symName: '__ZN51_$LT$T$u20$as$u20$core..borrow..Borrow$LT$T$GT$$GT$6borrow17hf60658a2d163aed4E', symObjAddr: 0x14, symBinAddr: 0x17898, symSize: 0x14 }
  - { offset: 0x67B2A, size: 0x8, addend: 0x0, symName: '__ZN11biospy_core2py172_$LT$impl$u20$pyo3..impl_..pyclass..PyMethods$LT$biospy_core..py..PyMinHash$GT$$u20$for$u20$pyo3..impl_..pyclass..PyClassImplCollector$LT$biospy_core..py..PyMinHash$GT$$GT$10py_methods17hed4d8995806c089aE', symObjAddr: 0x0, symBinAddr: 0x178AC, symSize: 0x14 }
  - { offset: 0x69195, size: 0x8, addend: 0x0, symName: '__ZN11biospy_core2py172_$LT$impl$u20$pyo3..impl_..pyclass..PyMethods$LT$biospy_core..py..PyMinHash$GT$$u20$for$u20$pyo3..impl_..pyclass..PyClassImplCollector$LT$biospy_core..py..PyMinHash$GT$$GT$10py_methods17hed4d8995806c089aE', symObjAddr: 0x0, symBinAddr: 0x178AC, symSize: 0x14 }
  - { offset: 0x691E0, size: 0x8, addend: 0x0, symName: '__ZN11biospy_core2py172_$LT$impl$u20$pyo3..impl_..pyclass..PyMethods$LT$biospy_core..py..PyMinHash$GT$$u20$for$u20$pyo3..impl_..pyclass..PyClassImplCollector$LT$biospy_core..py..PyMinHash$GT$$GT$10py_methods5ITEMS10trampoline186_$LT$impl$u20$pyo3..impl_..pyclass..PyClassNewTextSignature$LT$biospy_core..py..PyMinHash$GT$$u20$for$u20$pyo3..impl_..pyclass..PyClassImplCollector$LT$biospy_core..py..PyMinHash$GT$$GT$18new_text_signature17h015015a7b2284bb3E', symObjAddr: 0x14, symBinAddr: 0x178C0, symSize: 0x1C }
  - { offset: 0x69221, size: 0x8, addend: 0x0, symName: '__ZN11biospy_core2py180_$LT$impl$u20$pyo3..impl_..pyclass..PyMethods$LT$biospy_core..py..PyKmerCounter$GT$$u20$for$u20$pyo3..impl_..pyclass..PyClassImplCollector$LT$biospy_core..py..PyKmerCounter$GT$$GT$10py_methods17h42a7d8255cd6ce24E', symObjAddr: 0x30, symBinAddr: 0x178DC, symSize: 0x14 }
  - { offset: 0x6926C, size: 0x8, addend: 0x0, symName: '__ZN11biospy_core2py180_$LT$impl$u20$pyo3..impl_..pyclass..PyMethods$LT$biospy_core..py..PyKmerCounter$GT$$u20$for$u20$pyo3..impl_..pyclass..PyClassImplCollector$LT$biospy_core..py..PyKmerCounter$GT$$GT$10py_methods5ITEMS10trampoline194_$LT$impl$u20$pyo3..impl_..pyclass..PyClassNewTextSignature$LT$biospy_core..py..PyKmerCounter$GT$$u20$for$u20$pyo3..impl_..pyclass..PyClassImplCollector$LT$biospy_core..py..PyKmerCounter$GT$$GT$18new_text_signature17hc0f21a8d82b9593bE', symObjAddr: 0x44, symBinAddr: 0x178F0, symSize: 0x1C }
  - { offset: 0x6A3CB, size: 0x8, addend: 0x0, symName: __ZN3std2io8buffered9bufreader6buffer6Buffer8fill_buf17h7dd7ea5d22117a9dE, symObjAddr: 0x0, symBinAddr: 0x1790C, symSize: 0x1AC }
  - { offset: 0x6AE85, size: 0x8, addend: 0x0, symName: __ZN3std2io8buffered9bufreader6buffer6Buffer8fill_buf17h7dd7ea5d22117a9dE, symObjAddr: 0x0, symBinAddr: 0x1790C, symSize: 0x1AC }
  - { offset: 0x6B0CF, size: 0x8, addend: 0x0, symName: __ZN4pyo37pyclass18create_type_object18create_type_object17h8f18dd6011bbaa02E, symObjAddr: 0x0, symBinAddr: 0x17AB8, symSize: 0x174 }
  - { offset: 0x6C70E, size: 0x8, addend: 0x0, symName: __ZN4pyo37pyclass18create_type_object18create_type_object17h8f18dd6011bbaa02E, symObjAddr: 0x0, symBinAddr: 0x17AB8, symSize: 0x174 }
  - { offset: 0x6C76E, size: 0x8, addend: 0x0, symName: __ZN4pyo37pyclass18create_type_object18create_type_object17h950cd9acfcde6e82E, symObjAddr: 0x174, symBinAddr: 0x17C2C, symSize: 0x174 }
  - { offset: 0x6D680, size: 0x8, addend: 0x0, symName: '__ZN5alloc5boxed7convert176_$LT$impl$u20$core..convert..From$LT$alloc..string..String$GT$$u20$for$u20$alloc..boxed..Box$LT$dyn$u20$core..error..Error$u2b$core..marker..Send$u2b$core..marker..Sync$GT$$GT$4from17h82ea14badc2f10e0E', symObjAddr: 0x0, symBinAddr: 0x17DA0, symSize: 0x84 }
  - { offset: 0x6D6CA, size: 0x8, addend: 0x0, symName: '__ZN5alloc5boxed7convert176_$LT$impl$u20$core..convert..From$LT$alloc..string..String$GT$$u20$for$u20$alloc..boxed..Box$LT$dyn$u20$core..error..Error$u2b$core..marker..Send$u2b$core..marker..Sync$GT$$GT$4from17h82ea14badc2f10e0E', symObjAddr: 0x0, symBinAddr: 0x17DA0, symSize: 0x84 }
  - { offset: 0x6D940, size: 0x8, addend: 0x0, symName: __ZN3std2io10read_until17hb2a6599e00af187aE, symObjAddr: 0x0, symBinAddr: 0x17E24, symSize: 0x2E8 }
  - { offset: 0x6D9A6, size: 0x8, addend: 0x0, symName: '__ZN81_$LT$std..io..default_write_fmt..Adapter$LT$T$GT$$u20$as$u20$core..fmt..Write$GT$9write_str17hdcd96b7659fb8153E', symObjAddr: 0x758, symBinAddr: 0x1857C, symSize: 0xB4 }
  - { offset: 0x6DD75, size: 0x8, addend: 0x0, symName: __ZN3std2io10read_until17hb2a6599e00af187aE, symObjAddr: 0x0, symBinAddr: 0x17E24, symSize: 0x2E8 }
  - { offset: 0x6E1E7, size: 0x8, addend: 0x0, symName: '__ZN3std2io7BufRead9read_line28_$u7b$$u7b$closure$u7d$$u7d$17h6af16f7747ae8c8aE', symObjAddr: 0x5E8, symBinAddr: 0x1840C, symSize: 0x34 }
  - { offset: 0x6E2A6, size: 0x8, addend: 0x0, symName: __ZN3std2io16append_to_string17h43ff04d1ecaa26bcE, symObjAddr: 0x2E8, symBinAddr: 0x1810C, symSize: 0x200 }
  - { offset: 0x6E60F, size: 0x8, addend: 0x0, symName: __ZN3std2io17default_write_fmt17h7c1dda10b00d726cE, symObjAddr: 0x4E8, symBinAddr: 0x1830C, symSize: 0x100 }
  - { offset: 0x6F12E, size: 0x8, addend: 0x0, symName: __ZN4core3fmt5Write10write_char17h4c2b0380b428113aE, symObjAddr: 0x61C, symBinAddr: 0x18440, symSize: 0x70 }
  - { offset: 0x6F196, size: 0x8, addend: 0x0, symName: __ZN4core3fmt5Write9write_fmt17hb0617de272e41efcE, symObjAddr: 0x68C, symBinAddr: 0x184B0, symSize: 0x34 }
  - { offset: 0x6F1E3, size: 0x8, addend: 0x0, symName: '__ZN75_$LT$$RF$mut$u20$W$u20$as$u20$core..fmt..Write..write_fmt..SpecWriteFmt$GT$14spec_write_fmt17h5ce3b7c4a368e5d6E', symObjAddr: 0x6C0, symBinAddr: 0x184E4, symSize: 0x98 }
  - { offset: 0x6FB9F, size: 0x8, addend: 0x0, symName: __ZN3std3sys2fs4unix23debug_assert_fd_is_open17h3a8445b9caef61c2E, symObjAddr: 0x0, symBinAddr: 0x18630, symSize: 0x98 }
  - { offset: 0x6FBE2, size: 0x8, addend: 0x0, symName: __ZN3std3sys2fs4unix23debug_assert_fd_is_open17h3a8445b9caef61c2E, symObjAddr: 0x0, symBinAddr: 0x18630, symSize: 0x98 }
  - { offset: 0x6FC7B, size: 0x8, addend: 0x0, symName: __ZN4core5slice4sort8unstable8heapsort8heapsort17h8d0da9818ec6a723E, symObjAddr: 0x0, symBinAddr: 0x186C8, symSize: 0x314 }
  - { offset: 0x70390, size: 0x8, addend: 0x0, symName: __ZN4core5slice4sort8unstable8heapsort8heapsort17h8d0da9818ec6a723E, symObjAddr: 0x0, symBinAddr: 0x186C8, symSize: 0x314 }
  - { offset: 0x70805, size: 0x8, addend: 0x0, symName: __ZN4core5slice4sort8unstable8heapsort8heapsort17h93ca19f92a37b52aE, symObjAddr: 0x314, symBinAddr: 0x189DC, symSize: 0x314 }
  - { offset: 0x70F0C, size: 0x8, addend: 0x0, symName: '__ZN110_$LT$core..iter..adapters..enumerate..Enumerate$LT$I$GT$$u20$as$u20$core..iter..traits..iterator..Iterator$GT$4next17h1d4d7f366166f353E', symObjAddr: 0x0, symBinAddr: 0x18CF0, symSize: 0xE0 }
  - { offset: 0x72457, size: 0x8, addend: 0x0, symName: '__ZN110_$LT$core..iter..adapters..enumerate..Enumerate$LT$I$GT$$u20$as$u20$core..iter..traits..iterator..Iterator$GT$4next17h1d4d7f366166f353E', symObjAddr: 0x0, symBinAddr: 0x18CF0, symSize: 0xE0 }
  - { offset: 0x7253D, size: 0x8, addend: 0x0, symName: '__ZN110_$LT$core..iter..adapters..enumerate..Enumerate$LT$I$GT$$u20$as$u20$core..iter..traits..iterator..Iterator$GT$4next17h59c693749193bf24E', symObjAddr: 0xE0, symBinAddr: 0x18DD0, symSize: 0xE0 }
  - { offset: 0x726DD, size: 0x8, addend: 0x0, symName: '__ZN63_$LT$I$u20$as$u20$core..iter..traits..collect..IntoIterator$GT$9into_iter17h6dc889e2e99871e4E', symObjAddr: 0x1C0, symBinAddr: 0x18EB0, symSize: 0x30 }
  - { offset: 0x72715, size: 0x8, addend: 0x0, symName: '__ZN63_$LT$I$u20$as$u20$core..iter..traits..collect..IntoIterator$GT$9into_iter17hef638a8ca0378296E', symObjAddr: 0x1F0, symBinAddr: 0x18EE0, symSize: 0x18 }
  - { offset: 0x72EA4, size: 0x8, addend: 0x0, symName: __ZN4core3fmt9Arguments3new17h3a58dd13409bc747E, symObjAddr: 0x0, symBinAddr: 0x18EF8, symSize: 0x1C }
  - { offset: 0x73207, size: 0x8, addend: 0x0, symName: __ZN4core3fmt9Arguments3new17h3a58dd13409bc747E, symObjAddr: 0x0, symBinAddr: 0x18EF8, symSize: 0x1C }
  - { offset: 0x7326D, size: 0x8, addend: 0x0, symName: __ZN4core3fmt9Arguments3new17hf001a30b7c126fd8E, symObjAddr: 0x1C, symBinAddr: 0x18F14, symSize: 0x1C }
  - { offset: 0x732BD, size: 0x8, addend: 0x0, symName: __ZN11biospy_core4kmer10hash_bytes17h9f7cdd1235ded05cE, symObjAddr: 0x0, symBinAddr: 0x18F30, symSize: 0x40 }
  - { offset: 0x732E6, size: 0x8, addend: 0x0, symName: __ZN11biospy_core4kmer10hash_bytes5STATE17h7d4a42cf785a6f1eE, symObjAddr: 0x640, symBinAddr: 0xF44D8, symSize: 0x0 }
  - { offset: 0x732F4, size: 0x8, addend: 0x0, symName: __ZN11biospy_core4kmer10hash_bytes17h9f7cdd1235ded05cE, symObjAddr: 0x0, symBinAddr: 0x18F30, symSize: 0x40 }
  - { offset: 0x733BC, size: 0x8, addend: 0x0, symName: __ZN11biospy_core4kmer14canonical_hash17hf965918b14dbb21aE, symObjAddr: 0x308, symBinAddr: 0x19238, symSize: 0x1F8 }
  - { offset: 0x734B5, size: 0x8, addend: 0x0, symName: __ZN11biospy_core4kmer9comp_base17hdb013cde83328111E, symObjAddr: 0x500, symBinAddr: 0x19430, symSize: 0xF0 }
  - { offset: 0x73B3E, size: 0x8, addend: 0x0, symName: __ZN11biospy_core4kmer11KmerCounter11total_count17h8f40b07cae0b52d9E, symObjAddr: 0x40, symBinAddr: 0x18F70, symSize: 0x18 }
  - { offset: 0x73B60, size: 0x8, addend: 0x0, symName: __ZN11biospy_core4kmer11KmerCounter3len17hbba24e3774749619E, symObjAddr: 0x58, symBinAddr: 0x18F88, symSize: 0x28 }
  - { offset: 0x73B82, size: 0x8, addend: 0x0, symName: __ZN11biospy_core4kmer11KmerCounter3new17h7622e11177708065E, symObjAddr: 0x80, symBinAddr: 0x18FB0, symSize: 0x54 }
  - { offset: 0x73BA4, size: 0x8, addend: 0x0, symName: __ZN11biospy_core4kmer11KmerCounter5top_n17hde20af9bda643d33E, symObjAddr: 0xD4, symBinAddr: 0x19004, symSize: 0xCC }
  - { offset: 0x73C1D, size: 0x8, addend: 0x0, symName: __ZN11biospy_core4kmer11KmerCounter7add_seq17h1f3f11df5377cfe5E, symObjAddr: 0x1A0, symBinAddr: 0x190D0, symSize: 0x168 }
  - { offset: 0x73CCC, size: 0x8, addend: 0x0, symName: '__ZN5alloc5slice29_$LT$impl$u20$$u5b$T$u5d$$GT$8into_vec17h21504f7eb1388045E', symObjAddr: 0x0, symBinAddr: 0x19520, symSize: 0x4C }
  - { offset: 0x73D33, size: 0x8, addend: 0x0, symName: '__ZN5alloc5slice29_$LT$impl$u20$$u5b$T$u5d$$GT$8into_vec17h21504f7eb1388045E', symObjAddr: 0x0, symBinAddr: 0x19520, symSize: 0x4C }
  - { offset: 0x73FD6, size: 0x8, addend: 0x0, symName: __ZN4core4iter6traits8iterator8Iterator3map17hfee06d9b8e01ed72E, symObjAddr: 0x0, symBinAddr: 0x1956C, symSize: 0x1C }
  - { offset: 0x73FFC, size: 0x8, addend: 0x0, symName: __ZN4core4iter6traits8iterator8Iterator3map17hfee06d9b8e01ed72E, symObjAddr: 0x0, symBinAddr: 0x1956C, symSize: 0x1C }
  - { offset: 0x74054, size: 0x8, addend: 0x0, symName: __ZN4core4iter6traits8iterator8Iterator9enumerate17hb0e9a3a9512ff65cE, symObjAddr: 0x1C, symBinAddr: 0x19588, symSize: 0x28 }
  - { offset: 0x7413D, size: 0x8, addend: 0x0, symName: '__ZN98_$LT$core..iter..adapters..rev..Rev$LT$I$GT$$u20$as$u20$core..iter..traits..iterator..Iterator$GT$4fold17h56fa153030125b7bE', symObjAddr: 0x44, symBinAddr: 0x195B0, symSize: 0x2C }
  - { offset: 0x7419D, size: 0x8, addend: 0x0, symName: '__ZN98_$LT$core..iter..adapters..rev..Rev$LT$I$GT$$u20$as$u20$core..iter..traits..iterator..Iterator$GT$4next17h6bd795a0fcccb73dE', symObjAddr: 0x70, symBinAddr: 0x195DC, symSize: 0x24 }
  - { offset: 0x741D2, size: 0x8, addend: 0x0, symName: '__ZN98_$LT$core..iter..adapters..rev..Rev$LT$I$GT$$u20$as$u20$core..iter..traits..iterator..Iterator$GT$9size_hint17h5acfa8ee79d99838E', symObjAddr: 0x94, symBinAddr: 0x19600, symSize: 0x24 }
  - { offset: 0x744E2, size: 0x8, addend: 0x0, symName: '__ZN109_$LT$pyo3..types..dict..borrowed_iter..BorrowedDictIter$u20$as$u20$core..iter..traits..iterator..Iterator$GT$4next17h175a75726c7f489cE', symObjAddr: 0x0, symBinAddr: 0x19624, symSize: 0xE4 }
  - { offset: 0x756D1, size: 0x8, addend: 0x0, symName: '__ZN109_$LT$pyo3..types..dict..borrowed_iter..BorrowedDictIter$u20$as$u20$core..iter..traits..iterator..Iterator$GT$4next17h175a75726c7f489cE', symObjAddr: 0x0, symBinAddr: 0x19624, symSize: 0xE4 }
  - { offset: 0x75DF2, size: 0x8, addend: 0x0, symName: '__ZN5ahash8hash_map21AHashMap$LT$K$C$V$GT$3new17h1673d5b5e2d26312E', symObjAddr: 0x0, symBinAddr: 0x19708, symSize: 0x4C }
  - { offset: 0x75E60, size: 0x8, addend: 0x0, symName: '__ZN86_$LT$ahash..hash_map..AHashMap$LT$K$C$V$C$S$GT$$u20$as$u20$core..ops..deref..Deref$GT$5deref17hd4b0d02789c1bf67E', symObjAddr: 0x4C, symBinAddr: 0x19754, symSize: 0x14 }
  - { offset: 0x75EAF, size: 0x8, addend: 0x0, symName: '__ZN89_$LT$ahash..hash_map..AHashMap$LT$K$C$V$C$S$GT$$u20$as$u20$core..ops..deref..DerefMut$GT$9deref_mut17hb3f470de5fedaae8E', symObjAddr: 0x60, symBinAddr: 0x19768, symSize: 0x14 }
  - { offset: 0x760F4, size: 0x8, addend: 0x0, symName: '__ZN5ahash8hash_map21AHashMap$LT$K$C$V$GT$3new17h1673d5b5e2d26312E', symObjAddr: 0x0, symBinAddr: 0x19708, symSize: 0x4C }
  - { offset: 0x7616C, size: 0x8, addend: 0x0, symName: '__ZN55_$LT$$RF$T$u20$as$u20$core..convert..AsRef$LT$U$GT$$GT$6as_ref17h37b8d88f4f227609E', symObjAddr: 0x0, symBinAddr: 0x1977C, symSize: 0x30 }
  - { offset: 0x76188, size: 0x8, addend: 0x0, symName: '__ZN55_$LT$$RF$T$u20$as$u20$core..convert..AsRef$LT$U$GT$$GT$6as_ref17h37b8d88f4f227609E', symObjAddr: 0x0, symBinAddr: 0x1977C, symSize: 0x30 }
  - { offset: 0x762BB, size: 0x8, addend: 0x0, symName: '__ZN102_$LT$pyo3..internal..get_slot..Slot$LT$74_i32$GT$$u20$as$u20$pyo3..internal..get_slot..GetSlotImpl$GT$8get_slot17ha11dc9aa12a4d9cbE', symObjAddr: 0x0, symBinAddr: 0x197AC, symSize: 0x74 }
  - { offset: 0x7735F, size: 0x8, addend: 0x0, symName: '__ZN102_$LT$pyo3..internal..get_slot..Slot$LT$74_i32$GT$$u20$as$u20$pyo3..internal..get_slot..GetSlotImpl$GT$8get_slot17ha11dc9aa12a4d9cbE', symObjAddr: 0x0, symBinAddr: 0x197AC, symSize: 0x74 }
  - { offset: 0x77826, size: 0x8, addend: 0x0, symName: '__ZN52_$LT$Q$u20$as$u20$hashbrown..Equivalent$LT$K$GT$$GT$10equivalent17h2073f446a30596f5E', symObjAddr: 0x0, symBinAddr: 0x19820, symSize: 0x40 }
  - { offset: 0x7791E, size: 0x8, addend: 0x0, symName: '__ZN52_$LT$Q$u20$as$u20$hashbrown..Equivalent$LT$K$GT$$GT$10equivalent17h2073f446a30596f5E', symObjAddr: 0x0, symBinAddr: 0x19820, symSize: 0x40 }
  - { offset: 0x7797E, size: 0x8, addend: 0x0, symName: '__ZN52_$LT$Q$u20$as$u20$hashbrown..Equivalent$LT$K$GT$$GT$10equivalent17ha2275d872c018cc2E', symObjAddr: 0x40, symBinAddr: 0x19860, symSize: 0x40 }
  - { offset: 0x77A1F, size: 0x8, addend: 0x0, symName: __ZN4core5slice3raw14from_raw_parts17h56d35c80dd4df009E, symObjAddr: 0x0, symBinAddr: 0x198A0, symSize: 0x58 }
  - { offset: 0x78212, size: 0x8, addend: 0x0, symName: __ZN4core5slice3raw14from_raw_parts17h56d35c80dd4df009E, symObjAddr: 0x0, symBinAddr: 0x198A0, symSize: 0x58 }
  - { offset: 0x78255, size: 0x8, addend: 0x0, symName: __ZN4core5slice3raw14from_raw_parts17hc70f6e31cd97ea67E, symObjAddr: 0x58, symBinAddr: 0x198F8, symSize: 0x58 }
  - { offset: 0x792A9, size: 0x8, addend: 0x0, symName: '__ZN87_$LT$$BP$mut$u20$pyo3_ffi..object..PyObject$u20$as$u20$pyo3..ffi_ptr_ext..FfiPtrExt$GT$12assume_owned17h7b2e19464c67841bE', symObjAddr: 0x0, symBinAddr: 0x19950, symSize: 0x24 }
  - { offset: 0x792FC, size: 0x8, addend: 0x0, symName: __ZN8pyo3_ffi6object10Py_IS_TYPE17h9d22eed925268a5bE, symObjAddr: 0x90, symBinAddr: 0x199E0, symSize: 0x38 }
  - { offset: 0x79336, size: 0x8, addend: 0x0, symName: __ZN8pyo3_ffi6object17PyType_HasFeature17hd45005210a33702cE, symObjAddr: 0xC8, symBinAddr: 0x19A18, symSize: 0x8C }
  - { offset: 0x79391, size: 0x8, addend: 0x0, symName: __ZN8pyo3_ffi6object18PyObject_TypeCheck17h6150f83307a36315E, symObjAddr: 0x154, symBinAddr: 0x19AA4, symSize: 0x70 }
  - { offset: 0x793CE, size: 0x8, addend: 0x0, symName: __ZN8pyo3_ffi6object19PyType_FastSubclass17h3553cf01e777e222E, symObjAddr: 0x1C4, symBinAddr: 0x19B14, symSize: 0x28 }
  - { offset: 0x7940B, size: 0x8, addend: 0x0, symName: __ZN8pyo3_ffi6object7Py_None17h8101247c7be4319eE, symObjAddr: 0x1EC, symBinAddr: 0x19B3C, symSize: 0xC }
  - { offset: 0x79429, size: 0x8, addend: 0x0, symName: __ZN8pyo3_ffi6object7Py_TYPE17he1e1af8c48938bbcE, symObjAddr: 0x1F8, symBinAddr: 0x19B48, symSize: 0x74 }
  - { offset: 0x7A5ED, size: 0x8, addend: 0x0, symName: '__ZN87_$LT$$BP$mut$u20$pyo3_ffi..object..PyObject$u20$as$u20$pyo3..ffi_ptr_ext..FfiPtrExt$GT$12assume_owned17h7b2e19464c67841bE', symObjAddr: 0x0, symBinAddr: 0x19950, symSize: 0x24 }
  - { offset: 0x7A632, size: 0x8, addend: 0x0, symName: '__ZN87_$LT$$BP$mut$u20$pyo3_ffi..object..PyObject$u20$as$u20$pyo3..ffi_ptr_ext..FfiPtrExt$GT$15assume_borrowed17hb0856223a7937430E', symObjAddr: 0x24, symBinAddr: 0x19974, symSize: 0x24 }
  - { offset: 0x7A677, size: 0x8, addend: 0x0, symName: '__ZN87_$LT$$BP$mut$u20$pyo3_ffi..object..PyObject$u20$as$u20$pyo3..ffi_ptr_ext..FfiPtrExt$GT$22assume_borrowed_or_opt17h62f3ab20bf9acce4E', symObjAddr: 0x48, symBinAddr: 0x19998, symSize: 0x24 }
  - { offset: 0x7A6BC, size: 0x8, addend: 0x0, symName: '__ZN87_$LT$$BP$mut$u20$pyo3_ffi..object..PyObject$u20$as$u20$pyo3..ffi_ptr_ext..FfiPtrExt$GT$25assume_borrowed_unchecked17h0c4c8e0515858fc1E', symObjAddr: 0x6C, symBinAddr: 0x199BC, symSize: 0x24 }
  - { offset: 0x7AD06, size: 0x8, addend: 0x0, symName: _PyInit_biospy_core, symObjAddr: 0x0, symBinAddr: 0x19BBC, symSize: 0x34 }
  - { offset: 0x7AD2F, size: 0x8, addend: 0x0, symName: __ZN11biospy_core2py11biospy_core9_PYO3_DEF17hd0fd344b9d72ffb3E, symObjAddr: 0x58, symBinAddr: 0xF4500, symSize: 0x0 }
  - { offset: 0x7AD3C, size: 0x8, addend: 0x0, symName: _PyInit_biospy_core, symObjAddr: 0x0, symBinAddr: 0x19BBC, symSize: 0x34 }
  - { offset: 0x7CD0B, size: 0x8, addend: 0x0, symName: __ZN4core5slice4sort6shared9smallsort11insert_tail17h25a4f96b6ba1a7c5E, symObjAddr: 0x0, symBinAddr: 0x19BF0, symSize: 0x19C }
  - { offset: 0x7DBBA, size: 0x8, addend: 0x0, symName: __ZN4core5slice4sort6shared9smallsort11insert_tail17h25a4f96b6ba1a7c5E, symObjAddr: 0x0, symBinAddr: 0x19BF0, symSize: 0x19C }
  - { offset: 0x7DD11, size: 0x8, addend: 0x0, symName: __ZN4core5slice4sort6shared9smallsort11insert_tail17h497cbcff955bcfccE, symObjAddr: 0x19C, symBinAddr: 0x19D8C, symSize: 0x18C }
  - { offset: 0x7DE67, size: 0x8, addend: 0x0, symName: __ZN4core5slice4sort6shared9smallsort12sort4_stable17h00ab89cf9e001268E, symObjAddr: 0x328, symBinAddr: 0x19F18, symSize: 0x72C }
  - { offset: 0x7F12C, size: 0x8, addend: 0x0, symName: __ZN4core5slice4sort6shared9smallsort12sort8_stable17ha576044adad88dc7E, symObjAddr: 0x1170, symBinAddr: 0x1A644, symSize: 0x94 }
  - { offset: 0x7F1F7, size: 0x8, addend: 0x0, symName: __ZN4core5slice4sort6shared9smallsort12swap_if_less17h0c433a5feb2a99dfE, symObjAddr: 0x1298, symBinAddr: 0x1A6D8, symSize: 0x278 }
  - { offset: 0x7F77D, size: 0x8, addend: 0x0, symName: __ZN4core5slice4sort6shared9smallsort13sort9_optimal17h2fdedabaf812fe21E, symObjAddr: 0x1A14, symBinAddr: 0x1A950, symSize: 0x27C }
  - { offset: 0x7F804, size: 0x8, addend: 0x0, symName: __ZN4core5slice4sort6shared9smallsort14sort13_optimal17he35827dd25d15aaaE, symObjAddr: 0x1C90, symBinAddr: 0x1ABCC, symSize: 0x42C }
  - { offset: 0x7F88B, size: 0x8, addend: 0x0, symName: __ZN4core5slice4sort6shared9smallsort18small_sort_general17he8bdaf8a71f231b6E, symObjAddr: 0x24E8, symBinAddr: 0x1AFF8, symSize: 0xA4 }
  - { offset: 0x7F950, size: 0x8, addend: 0x0, symName: __ZN4core5slice4sort6shared9smallsort18small_sort_network17h21a5c20cc85f5f59E, symObjAddr: 0x2834, symBinAddr: 0x1B09C, symSize: 0x204 }
  - { offset: 0x7FC12, size: 0x8, addend: 0x0, symName: __ZN4core5slice4sort6shared9smallsort19bidirectional_merge17h07da52ad6cc62dc2E, symObjAddr: 0x2A38, symBinAddr: 0x1B2A0, symSize: 0x4E8 }
  - { offset: 0x80399, size: 0x8, addend: 0x0, symName: __ZN4core5slice4sort6shared9smallsort19bidirectional_merge17h10c34d7bb6987bcaE, symObjAddr: 0x2F20, symBinAddr: 0x1B788, symSize: 0x4DC }
  - { offset: 0x80A3C, size: 0x8, addend: 0x0, symName: __ZN4core5slice4sort6shared9smallsort25insertion_sort_shift_left17hf3c8c5c54a3bf020E, symObjAddr: 0x33FC, symBinAddr: 0x1BC64, symSize: 0xC0 }
  - { offset: 0x80B76, size: 0x8, addend: 0x0, symName: __ZN4core5slice4sort6shared9smallsort25insertion_sort_shift_left17hf66a2c34c2a7b037E, symObjAddr: 0x34BC, symBinAddr: 0x1BD24, symSize: 0xC0 }
  - { offset: 0x80CB0, size: 0x8, addend: 0x0, symName: __ZN4core5slice4sort6shared9smallsort31small_sort_general_with_scratch17h0bb0408255bf50a5E, symObjAddr: 0x357C, symBinAddr: 0x1BDE4, symSize: 0x50C }
  - { offset: 0x81F2F, size: 0x8, addend: 0x0, symName: '__ZN55_$LT$$RF$T$u20$as$u20$core..convert..AsRef$LT$U$GT$$GT$6as_ref17h47a5ab749aae6084E', symObjAddr: 0x0, symBinAddr: 0x1C2F0, symSize: 0x30 }
  - { offset: 0x81F4B, size: 0x8, addend: 0x0, symName: '__ZN55_$LT$$RF$T$u20$as$u20$core..convert..AsRef$LT$U$GT$$GT$6as_ref17h47a5ab749aae6084E', symObjAddr: 0x0, symBinAddr: 0x1C2F0, symSize: 0x30 }
  - { offset: 0x82057, size: 0x8, addend: 0x0, symName: '__ZN4pyo35impl_4wrap82EmptyTupleConverter$LT$core..result..Result$LT$$LP$$RP$$C$pyo3..err..PyErr$GT$$GT$12map_into_ptr17h5f6ff66ce8e779cbE', symObjAddr: 0x0, symBinAddr: 0x1C320, symSize: 0x44 }
  - { offset: 0x83DD9, size: 0x8, addend: 0x0, symName: '__ZN4pyo35impl_4wrap82EmptyTupleConverter$LT$core..result..Result$LT$$LP$$RP$$C$pyo3..err..PyErr$GT$$GT$12map_into_ptr17h5f6ff66ce8e779cbE', symObjAddr: 0x0, symBinAddr: 0x1C320, symSize: 0x44 }
  - { offset: 0x83E41, size: 0x8, addend: 0x0, symName: __ZN3std2fs11OpenOptions4open17he5b3aaedfb90bcbbE, symObjAddr: 0x0, symBinAddr: 0x1C364, symSize: 0x74 }
  - { offset: 0x840B4, size: 0x8, addend: 0x0, symName: '__ZN3std2io5impls57_$LT$impl$u20$std..io..Read$u20$for$u20$$RF$mut$u20$R$GT$8read_buf17hadefcaf4b972e9f5E', symObjAddr: 0x120, symBinAddr: 0x1C484, symSize: 0x30 }
  - { offset: 0x8460A, size: 0x8, addend: 0x0, symName: __ZN3std2fs11OpenOptions4open17he5b3aaedfb90bcbbE, symObjAddr: 0x0, symBinAddr: 0x1C364, symSize: 0x74 }
  - { offset: 0x84691, size: 0x8, addend: 0x0, symName: __ZN3std2fs4File4open17hbe05a88921c61b90E, symObjAddr: 0x74, symBinAddr: 0x1C3D8, symSize: 0xAC }
  - { offset: 0x84786, size: 0x8, addend: 0x0, symName: '__ZN4core5slice29_$LT$impl$u20$$u5b$T$u5d$$GT$14swap_unchecked18precondition_check17head0455a4927d690E', symObjAddr: 0x0, symBinAddr: 0x1C4B4, symSize: 0x80 }
  - { offset: 0x847A7, size: 0x8, addend: 0x0, symName: '__ZN4core5slice29_$LT$impl$u20$$u5b$T$u5d$$GT$14swap_unchecked18precondition_check17head0455a4927d690E', symObjAddr: 0x0, symBinAddr: 0x1C4B4, symSize: 0x80 }
  - { offset: 0x8480E, size: 0x8, addend: 0x0, symName: '__ZN4core5slice29_$LT$impl$u20$$u5b$T$u5d$$GT$18split_at_unchecked18precondition_check17hdffb5d93de8466daE', symObjAddr: 0x80, symBinAddr: 0x1C534, symSize: 0x60 }
  - { offset: 0x84867, size: 0x8, addend: 0x0, symName: '__ZN4core5slice29_$LT$impl$u20$$u5b$T$u5d$$GT$22split_at_mut_unchecked18precondition_check17h95636ec27c3fc093E', symObjAddr: 0xE0, symBinAddr: 0x1C594, symSize: 0x60 }
  - { offset: 0x84911, size: 0x8, addend: 0x0, symName: '__ZN4core3ptr9const_ptr33_$LT$impl$u20$$BP$const$u20$T$GT$7is_null17h6b077261526fc261E', symObjAddr: 0x0, symBinAddr: 0x1C5F4, symSize: 0x18 }
  - { offset: 0x8513B, size: 0x8, addend: 0x0, symName: '__ZN4core3ptr9const_ptr33_$LT$impl$u20$$BP$const$u20$T$GT$7is_null17h6b077261526fc261E', symObjAddr: 0x0, symBinAddr: 0x1C5F4, symSize: 0x18 }
  - { offset: 0x852DA, size: 0x8, addend: 0x0, symName: '__ZN4core5slice29_$LT$impl$u20$$u5b$T$u5d$$GT$15copy_from_slice17h3da7e9fd8b1c9655E', symObjAddr: 0x18, symBinAddr: 0x1C60C, symSize: 0x34 }
  - { offset: 0x85343, size: 0x8, addend: 0x0, symName: '__ZN4core5slice29_$LT$impl$u20$$u5b$T$u5d$$GT$18split_at_unchecked17h9dce6db98c8cdf8aE', symObjAddr: 0x4C, symBinAddr: 0x1C640, symSize: 0xE8 }
  - { offset: 0x854D0, size: 0x8, addend: 0x0, symName: '__ZN4core5slice29_$LT$impl$u20$$u5b$T$u5d$$GT$8split_at17hec0ee98d193d24a2E', symObjAddr: 0x134, symBinAddr: 0x1C728, symSize: 0xAC }
  - { offset: 0x8756E, size: 0x8, addend: 0x0, symName: '__ZN4core6option15Option$LT$T$GT$3map17h3d579867b7b0ef1aE', symObjAddr: 0x1E0, symBinAddr: 0x1C7D4, symSize: 0x5C }
  - { offset: 0x875E6, size: 0x8, addend: 0x0, symName: '__ZN4core6option15Option$LT$T$GT$3map17h751f5e9014c653b0E', symObjAddr: 0x23C, symBinAddr: 0x1C830, symSize: 0x50 }
  - { offset: 0x8765E, size: 0x8, addend: 0x0, symName: '__ZN4core6option15Option$LT$T$GT$3map17h869105d56057bd23E', symObjAddr: 0x28C, symBinAddr: 0x1C880, symSize: 0x50 }
  - { offset: 0x87992, size: 0x8, addend: 0x0, symName: '__ZN4core6option15Option$LT$T$GT$4take17hb651cb29527cb79aE', symObjAddr: 0x2DC, symBinAddr: 0x1C8D0, symSize: 0x40 }
  - { offset: 0x879F6, size: 0x8, addend: 0x0, symName: '__ZN4core6option15Option$LT$T$GT$4take17hbedc737777d7ccfdE', symObjAddr: 0x31C, symBinAddr: 0x1C910, symSize: 0x40 }
  - { offset: 0x87A89, size: 0x8, addend: 0x0, symName: '__ZN4core6option15Option$LT$T$GT$6expect17hf505564232f31343E', symObjAddr: 0x35C, symBinAddr: 0x1C950, symSize: 0x5C }
  - { offset: 0x87EA0, size: 0x8, addend: 0x0, symName: '__ZN4core6option15Option$LT$T$GT$6insert17h1ad862a08d9a539aE', symObjAddr: 0x3B8, symBinAddr: 0x1C9AC, symSize: 0xA8 }
  - { offset: 0x87FA6, size: 0x8, addend: 0x0, symName: '__ZN4core6option15Option$LT$T$GT$6insert17h9e2044736c0340a9E', symObjAddr: 0x460, symBinAddr: 0x1CA54, symSize: 0xA8 }
  - { offset: 0x880D1, size: 0x8, addend: 0x0, symName: '__ZN4core6option15Option$LT$T$GT$6insert17hac89d01e86f486f2E', symObjAddr: 0x508, symBinAddr: 0x1CAFC, symSize: 0xA8 }
  - { offset: 0x881D7, size: 0x8, addend: 0x0, symName: '__ZN4core6option15Option$LT$T$GT$6insert17he1fe83f8cc4b13deE', symObjAddr: 0x5B0, symBinAddr: 0x1CBA4, symSize: 0xA8 }
  - { offset: 0x882C4, size: 0x8, addend: 0x0, symName: '__ZN4core6option15Option$LT$T$GT$6map_or17he808cbcea5989656E', symObjAddr: 0x658, symBinAddr: 0x1CC4C, symSize: 0xA0 }
  - { offset: 0x8834C, size: 0x8, addend: 0x0, symName: '__ZN4core6option15Option$LT$T$GT$7is_some17h873bd8f74e534254E', symObjAddr: 0x6F8, symBinAddr: 0x1CCEC, symSize: 0x28 }
  - { offset: 0x88385, size: 0x8, addend: 0x0, symName: '__ZN4core6option15Option$LT$T$GT$7is_some17he764c2c65858610bE', symObjAddr: 0x720, symBinAddr: 0x1CD14, symSize: 0x24 }
  - { offset: 0x883BE, size: 0x8, addend: 0x0, symName: '__ZN4core6option15Option$LT$T$GT$7replace17h91bfde4d7dd86e23E', symObjAddr: 0x744, symBinAddr: 0x1CD38, symSize: 0x28 }
  - { offset: 0x884D1, size: 0x8, addend: 0x0, symName: '__ZN4core6option15Option$LT$T$GT$8as_deref17h47a63f780874a7d8E', symObjAddr: 0x76C, symBinAddr: 0x1CD60, symSize: 0x6C }
  - { offset: 0x885B6, size: 0x8, addend: 0x0, symName: __ZN4core4hash11BuildHasher8hash_one17h2ebea70e8ef90446E, symObjAddr: 0x0, symBinAddr: 0x1CDCC, symSize: 0x84 }
  - { offset: 0x88652, size: 0x8, addend: 0x0, symName: '__ZN5ahash12random_state15get_fixed_seeds28_$u7b$$u7b$closure$u7d$$u7d$17h2d927c5c0a640264E', symObjAddr: 0xE4, symBinAddr: 0x1CEB0, symSize: 0xF4 }
  - { offset: 0x88735, size: 0x8, addend: 0x0, symName: '__ZN5ahash12random_state7get_src28_$u7b$$u7b$closure$u7d$$u7d$17h29d55fddb7a521b4E', symObjAddr: 0x1D8, symBinAddr: 0x1CFA4, symSize: 0xEC }
  - { offset: 0x8886D, size: 0x8, addend: 0x0, symName: __ZN4core4hash11BuildHasher8hash_one17h2ebea70e8ef90446E, symObjAddr: 0x0, symBinAddr: 0x1CDCC, symSize: 0x84 }
  - { offset: 0x88917, size: 0x8, addend: 0x0, symName: __ZN5ahash12random_state11RandomState8hash_one17h8d53fa2564c588f4E, symObjAddr: 0x84, symBinAddr: 0x1CE50, symSize: 0x60 }
  - { offset: 0x88AE7, size: 0x8, addend: 0x0, symName: __ZN4core4hash11BuildHasher8hash_one17hc70d81d5a6d57505E, symObjAddr: 0x0, symBinAddr: 0x1D090, symSize: 0x84 }
  - { offset: 0x88B03, size: 0x8, addend: 0x0, symName: __ZN4core4hash11BuildHasher8hash_one17hc70d81d5a6d57505E, symObjAddr: 0x0, symBinAddr: 0x1D090, symSize: 0x84 }
  - { offset: 0x88B6E, size: 0x8, addend: 0x0, symName: __ZN4core4hash6Hasher8write_u817hbfc9631425e6227fE, symObjAddr: 0x84, symBinAddr: 0x1D114, symSize: 0x3C }
  - { offset: 0x88D58, size: 0x8, addend: 0x0, symName: '__ZN118_$LT$pyo3..impl_..pyclass..SendablePyClass$LT$T$GT$$u20$as$u20$pyo3..impl_..pyclass..PyClassThreadChecker$LT$T$GT$$GT$3new17hbf94a44f5c33d320E', symObjAddr: 0x0, symBinAddr: 0x1D150, symSize: 0x4 }
  - { offset: 0x89F6C, size: 0x8, addend: 0x0, symName: '__ZN118_$LT$pyo3..impl_..pyclass..SendablePyClass$LT$T$GT$$u20$as$u20$pyo3..impl_..pyclass..PyClassThreadChecker$LT$T$GT$$GT$3new17hbf94a44f5c33d320E', symObjAddr: 0x0, symBinAddr: 0x1D150, symSize: 0x4 }
  - { offset: 0x89F90, size: 0x8, addend: 0x0, symName: '__ZN118_$LT$pyo3..impl_..pyclass..SendablePyClass$LT$T$GT$$u20$as$u20$pyo3..impl_..pyclass..PyClassThreadChecker$LT$T$GT$$GT$3new17hff1f151496a7f2edE', symObjAddr: 0x4, symBinAddr: 0x1D154, symSize: 0x4 }
  - { offset: 0x89FB4, size: 0x8, addend: 0x0, symName: '__ZN118_$LT$pyo3..impl_..pyclass..SendablePyClass$LT$T$GT$$u20$as$u20$pyo3..impl_..pyclass..PyClassThreadChecker$LT$T$GT$$GT$6ensure17ha1792eaa9d8875d7E', symObjAddr: 0x8, symBinAddr: 0x1D158, symSize: 0x10 }
  - { offset: 0x89FE7, size: 0x8, addend: 0x0, symName: '__ZN118_$LT$pyo3..impl_..pyclass..SendablePyClass$LT$T$GT$$u20$as$u20$pyo3..impl_..pyclass..PyClassThreadChecker$LT$T$GT$$GT$6ensure17hf9e52efee27d641cE', symObjAddr: 0x18, symBinAddr: 0x1D168, symSize: 0x10 }
  - { offset: 0x8A01A, size: 0x8, addend: 0x0, symName: '__ZN118_$LT$pyo3..impl_..pyclass..SendablePyClass$LT$T$GT$$u20$as$u20$pyo3..impl_..pyclass..PyClassThreadChecker$LT$T$GT$$GT$8can_drop17h62c4892002e4eea7E', symObjAddr: 0x28, symBinAddr: 0x1D178, symSize: 0x18 }
  - { offset: 0x8A06C, size: 0x8, addend: 0x0, symName: '__ZN118_$LT$pyo3..impl_..pyclass..SendablePyClass$LT$T$GT$$u20$as$u20$pyo3..impl_..pyclass..PyClassThreadChecker$LT$T$GT$$GT$8can_drop17hf40c261611e99731E', symObjAddr: 0x40, symBinAddr: 0x1D190, symSize: 0x18 }
  - { offset: 0x8A0BF, size: 0x8, addend: 0x0, symName: __ZN4pyo35impl_7pyclass10tp_dealloc17h6e00727f4a5ac0dbE, symObjAddr: 0x58, symBinAddr: 0x1D1A8, symSize: 0x34 }
  - { offset: 0x8A0F2, size: 0x8, addend: 0x0, symName: __ZN4pyo35impl_7pyclass10tp_dealloc17h710e8be8d91484d6E, symObjAddr: 0x8C, symBinAddr: 0x1D1DC, symSize: 0x34 }
  - { offset: 0x8A12A, size: 0x8, addend: 0x0, symName: __ZN4pyo35impl_7pyclass11PyClassDict10clear_dict17hc02d5bca14dd5982E, symObjAddr: 0xC0, symBinAddr: 0x1D210, symSize: 0x10 }
  - { offset: 0x8A17A, size: 0x8, addend: 0x0, symName: __ZN4pyo35impl_7pyclass14PyClassWeakRef14clear_weakrefs17h1792c55e7bbebc14E, symObjAddr: 0xD0, symBinAddr: 0x1D220, symSize: 0x14 }
  - { offset: 0x8A1D3, size: 0x8, addend: 0x0, symName: __ZN4pyo35impl_7pyclass18tp_dealloc_with_gc17h0808139509b3dfaeE, symObjAddr: 0xE4, symBinAddr: 0x1D234, symSize: 0x4C }
  - { offset: 0x8A224, size: 0x8, addend: 0x0, symName: __ZN4pyo35impl_7pyclass18tp_dealloc_with_gc17h14bc094f36b74c37E, symObjAddr: 0x130, symBinAddr: 0x1D280, symSize: 0x4C }
  - { offset: 0x8AC6C, size: 0x8, addend: 0x0, symName: '__ZN4pyo35impl_7pyclass29PyClassImplCollector$LT$T$GT$3new17h87040142c8419e09E', symObjAddr: 0x17C, symBinAddr: 0x1D2CC, symSize: 0x4 }
  - { offset: 0x8ACA7, size: 0x8, addend: 0x0, symName: '__ZN4pyo35impl_7pyclass29PyClassImplCollector$LT$T$GT$3new17hab8d5f8a81e09c4bE', symObjAddr: 0x180, symBinAddr: 0x1D2D0, symSize: 0x4 }
  - { offset: 0x8AD48, size: 0x8, addend: 0x0, symName: __ZN4pyo33err5PyErr3new17h3dd3409ff5c5dd5cE, symObjAddr: 0x0, symBinAddr: 0x1D2D4, symSize: 0xA0 }
  - { offset: 0x8AD8A, size: 0x8, addend: 0x0, symName: '__ZN4pyo33err5PyErr3new28_$u7b$$u7b$closure$u7d$$u7d$17h6e82966150af7e47E', symObjAddr: 0xA0, symBinAddr: 0x1D374, symSize: 0xD4 }
  - { offset: 0x8CB5C, size: 0x8, addend: 0x0, symName: __ZN4pyo33err5PyErr3new17h3dd3409ff5c5dd5cE, symObjAddr: 0x0, symBinAddr: 0x1D2D4, symSize: 0xA0 }
  - { offset: 0x8CC04, size: 0x8, addend: 0x0, symName: '__ZN153_$LT$core..result..Result$LT$T$C$F$GT$$u20$as$u20$core..ops..try_trait..FromResidual$LT$core..result..Result$LT$core..convert..Infallible$C$E$GT$$GT$$GT$13from_residual17h1ac6bda6ee5e977bE', symObjAddr: 0x0, symBinAddr: 0x1D448, symSize: 0x6C }
  - { offset: 0x8DA4B, size: 0x8, addend: 0x0, symName: '__ZN153_$LT$core..result..Result$LT$T$C$F$GT$$u20$as$u20$core..ops..try_trait..FromResidual$LT$core..result..Result$LT$core..convert..Infallible$C$E$GT$$GT$$GT$13from_residual17h1ac6bda6ee5e977bE', symObjAddr: 0x0, symBinAddr: 0x1D448, symSize: 0x6C }
  - { offset: 0x8DAD1, size: 0x8, addend: 0x0, symName: '__ZN153_$LT$core..result..Result$LT$T$C$F$GT$$u20$as$u20$core..ops..try_trait..FromResidual$LT$core..result..Result$LT$core..convert..Infallible$C$E$GT$$GT$$GT$13from_residual17h1d80fcd48a127724E', symObjAddr: 0x6C, symBinAddr: 0x1D4B4, symSize: 0x6C }
  - { offset: 0x8DB57, size: 0x8, addend: 0x0, symName: '__ZN153_$LT$core..result..Result$LT$T$C$F$GT$$u20$as$u20$core..ops..try_trait..FromResidual$LT$core..result..Result$LT$core..convert..Infallible$C$E$GT$$GT$$GT$13from_residual17h22fb3f9f6fef8526E', symObjAddr: 0xD8, symBinAddr: 0x1D520, symSize: 0x6C }
  - { offset: 0x8DBDD, size: 0x8, addend: 0x0, symName: '__ZN153_$LT$core..result..Result$LT$T$C$F$GT$$u20$as$u20$core..ops..try_trait..FromResidual$LT$core..result..Result$LT$core..convert..Infallible$C$E$GT$$GT$$GT$13from_residual17h28eec42f14e6e041E', symObjAddr: 0x144, symBinAddr: 0x1D58C, symSize: 0x18 }
  - { offset: 0x8DC26, size: 0x8, addend: 0x0, symName: '__ZN153_$LT$core..result..Result$LT$T$C$F$GT$$u20$as$u20$core..ops..try_trait..FromResidual$LT$core..result..Result$LT$core..convert..Infallible$C$E$GT$$GT$$GT$13from_residual17h36e9b74c0f4080deE', symObjAddr: 0x15C, symBinAddr: 0x1D5A4, symSize: 0x6C }
  - { offset: 0x8DCAC, size: 0x8, addend: 0x0, symName: '__ZN153_$LT$core..result..Result$LT$T$C$F$GT$$u20$as$u20$core..ops..try_trait..FromResidual$LT$core..result..Result$LT$core..convert..Infallible$C$E$GT$$GT$$GT$13from_residual17h422cd605fb9d1a64E', symObjAddr: 0x1C8, symBinAddr: 0x1D610, symSize: 0x64 }
  - { offset: 0x8DD14, size: 0x8, addend: 0x0, symName: '__ZN153_$LT$core..result..Result$LT$T$C$F$GT$$u20$as$u20$core..ops..try_trait..FromResidual$LT$core..result..Result$LT$core..convert..Infallible$C$E$GT$$GT$$GT$13from_residual17h68a78e190ae5a613E', symObjAddr: 0x22C, symBinAddr: 0x1D674, symSize: 0x6C }
  - { offset: 0x8DD9A, size: 0x8, addend: 0x0, symName: '__ZN153_$LT$core..result..Result$LT$T$C$F$GT$$u20$as$u20$core..ops..try_trait..FromResidual$LT$core..result..Result$LT$core..convert..Infallible$C$E$GT$$GT$$GT$13from_residual17h6bc88d9d597ae43cE', symObjAddr: 0x298, symBinAddr: 0x1D6E0, symSize: 0x6C }
  - { offset: 0x8DE20, size: 0x8, addend: 0x0, symName: '__ZN153_$LT$core..result..Result$LT$T$C$F$GT$$u20$as$u20$core..ops..try_trait..FromResidual$LT$core..result..Result$LT$core..convert..Infallible$C$E$GT$$GT$$GT$13from_residual17h6d8bc71c1f063123E', symObjAddr: 0x304, symBinAddr: 0x1D74C, symSize: 0x6C }
  - { offset: 0x8DEA6, size: 0x8, addend: 0x0, symName: '__ZN153_$LT$core..result..Result$LT$T$C$F$GT$$u20$as$u20$core..ops..try_trait..FromResidual$LT$core..result..Result$LT$core..convert..Infallible$C$E$GT$$GT$$GT$13from_residual17h6e0c84612464ced3E', symObjAddr: 0x370, symBinAddr: 0x1D7B8, symSize: 0x64 }
  - { offset: 0x8DF0E, size: 0x8, addend: 0x0, symName: '__ZN153_$LT$core..result..Result$LT$T$C$F$GT$$u20$as$u20$core..ops..try_trait..FromResidual$LT$core..result..Result$LT$core..convert..Infallible$C$E$GT$$GT$$GT$13from_residual17h7f469b9b4731fbc3E', symObjAddr: 0x3D4, symBinAddr: 0x1D81C, symSize: 0x6C }
  - { offset: 0x8DF94, size: 0x8, addend: 0x0, symName: '__ZN153_$LT$core..result..Result$LT$T$C$F$GT$$u20$as$u20$core..ops..try_trait..FromResidual$LT$core..result..Result$LT$core..convert..Infallible$C$E$GT$$GT$$GT$13from_residual17ha563edd3b3700945E', symObjAddr: 0x448, symBinAddr: 0x1D888, symSize: 0x64 }
  - { offset: 0x8DFFC, size: 0x8, addend: 0x0, symName: '__ZN153_$LT$core..result..Result$LT$T$C$F$GT$$u20$as$u20$core..ops..try_trait..FromResidual$LT$core..result..Result$LT$core..convert..Infallible$C$E$GT$$GT$$GT$13from_residual17hae01fb1fee942d82E', symObjAddr: 0x4AC, symBinAddr: 0x1D8EC, symSize: 0x6C }
  - { offset: 0x8E082, size: 0x8, addend: 0x0, symName: '__ZN153_$LT$core..result..Result$LT$T$C$F$GT$$u20$as$u20$core..ops..try_trait..FromResidual$LT$core..result..Result$LT$core..convert..Infallible$C$E$GT$$GT$$GT$13from_residual17hcdc503d4945eed7dE', symObjAddr: 0x518, symBinAddr: 0x1D958, symSize: 0x6C }
  - { offset: 0x8E108, size: 0x8, addend: 0x0, symName: '__ZN153_$LT$core..result..Result$LT$T$C$F$GT$$u20$as$u20$core..ops..try_trait..FromResidual$LT$core..result..Result$LT$core..convert..Infallible$C$E$GT$$GT$$GT$13from_residual17hd5544d0792485570E', symObjAddr: 0x58C, symBinAddr: 0x1D9C4, symSize: 0x64 }
  - { offset: 0x8E170, size: 0x8, addend: 0x0, symName: '__ZN153_$LT$core..result..Result$LT$T$C$F$GT$$u20$as$u20$core..ops..try_trait..FromResidual$LT$core..result..Result$LT$core..convert..Infallible$C$E$GT$$GT$$GT$13from_residual17hde542adadca9de42E', symObjAddr: 0x5F0, symBinAddr: 0x1DA28, symSize: 0x6C }
  - { offset: 0x8E1F6, size: 0x8, addend: 0x0, symName: '__ZN153_$LT$core..result..Result$LT$T$C$F$GT$$u20$as$u20$core..ops..try_trait..FromResidual$LT$core..result..Result$LT$core..convert..Infallible$C$E$GT$$GT$$GT$13from_residual17hec248ef0c4c2355bE', symObjAddr: 0x65C, symBinAddr: 0x1DA94, symSize: 0x34 }
  - { offset: 0x8E25D, size: 0x8, addend: 0x0, symName: '__ZN153_$LT$core..result..Result$LT$T$C$F$GT$$u20$as$u20$core..ops..try_trait..FromResidual$LT$core..result..Result$LT$core..convert..Infallible$C$E$GT$$GT$$GT$13from_residual17hf64e330c1d49675bE', symObjAddr: 0x690, symBinAddr: 0x1DAC8, symSize: 0x20 }
  - { offset: 0x8FF83, size: 0x8, addend: 0x0, symName: '__ZN79_$LT$core..result..Result$LT$T$C$E$GT$$u20$as$u20$core..ops..try_trait..Try$GT$11from_output17h06c3464184b289a9E', symObjAddr: 0x19D8, symBinAddr: 0x1EE10, symSize: 0x18 }
  - { offset: 0x8FFC3, size: 0x8, addend: 0x0, symName: '__ZN79_$LT$core..result..Result$LT$T$C$E$GT$$u20$as$u20$core..ops..try_trait..Try$GT$6branch17h01e3c0f0552c711dE', symObjAddr: 0x19F0, symBinAddr: 0x1EE28, symSize: 0xA0 }
  - { offset: 0x90040, size: 0x8, addend: 0x0, symName: '__ZN79_$LT$core..result..Result$LT$T$C$E$GT$$u20$as$u20$core..ops..try_trait..Try$GT$6branch17h17c10dd33038f901E', symObjAddr: 0x1A90, symBinAddr: 0x1EEC8, symSize: 0x88 }
  - { offset: 0x900BE, size: 0x8, addend: 0x0, symName: '__ZN79_$LT$core..result..Result$LT$T$C$E$GT$$u20$as$u20$core..ops..try_trait..Try$GT$6branch17h2255316cdea01d9bE', symObjAddr: 0x1B18, symBinAddr: 0x1EF50, symSize: 0xA0 }
  - { offset: 0x9013B, size: 0x8, addend: 0x0, symName: '__ZN79_$LT$core..result..Result$LT$T$C$E$GT$$u20$as$u20$core..ops..try_trait..Try$GT$6branch17h25163f05cc8d0944E', symObjAddr: 0x1BB8, symBinAddr: 0x1EFF0, symSize: 0xA0 }
  - { offset: 0x901B8, size: 0x8, addend: 0x0, symName: '__ZN79_$LT$core..result..Result$LT$T$C$E$GT$$u20$as$u20$core..ops..try_trait..Try$GT$6branch17h287c5e7f0c182051E', symObjAddr: 0x1C58, symBinAddr: 0x1F090, symSize: 0xA0 }
  - { offset: 0x90235, size: 0x8, addend: 0x0, symName: '__ZN79_$LT$core..result..Result$LT$T$C$E$GT$$u20$as$u20$core..ops..try_trait..Try$GT$6branch17h2c539c57a04668a7E', symObjAddr: 0x1CF8, symBinAddr: 0x1F130, symSize: 0xB4 }
  - { offset: 0x902B3, size: 0x8, addend: 0x0, symName: '__ZN79_$LT$core..result..Result$LT$T$C$E$GT$$u20$as$u20$core..ops..try_trait..Try$GT$6branch17h372e54cdddcbad8fE', symObjAddr: 0x1DAC, symBinAddr: 0x1F1E4, symSize: 0xCC }
  - { offset: 0x90331, size: 0x8, addend: 0x0, symName: '__ZN79_$LT$core..result..Result$LT$T$C$E$GT$$u20$as$u20$core..ops..try_trait..Try$GT$6branch17h44d192dfd1d07b68E', symObjAddr: 0x1E78, symBinAddr: 0x1F2B0, symSize: 0xCC }
  - { offset: 0x903AF, size: 0x8, addend: 0x0, symName: '__ZN79_$LT$core..result..Result$LT$T$C$E$GT$$u20$as$u20$core..ops..try_trait..Try$GT$6branch17h5bd635c0fc607666E', symObjAddr: 0x1F44, symBinAddr: 0x1F37C, symSize: 0x40 }
  - { offset: 0x9042B, size: 0x8, addend: 0x0, symName: '__ZN79_$LT$core..result..Result$LT$T$C$E$GT$$u20$as$u20$core..ops..try_trait..Try$GT$6branch17h626b383de20f9141E', symObjAddr: 0x1F84, symBinAddr: 0x1F3BC, symSize: 0x90 }
  - { offset: 0x904A8, size: 0x8, addend: 0x0, symName: '__ZN79_$LT$core..result..Result$LT$T$C$E$GT$$u20$as$u20$core..ops..try_trait..Try$GT$6branch17h78df46a47d28792fE', symObjAddr: 0x2014, symBinAddr: 0x1F44C, symSize: 0x8C }
  - { offset: 0x90525, size: 0x8, addend: 0x0, symName: '__ZN79_$LT$core..result..Result$LT$T$C$E$GT$$u20$as$u20$core..ops..try_trait..Try$GT$6branch17h8cd9ff5d5ee92ed7E', symObjAddr: 0x20A0, symBinAddr: 0x1F4D8, symSize: 0xA0 }
  - { offset: 0x905A2, size: 0x8, addend: 0x0, symName: '__ZN79_$LT$core..result..Result$LT$T$C$E$GT$$u20$as$u20$core..ops..try_trait..Try$GT$6branch17h9038ff884bb42583E', symObjAddr: 0x2140, symBinAddr: 0x1F578, symSize: 0x28 }
  - { offset: 0x90600, size: 0x8, addend: 0x0, symName: '__ZN79_$LT$core..result..Result$LT$T$C$E$GT$$u20$as$u20$core..ops..try_trait..Try$GT$6branch17h977a8285399074a8E', symObjAddr: 0x2168, symBinAddr: 0x1F5A0, symSize: 0xAC }
  - { offset: 0x9067D, size: 0x8, addend: 0x0, symName: '__ZN79_$LT$core..result..Result$LT$T$C$E$GT$$u20$as$u20$core..ops..try_trait..Try$GT$6branch17h9fa27b690c72b92cE', symObjAddr: 0x2214, symBinAddr: 0x1F64C, symSize: 0xAC }
  - { offset: 0x906FA, size: 0x8, addend: 0x0, symName: '__ZN79_$LT$core..result..Result$LT$T$C$E$GT$$u20$as$u20$core..ops..try_trait..Try$GT$6branch17ha22305b85450d3c4E', symObjAddr: 0x22C0, symBinAddr: 0x1F6F8, symSize: 0x64 }
  - { offset: 0x90777, size: 0x8, addend: 0x0, symName: '__ZN79_$LT$core..result..Result$LT$T$C$E$GT$$u20$as$u20$core..ops..try_trait..Try$GT$6branch17ha956cc0b05c164e0E', symObjAddr: 0x2324, symBinAddr: 0x1F75C, symSize: 0xB4 }
  - { offset: 0x907F5, size: 0x8, addend: 0x0, symName: '__ZN79_$LT$core..result..Result$LT$T$C$E$GT$$u20$as$u20$core..ops..try_trait..Try$GT$6branch17haafb8e2f4502f35fE', symObjAddr: 0x23D8, symBinAddr: 0x1F810, symSize: 0x6C }
  - { offset: 0x90872, size: 0x8, addend: 0x0, symName: '__ZN79_$LT$core..result..Result$LT$T$C$E$GT$$u20$as$u20$core..ops..try_trait..Try$GT$6branch17hadabdd17438d7eebE', symObjAddr: 0x2444, symBinAddr: 0x1F87C, symSize: 0xA0 }
  - { offset: 0x908EF, size: 0x8, addend: 0x0, symName: '__ZN79_$LT$core..result..Result$LT$T$C$E$GT$$u20$as$u20$core..ops..try_trait..Try$GT$6branch17hafc1ec1553ae9ffcE', symObjAddr: 0x24E4, symBinAddr: 0x1F91C, symSize: 0xA8 }
  - { offset: 0x9096C, size: 0x8, addend: 0x0, symName: '__ZN79_$LT$core..result..Result$LT$T$C$E$GT$$u20$as$u20$core..ops..try_trait..Try$GT$6branch17hb0e59e7272361fe5E', symObjAddr: 0x258C, symBinAddr: 0x1F9C4, symSize: 0x8C }
  - { offset: 0x909E9, size: 0x8, addend: 0x0, symName: '__ZN79_$LT$core..result..Result$LT$T$C$E$GT$$u20$as$u20$core..ops..try_trait..Try$GT$6branch17hb3e600909a7d945eE', symObjAddr: 0x2618, symBinAddr: 0x1FA50, symSize: 0xB4 }
  - { offset: 0x90A67, size: 0x8, addend: 0x0, symName: '__ZN79_$LT$core..result..Result$LT$T$C$E$GT$$u20$as$u20$core..ops..try_trait..Try$GT$6branch17hb9645cbd4a36d1f8E', symObjAddr: 0x26CC, symBinAddr: 0x1FB04, symSize: 0xA0 }
  - { offset: 0x90AE4, size: 0x8, addend: 0x0, symName: '__ZN79_$LT$core..result..Result$LT$T$C$E$GT$$u20$as$u20$core..ops..try_trait..Try$GT$6branch17hc681e9d6000f1056E', symObjAddr: 0x276C, symBinAddr: 0x1FBA4, symSize: 0xA0 }
  - { offset: 0x90B61, size: 0x8, addend: 0x0, symName: '__ZN79_$LT$core..result..Result$LT$T$C$E$GT$$u20$as$u20$core..ops..try_trait..Try$GT$6branch17hc992b89e0c7775c8E', symObjAddr: 0x280C, symBinAddr: 0x1FC44, symSize: 0x28 }
  - { offset: 0x90BBF, size: 0x8, addend: 0x0, symName: '__ZN79_$LT$core..result..Result$LT$T$C$E$GT$$u20$as$u20$core..ops..try_trait..Try$GT$6branch17hcd8ecd4106c21207E', symObjAddr: 0x2834, symBinAddr: 0x1FC6C, symSize: 0x88 }
  - { offset: 0x90C3D, size: 0x8, addend: 0x0, symName: '__ZN79_$LT$core..result..Result$LT$T$C$E$GT$$u20$as$u20$core..ops..try_trait..Try$GT$6branch17hd4758b225b96d3faE', symObjAddr: 0x28BC, symBinAddr: 0x1FCF4, symSize: 0xCC }
  - { offset: 0x90CBC, size: 0x8, addend: 0x0, symName: '__ZN79_$LT$core..result..Result$LT$T$C$E$GT$$u20$as$u20$core..ops..try_trait..Try$GT$6branch17hd80f680311a80e8aE', symObjAddr: 0x2988, symBinAddr: 0x1FDC0, symSize: 0xA0 }
  - { offset: 0x90D39, size: 0x8, addend: 0x0, symName: '__ZN79_$LT$core..result..Result$LT$T$C$E$GT$$u20$as$u20$core..ops..try_trait..Try$GT$6branch17hf43f93d6b5936c2bE', symObjAddr: 0x2A28, symBinAddr: 0x1FE60, symSize: 0xA0 }
  - { offset: 0x94270, size: 0x8, addend: 0x0, symName: '__ZN4core6result19Result$LT$T$C$E$GT$14unwrap_or_else17h0a7892bc791f94c5E', symObjAddr: 0x6B0, symBinAddr: 0x1DAE8, symSize: 0x8C }
  - { offset: 0x942DC, size: 0x8, addend: 0x0, symName: '__ZN4core6result19Result$LT$T$C$E$GT$14unwrap_or_else17h54b568073a689304E', symObjAddr: 0x73C, symBinAddr: 0x1DB74, symSize: 0x8C }
  - { offset: 0x94376, size: 0x8, addend: 0x0, symName: '__ZN4core6result19Result$LT$T$C$E$GT$14unwrap_or_else17hf52ccc4cecd07986E', symObjAddr: 0x7C8, symBinAddr: 0x1DC00, symSize: 0x70 }
  - { offset: 0x94B86, size: 0x8, addend: 0x0, symName: '__ZN4core6result19Result$LT$T$C$E$GT$3map17h0cf6161b49a9eb97E', symObjAddr: 0x838, symBinAddr: 0x1DC70, symSize: 0x4C }
  - { offset: 0x94C18, size: 0x8, addend: 0x0, symName: '__ZN4core6result19Result$LT$T$C$E$GT$3map17h538a058c3738c691E', symObjAddr: 0x884, symBinAddr: 0x1DCBC, symSize: 0x4C }
  - { offset: 0x94CAA, size: 0x8, addend: 0x0, symName: '__ZN4core6result19Result$LT$T$C$E$GT$3map17h5f1f69218598ff18E', symObjAddr: 0x8D0, symBinAddr: 0x1DD08, symSize: 0x90 }
  - { offset: 0x94D3D, size: 0x8, addend: 0x0, symName: '__ZN4core6result19Result$LT$T$C$E$GT$3map17h6d5cb5f1c539afb0E', symObjAddr: 0x960, symBinAddr: 0x1DD98, symSize: 0x90 }
  - { offset: 0x94DE8, size: 0x8, addend: 0x0, symName: '__ZN4core6result19Result$LT$T$C$E$GT$3map17h82c375f052458dc0E', symObjAddr: 0x9F0, symBinAddr: 0x1DE28, symSize: 0x90 }
  - { offset: 0x94EB1, size: 0x8, addend: 0x0, symName: '__ZN4core6result19Result$LT$T$C$E$GT$3map17h83c40bea712d409bE', symObjAddr: 0xA80, symBinAddr: 0x1DEB8, symSize: 0x90 }
  - { offset: 0x94F5C, size: 0x8, addend: 0x0, symName: '__ZN4core6result19Result$LT$T$C$E$GT$3map17h83d8d01e7b75b043E', symObjAddr: 0xB10, symBinAddr: 0x1DF48, symSize: 0x90 }
  - { offset: 0x95007, size: 0x8, addend: 0x0, symName: '__ZN4core6result19Result$LT$T$C$E$GT$3map17hbd46057049144216E', symObjAddr: 0xBA0, symBinAddr: 0x1DFD8, symSize: 0x90 }
  - { offset: 0x950A7, size: 0x8, addend: 0x0, symName: '__ZN4core6result19Result$LT$T$C$E$GT$3map17hd4520f90fcf0de1cE', symObjAddr: 0xC30, symBinAddr: 0x1E068, symSize: 0x4C }
  - { offset: 0x95139, size: 0x8, addend: 0x0, symName: '__ZN4core6result19Result$LT$T$C$E$GT$3map17hd70e833fa977a96aE', symObjAddr: 0xC7C, symBinAddr: 0x1E0B4, symSize: 0x4C }
  - { offset: 0x95235, size: 0x8, addend: 0x0, symName: '__ZN4core6result19Result$LT$T$C$E$GT$3map17hf4e6bcdc2557aad4E', symObjAddr: 0xCC8, symBinAddr: 0x1E100, symSize: 0x94 }
  - { offset: 0x952C8, size: 0x8, addend: 0x0, symName: '__ZN4core6result19Result$LT$T$C$E$GT$6expect17hc1592ad5af37904aE', symObjAddr: 0xD5C, symBinAddr: 0x1E194, symSize: 0x88 }
  - { offset: 0x95363, size: 0x8, addend: 0x0, symName: '__ZN4core6result19Result$LT$T$C$E$GT$6is_err17h3e745470de478417E', symObjAddr: 0xDE4, symBinAddr: 0x1E21C, symSize: 0x20 }
  - { offset: 0x953CE, size: 0x8, addend: 0x0, symName: '__ZN4core6result19Result$LT$T$C$E$GT$7map_err17h04a2982a853cd438E', symObjAddr: 0xE04, symBinAddr: 0x1E23C, symSize: 0x84 }
  - { offset: 0x95478, size: 0x8, addend: 0x0, symName: '__ZN4core6result19Result$LT$T$C$E$GT$7map_err17h251899e198cfee84E', symObjAddr: 0xE88, symBinAddr: 0x1E2C0, symSize: 0x84 }
  - { offset: 0x9556C, size: 0x8, addend: 0x0, symName: '__ZN4core6result19Result$LT$T$C$E$GT$7map_err17h2520a6d60d6a7aa3E', symObjAddr: 0xF0C, symBinAddr: 0x1E344, symSize: 0x90 }
  - { offset: 0x9561E, size: 0x8, addend: 0x0, symName: '__ZN4core6result19Result$LT$T$C$E$GT$7map_err17h2d73976b3f92a77eE', symObjAddr: 0xF9C, symBinAddr: 0x1E3D4, symSize: 0x30 }
  - { offset: 0x95694, size: 0x8, addend: 0x0, symName: '__ZN4core6result19Result$LT$T$C$E$GT$7map_err17h4582b209cb0ceda2E', symObjAddr: 0xFCC, symBinAddr: 0x1E404, symSize: 0x84 }
  - { offset: 0x95726, size: 0x8, addend: 0x0, symName: '__ZN4core6result19Result$LT$T$C$E$GT$7map_err17h652f787c997cb908E', symObjAddr: 0x1050, symBinAddr: 0x1E488, symSize: 0xAC }
  - { offset: 0x957B9, size: 0x8, addend: 0x0, symName: '__ZN4core6result19Result$LT$T$C$E$GT$7map_err17h7c9c1a705aba91d1E', symObjAddr: 0x10FC, symBinAddr: 0x1E534, symSize: 0x30 }
  - { offset: 0x95847, size: 0x8, addend: 0x0, symName: '__ZN4core6result19Result$LT$T$C$E$GT$7map_err17h88fd758172454060E', symObjAddr: 0x112C, symBinAddr: 0x1E564, symSize: 0xB8 }
  - { offset: 0x958DA, size: 0x8, addend: 0x0, symName: '__ZN4core6result19Result$LT$T$C$E$GT$7map_err17h8943617eb5ab2d27E', symObjAddr: 0x11E4, symBinAddr: 0x1E61C, symSize: 0xAC }
  - { offset: 0x9596D, size: 0x8, addend: 0x0, symName: '__ZN4core6result19Result$LT$T$C$E$GT$7map_err17h8abe9e0a98e34437E', symObjAddr: 0x1290, symBinAddr: 0x1E6C8, symSize: 0xCC }
  - { offset: 0x95A01, size: 0x8, addend: 0x0, symName: '__ZN4core6result19Result$LT$T$C$E$GT$7map_err17h9b4639d12737fd4aE', symObjAddr: 0x135C, symBinAddr: 0x1E794, symSize: 0x48 }
  - { offset: 0x95A77, size: 0x8, addend: 0x0, symName: '__ZN4core6result19Result$LT$T$C$E$GT$7map_err17hba9502d51013778bE', symObjAddr: 0x13A4, symBinAddr: 0x1E7DC, symSize: 0x48 }
  - { offset: 0x95AED, size: 0x8, addend: 0x0, symName: '__ZN4core6result19Result$LT$T$C$E$GT$7map_err17hd617734de5107cceE', symObjAddr: 0x13EC, symBinAddr: 0x1E824, symSize: 0x48 }
  - { offset: 0x95B63, size: 0x8, addend: 0x0, symName: '__ZN4core6result19Result$LT$T$C$E$GT$7map_err17he3f05d30fa16b660E', symObjAddr: 0x1434, symBinAddr: 0x1E86C, symSize: 0x20 }
  - { offset: 0x95BD9, size: 0x8, addend: 0x0, symName: '__ZN4core6result19Result$LT$T$C$E$GT$7map_err17hed6d9e863d707bc9E', symObjAddr: 0x1454, symBinAddr: 0x1E88C, symSize: 0x84 }
  - { offset: 0x95C6B, size: 0x8, addend: 0x0, symName: '__ZN4core6result19Result$LT$T$C$E$GT$7map_err17hf3fd7ff44b613124E', symObjAddr: 0x14D8, symBinAddr: 0x1E910, symSize: 0xAC }
  - { offset: 0x95CFE, size: 0x8, addend: 0x0, symName: '__ZN4core6result19Result$LT$T$C$E$GT$8and_then17h08fe526c187a5e74E', symObjAddr: 0x1584, symBinAddr: 0x1E9BC, symSize: 0x94 }
  - { offset: 0x95D91, size: 0x8, addend: 0x0, symName: '__ZN4core6result19Result$LT$T$C$E$GT$8and_then17h0f825e56ec11870cE', symObjAddr: 0x1618, symBinAddr: 0x1EA50, symSize: 0xB0 }
  - { offset: 0x95E24, size: 0x8, addend: 0x0, symName: '__ZN4core6result19Result$LT$T$C$E$GT$8and_then17h57e286d35dfc81b8E', symObjAddr: 0x16C8, symBinAddr: 0x1EB00, symSize: 0x94 }
  - { offset: 0x95EB7, size: 0x8, addend: 0x0, symName: '__ZN4core6result19Result$LT$T$C$E$GT$8and_then17ha0b9ce5ab5344c31E', symObjAddr: 0x175C, symBinAddr: 0x1EB94, symSize: 0xB0 }
  - { offset: 0x95F4A, size: 0x8, addend: 0x0, symName: '__ZN4core6result19Result$LT$T$C$E$GT$8and_then17he5f44453b2d2c0a7E', symObjAddr: 0x180C, symBinAddr: 0x1EC44, symSize: 0xB0 }
  - { offset: 0x95FDD, size: 0x8, addend: 0x0, symName: '__ZN4core6result19Result$LT$T$C$E$GT$8and_then17he9ef545a1cb5a726E', symObjAddr: 0x18BC, symBinAddr: 0x1ECF4, symSize: 0xB0 }
  - { offset: 0x96070, size: 0x8, addend: 0x0, symName: '__ZN4core6result19Result$LT$T$C$E$GT$9unwrap_or17hb576f1d4dd6e8315E', symObjAddr: 0x196C, symBinAddr: 0x1EDA4, symSize: 0x6C }
  - { offset: 0x961DD, size: 0x8, addend: 0x0, symName: __ZN4core5slice4sort8unstable9quicksort34partition_lomuto_branchless_cyclic17h0981d9b8037a8db0E, symObjAddr: 0x0, symBinAddr: 0x1FF00, symSize: 0x220 }
  - { offset: 0x9674C, size: 0x8, addend: 0x0, symName: __ZN4core5slice4sort8unstable9quicksort34partition_lomuto_branchless_cyclic17h0981d9b8037a8db0E, symObjAddr: 0x0, symBinAddr: 0x1FF00, symSize: 0x220 }
  - { offset: 0x96943, size: 0x8, addend: 0x0, symName: __ZN4core5slice4sort8unstable9quicksort34partition_lomuto_branchless_cyclic17h0c244ded9da63ec2E, symObjAddr: 0x220, symBinAddr: 0x20120, symSize: 0x214 }
  - { offset: 0x96B3A, size: 0x8, addend: 0x0, symName: __ZN4core5slice4sort8unstable9quicksort34partition_lomuto_branchless_cyclic17h3fa4d194f0a81618E, symObjAddr: 0x434, symBinAddr: 0x20334, symSize: 0x214 }
  - { offset: 0x96D31, size: 0x8, addend: 0x0, symName: __ZN4core5slice4sort8unstable9quicksort34partition_lomuto_branchless_cyclic17h6af01c86e49d6c1dE, symObjAddr: 0x648, symBinAddr: 0x20548, symSize: 0x220 }
  - { offset: 0x96F2D, size: 0x8, addend: 0x0, symName: '__ZN4core5slice4sort8unstable9quicksort34partition_lomuto_branchless_cyclic28_$u7b$$u7b$closure$u7d$$u7d$17h0e8bad57346967a8E', symObjAddr: 0x868, symBinAddr: 0x20768, symSize: 0x180 }
  - { offset: 0x9705D, size: 0x8, addend: 0x0, symName: '__ZN4core5slice4sort8unstable9quicksort34partition_lomuto_branchless_cyclic28_$u7b$$u7b$closure$u7d$$u7d$17h4d17eeb936e79ebeE', symObjAddr: 0x9E8, symBinAddr: 0x208E8, symSize: 0x180 }
  - { offset: 0x9718D, size: 0x8, addend: 0x0, symName: '__ZN4core5slice4sort8unstable9quicksort34partition_lomuto_branchless_cyclic28_$u7b$$u7b$closure$u7d$$u7d$17hb41c698a99d7f6f6E', symObjAddr: 0xB68, symBinAddr: 0x20A68, symSize: 0x17C }
  - { offset: 0x972BD, size: 0x8, addend: 0x0, symName: '__ZN4core5slice4sort8unstable9quicksort34partition_lomuto_branchless_cyclic28_$u7b$$u7b$closure$u7d$$u7d$17hb59f96b25cf297c6E', symObjAddr: 0xCE4, symBinAddr: 0x20BE4, symSize: 0x17C }
  - { offset: 0x97492, size: 0x8, addend: 0x0, symName: __ZN4core5slice4sort8unstable9quicksort9partition17h43e99bc88644a627E, symObjAddr: 0xE60, symBinAddr: 0x20D60, symSize: 0x150 }
  - { offset: 0x97551, size: 0x8, addend: 0x0, symName: __ZN4core5slice4sort8unstable9quicksort9partition17h8c234ee548d6be53E, symObjAddr: 0xFB0, symBinAddr: 0x20EB0, symSize: 0x150 }
  - { offset: 0x97610, size: 0x8, addend: 0x0, symName: __ZN4core5slice4sort8unstable9quicksort9partition17hd54257bf3af58756E, symObjAddr: 0x1100, symBinAddr: 0x21000, symSize: 0x150 }
  - { offset: 0x976CF, size: 0x8, addend: 0x0, symName: __ZN4core5slice4sort8unstable9quicksort9partition17hfe923cc5ed5f6a87E, symObjAddr: 0x1250, symBinAddr: 0x21150, symSize: 0x150 }
  - { offset: 0x9778E, size: 0x8, addend: 0x0, symName: __ZN4core5slice4sort8unstable9quicksort9quicksort17h3560c86d1c240497E, symObjAddr: 0x13A0, symBinAddr: 0x212A0, symSize: 0x2C8 }
  - { offset: 0x979B6, size: 0x8, addend: 0x0, symName: __ZN4core5slice4sort8unstable9quicksort9quicksort17h81af804f5d752d07E, symObjAddr: 0x1668, symBinAddr: 0x21568, symSize: 0x2C8 }
  - { offset: 0x97BE3, size: 0x8, addend: 0x0, symName: '__ZN4core5slice4sort8unstable9quicksort9quicksort28_$u7b$$u7b$closure$u7d$$u7d$17h14afd7e665b2fdf4E', symObjAddr: 0x1930, symBinAddr: 0x21830, symSize: 0x48 }
  - { offset: 0x97C40, size: 0x8, addend: 0x0, symName: '__ZN4core5slice4sort8unstable9quicksort9quicksort28_$u7b$$u7b$closure$u7d$$u7d$17h6caebf17e13d3e3eE', symObjAddr: 0x1978, symBinAddr: 0x21878, symSize: 0x48 }
  - { offset: 0x9843C, size: 0x8, addend: 0x0, symName: __ZN5alloc5alloc15exchange_malloc17h9180936f2cce11daE, symObjAddr: 0x0, symBinAddr: 0x218C0, symSize: 0xAC }
  - { offset: 0x98DDA, size: 0x8, addend: 0x0, symName: '__ZN63_$LT$alloc..alloc..Global$u20$as$u20$core..alloc..Allocator$GT$10deallocate17h96fb6efaab386c23E', symObjAddr: 0x244, symBinAddr: 0x21B04, symSize: 0x58 }
  - { offset: 0x98E8F, size: 0x8, addend: 0x0, symName: __ZN5alloc5alloc15exchange_malloc17h9180936f2cce11daE, symObjAddr: 0x0, symBinAddr: 0x218C0, symSize: 0xAC }
  - { offset: 0x98F86, size: 0x8, addend: 0x0, symName: '__ZN63_$LT$alloc..alloc..Global$u20$as$u20$core..default..Default$GT$7default17h62e8e5991ca87d4eE', symObjAddr: 0x29C, symBinAddr: 0x21B5C, symSize: 0x4 }
  - { offset: 0x991B5, size: 0x8, addend: 0x0, symName: __ZN5alloc5alloc6Global10alloc_impl17hccce91410dacda59E, symObjAddr: 0xAC, symBinAddr: 0x2196C, symSize: 0x198 }
  - { offset: 0x99589, size: 0x8, addend: 0x0, symName: '__ZN49_$LT$F$u20$as$u20$core..str..pattern..Pattern$GT$13into_searcher17h9598e20745afd807E', symObjAddr: 0x0, symBinAddr: 0x21B60, symSize: 0x48 }
  - { offset: 0x995AA, size: 0x8, addend: 0x0, symName: '__ZN49_$LT$F$u20$as$u20$core..str..pattern..Pattern$GT$13into_searcher17h9598e20745afd807E', symObjAddr: 0x0, symBinAddr: 0x21B60, symSize: 0x48 }
  - { offset: 0x995F6, size: 0x8, addend: 0x0, symName: '__ZN53_$LT$F$u20$as$u20$core..str..pattern..MultiCharEq$GT$7matches17h9294938b2d743897E', symObjAddr: 0x48, symBinAddr: 0x21BA8, symSize: 0x28 }
  - { offset: 0x997F4, size: 0x8, addend: 0x0, symName: __ZN4core3str11validations23next_code_point_reverse17h7fed3c8157907eb0E, symObjAddr: 0x0, symBinAddr: 0x21BD0, symSize: 0x238 }
  - { offset: 0x9987B, size: 0x8, addend: 0x0, symName: __ZN4core3str11validations23next_code_point_reverse17h7fed3c8157907eb0E, symObjAddr: 0x0, symBinAddr: 0x21BD0, symSize: 0x238 }
  - { offset: 0x99F86, size: 0x8, addend: 0x0, symName: __ZN4core4sync6atomic11AtomicUsize3new17hd801735ebbfd0ca3E, symObjAddr: 0x0, symBinAddr: 0x21E08, symSize: 0x18 }
  - { offset: 0x99FFB, size: 0x8, addend: 0x0, symName: __ZN4core4sync6atomic11AtomicUsize3new17hd801735ebbfd0ca3E, symObjAddr: 0x0, symBinAddr: 0x21E08, symSize: 0x18 }
  - { offset: 0x9A03C, size: 0x8, addend: 0x0, symName: __ZN4pyo36marker6Python19assume_gil_acquired17h971b5286d7f26054E, symObjAddr: 0x0, symBinAddr: 0x21E20, symSize: 0x4 }
  - { offset: 0x9A17E, size: 0x8, addend: 0x0, symName: __ZN4pyo36marker6Python19assume_gil_acquired17h971b5286d7f26054E, symObjAddr: 0x0, symBinAddr: 0x21E20, symSize: 0x4 }
  - { offset: 0x9A1AF, size: 0x8, addend: 0x0, symName: __ZN4core3fmt9Arguments17from_str_nonconst17h800d875c80608e04E, symObjAddr: 0x0, symBinAddr: 0x21E24, symSize: 0x28 }
  - { offset: 0x9A631, size: 0x8, addend: 0x0, symName: __ZN4core3fmt9Arguments17from_str_nonconst17h800d875c80608e04E, symObjAddr: 0x0, symBinAddr: 0x21E24, symSize: 0x28 }
  - { offset: 0x9A6BF, size: 0x8, addend: 0x0, symName: __ZN4core3fmt9Arguments23as_statically_known_str17h32137a827e452572E, symObjAddr: 0x28, symBinAddr: 0x21E4C, symSize: 0x104 }
  - { offset: 0x9A781, size: 0x8, addend: 0x0, symName: __ZN4core3fmt9Arguments8from_str17hc64e352ccd00d9d5E, symObjAddr: 0x12C, symBinAddr: 0x21F50, symSize: 0x20 }
  - { offset: 0x9A7C2, size: 0x8, addend: 0x0, symName: '__ZN4core5slice29_$LT$impl$u20$$u5b$T$u5d$$GT$4iter17haa7ea8bf14faa984E', symObjAddr: 0x0, symBinAddr: 0x21F70, symSize: 0x28 }
  - { offset: 0x9AB02, size: 0x8, addend: 0x0, symName: '__ZN4core5slice29_$LT$impl$u20$$u5b$T$u5d$$GT$4iter17haa7ea8bf14faa984E', symObjAddr: 0x0, symBinAddr: 0x21F70, symSize: 0x28 }
  - { offset: 0x9AC5D, size: 0x8, addend: 0x0, symName: '__ZN5alloc5boxed12Box$LT$T$GT$8into_raw17h263f584c65d1862fE', symObjAddr: 0x28, symBinAddr: 0x21F98, symSize: 0x14 }
  - { offset: 0x9AC94, size: 0x8, addend: 0x0, symName: '__ZN5alloc5boxed12Box$LT$T$GT$8into_raw17h90e2b3a54aa8edecE', symObjAddr: 0x3C, symBinAddr: 0x21FAC, symSize: 0x14 }
  - { offset: 0x9ACD1, size: 0x8, addend: 0x0, symName: '__ZN5alloc5boxed22Box$LT$$u5b$T$u5d$$GT$16new_uninit_slice17hfde39a6a34a451deE', symObjAddr: 0x50, symBinAddr: 0x21FC0, symSize: 0x7C }
  - { offset: 0x9AD6B, size: 0x8, addend: 0x0, symName: '__ZN80_$LT$alloc..boxed..Box$LT$T$C$A$GT$$u20$as$u20$core..convert..AsRef$LT$T$GT$$GT$6as_ref17h948dd26adb3c8509E', symObjAddr: 0xCC, symBinAddr: 0x2203C, symSize: 0x20 }
  - { offset: 0x9B0E5, size: 0x8, addend: 0x0, symName: '__ZN5ahash8hash_set17AHashSet$LT$T$GT$3new17h94b4dddb0a03fe94E', symObjAddr: 0x0, symBinAddr: 0x2205C, symSize: 0x4C }
  - { offset: 0x9B141, size: 0x8, addend: 0x0, symName: '__ZN82_$LT$ahash..hash_set..AHashSet$LT$T$C$S$GT$$u20$as$u20$core..ops..deref..Deref$GT$5deref17h5428f84360d121b3E', symObjAddr: 0x4C, symBinAddr: 0x220A8, symSize: 0x14 }
  - { offset: 0x9B185, size: 0x8, addend: 0x0, symName: '__ZN85_$LT$ahash..hash_set..AHashSet$LT$T$C$S$GT$$u20$as$u20$core..ops..deref..DerefMut$GT$9deref_mut17h42a2f321acc0542bE', symObjAddr: 0x60, symBinAddr: 0x220BC, symSize: 0x14 }
  - { offset: 0x9B3EC, size: 0x8, addend: 0x0, symName: '__ZN5ahash8hash_set17AHashSet$LT$T$GT$3new17h94b4dddb0a03fe94E', symObjAddr: 0x0, symBinAddr: 0x2205C, symSize: 0x4C }
  - { offset: 0x9B45B, size: 0x8, addend: 0x0, symName: __ZN11biospy_core3seq13is_valid_base17hedbb8343b606ac4bE, symObjAddr: 0x0, symBinAddr: 0x220D0, symSize: 0x34 }
  - { offset: 0x9B472, size: 0x8, addend: 0x0, symName: __ZN11biospy_core3seq13is_valid_base17hedbb8343b606ac4bE, symObjAddr: 0x0, symBinAddr: 0x220D0, symSize: 0x34 }
  - { offset: 0x9B49E, size: 0x8, addend: 0x0, symName: __ZN11biospy_core3seq15count_ambiguous17hd71c69f09394cf0aE, symObjAddr: 0x34, symBinAddr: 0x22104, symSize: 0x30 }
  - { offset: 0x9B4CA, size: 0x8, addend: 0x0, symName: __ZN11biospy_core3seq15try_encode_base17hebbfa4e0c6e045fcE, symObjAddr: 0x64, symBinAddr: 0x22134, symSize: 0x10C }
  - { offset: 0x9B5C0, size: 0x8, addend: 0x0, symName: '__ZN11biospy_core4feat8Pipeline7extract28_$u7b$$u7b$closure$u7d$$u7d$17he8fdb25edcdfc565E', symObjAddr: 0x0, symBinAddr: 0x22240, symSize: 0x44 }
  - { offset: 0x9B5E1, size: 0x8, addend: 0x0, symName: '__ZN11biospy_core4feat8Pipeline7extract28_$u7b$$u7b$closure$u7d$$u7d$17he8fdb25edcdfc565E', symObjAddr: 0x0, symBinAddr: 0x22240, symSize: 0x44 }
  - { offset: 0x9B62A, size: 0x8, addend: 0x0, symName: '__ZN88_$LT$biospy_core..feat..BasicFeatures$u20$as$u20$biospy_core..feat..FeatureExtractor$GT$7extract28_$u7b$$u7b$closure$u7d$$u7d$17hab2a37b075716a07E', symObjAddr: 0x44, symBinAddr: 0x22284, symSize: 0x80 }
  - { offset: 0x9B8B5, size: 0x8, addend: 0x0, symName: __ZN4core4sync6atomic11atomic_load17h3a13f494c904de4aE, symObjAddr: 0x0, symBinAddr: 0x22304, symSize: 0xF8 }
  - { offset: 0x9B8FB, size: 0x8, addend: 0x0, symName: __ZN4core4sync6atomic11atomic_load17h3a13f494c904de4aE, symObjAddr: 0x0, symBinAddr: 0x22304, symSize: 0xF8 }
  - { offset: 0x9B941, size: 0x8, addend: 0x0, symName: __ZN4core4sync6atomic11atomic_load17h3bc1adad5b2d972eE, symObjAddr: 0xF8, symBinAddr: 0x223FC, symSize: 0xF8 }
  - { offset: 0x9BA71, size: 0x8, addend: 0x0, symName: __ZN4core4sync6atomic23atomic_compare_exchange17h404d15649acb8a1dE, symObjAddr: 0x2A8, symBinAddr: 0x225AC, symSize: 0x4B4 }
  - { offset: 0x9BB0C, size: 0x8, addend: 0x0, symName: __ZN4core4sync6atomic23atomic_compare_exchange17h949e76a5aa715ba9E, symObjAddr: 0x75C, symBinAddr: 0x22A60, symSize: 0x4B4 }
  - { offset: 0x9BD70, size: 0x8, addend: 0x0, symName: '__ZN4core4sync6atomic18AtomicPtr$LT$T$GT$16compare_exchange17ha96088cb2d7a32b9E', symObjAddr: 0x1F0, symBinAddr: 0x224F4, symSize: 0x38 }
  - { offset: 0x9BE0C, size: 0x8, addend: 0x0, symName: '__ZN4core4sync6atomic18AtomicPtr$LT$T$GT$16compare_exchange17he8b1ea35d65922ecE', symObjAddr: 0x228, symBinAddr: 0x2252C, symSize: 0x38 }
  - { offset: 0x9BE74, size: 0x8, addend: 0x0, symName: '__ZN4core4sync6atomic18AtomicPtr$LT$T$GT$4load17h03f20de5316460d2E', symObjAddr: 0x260, symBinAddr: 0x22564, symSize: 0x24 }
  - { offset: 0x9BEAF, size: 0x8, addend: 0x0, symName: '__ZN4core4sync6atomic18AtomicPtr$LT$T$GT$4load17h42c159780cdc5549E', symObjAddr: 0x284, symBinAddr: 0x22588, symSize: 0x24 }
  - { offset: 0x9BF43, size: 0x8, addend: 0x0, symName: __ZN4pyo33gil8GILGuard6python17hf3be80e5e166e85bE, symObjAddr: 0x0, symBinAddr: 0x22F14, symSize: 0x20 }
  - { offset: 0x9BFF3, size: 0x8, addend: 0x0, symName: __ZN4pyo33gil8GILGuard6python17hf3be80e5e166e85bE, symObjAddr: 0x0, symBinAddr: 0x22F14, symSize: 0x20 }
  - { offset: 0x9C033, size: 0x8, addend: 0x0, symName: __ZN3std2io7BufRead9read_line17h1cd45de2f0ac872fE, symObjAddr: 0x0, symBinAddr: 0x22F34, symSize: 0x38 }
  - { offset: 0x9C2A1, size: 0x8, addend: 0x0, symName: __ZN3std2io7BufRead9read_line17h1cd45de2f0ac872fE, symObjAddr: 0x0, symBinAddr: 0x22F34, symSize: 0x38 }
  - { offset: 0x9C3CC, size: 0x8, addend: 0x0, symName: '__ZN85_$LT$std..io..buffered..bufreader..BufReader$LT$R$GT$$u20$as$u20$std..io..BufRead$GT$7consume17ha6b675586c5c12ceE', symObjAddr: 0x10C, symBinAddr: 0x23040, symSize: 0x4C }
  - { offset: 0x9C459, size: 0x8, addend: 0x0, symName: '__ZN85_$LT$std..io..buffered..bufreader..BufReader$LT$R$GT$$u20$as$u20$std..io..BufRead$GT$8fill_buf17h489f8799b147c9e1E', symObjAddr: 0x158, symBinAddr: 0x2308C, symSize: 0x2C }
  - { offset: 0x9C7F5, size: 0x8, addend: 0x0, symName: '__ZN3std2io8buffered9bufreader18BufReader$LT$R$GT$13with_capacity17hd7d3b415b876bddcE', symObjAddr: 0x38, symBinAddr: 0x22F6C, symSize: 0xA8 }
  - { offset: 0x9C85D, size: 0x8, addend: 0x0, symName: '__ZN3std2io8buffered9bufreader18BufReader$LT$R$GT$3new17h24c6fed1556c5eb7E', symObjAddr: 0xE0, symBinAddr: 0x23014, symSize: 0x2C }
  - { offset: 0x9CA90, size: 0x8, addend: 0x0, symName: __ZN9getrandom11fill_uninit17hdd2391df1c6b3ec3E, symObjAddr: 0x0, symBinAddr: 0x230B8, symSize: 0xB4 }
  - { offset: 0x9CB0E, size: 0x8, addend: 0x0, symName: __ZN9getrandom11fill_uninit17hdd2391df1c6b3ec3E, symObjAddr: 0x0, symBinAddr: 0x230B8, symSize: 0xB4 }
  - { offset: 0x9CB74, size: 0x8, addend: 0x0, symName: __ZN9getrandom4fill17h527fa578b17c154dE, symObjAddr: 0xB4, symBinAddr: 0x2316C, symSize: 0xA8 }
  - { offset: 0x9CEF1, size: 0x8, addend: 0x0, symName: '__ZN51_$LT$T$u20$as$u20$ahash..specialize..CallHasher$GT$8get_hash17h9f2ffbef52c0e223E', symObjAddr: 0x0, symBinAddr: 0x23214, symSize: 0x50 }
  - { offset: 0x9CF0D, size: 0x8, addend: 0x0, symName: '__ZN51_$LT$T$u20$as$u20$ahash..specialize..CallHasher$GT$8get_hash17h9f2ffbef52c0e223E', symObjAddr: 0x0, symBinAddr: 0x23214, symSize: 0x50 }
  - { offset: 0x9D073, size: 0x8, addend: 0x0, symName: '__ZN73_$LT$pyo3..types..any..PyAny$u20$as$u20$pyo3..type_object..PyTypeInfo$GT$15type_object_raw17hf5fe315d8a6115f4E', symObjAddr: 0x0, symBinAddr: 0x23264, symSize: 0x24 }
  - { offset: 0x9E166, size: 0x8, addend: 0x0, symName: '__ZN73_$LT$pyo3..types..any..PyAny$u20$as$u20$pyo3..type_object..PyTypeInfo$GT$15type_object_raw17hf5fe315d8a6115f4E', symObjAddr: 0x0, symBinAddr: 0x23264, symSize: 0x24 }
  - { offset: 0x9E6D8, size: 0x8, addend: 0x0, symName: '__ZN4core4iter6traits8iterator8Iterator8for_each4call28_$u7b$$u7b$closure$u7d$$u7d$17h79e403a68b4c837fE', symObjAddr: 0x0, symBinAddr: 0x23288, symSize: 0x28 }
  - { offset: 0x9E708, size: 0x8, addend: 0x0, symName: '__ZN4core4iter6traits8iterator8Iterator8for_each4call28_$u7b$$u7b$closure$u7d$$u7d$17h79e403a68b4c837fE', symObjAddr: 0x0, symBinAddr: 0x23288, symSize: 0x28 }
  - { offset: 0x9E760, size: 0x8, addend: 0x0, symName: '__ZN4core4iter6traits8iterator8Iterator8for_each4call28_$u7b$$u7b$closure$u7d$$u7d$17hf9e4161e9d8e2c19E', symObjAddr: 0x28, symBinAddr: 0x232B0, symSize: 0x3C }
  - { offset: 0x9E9FE, size: 0x8, addend: 0x0, symName: __ZN9getrandom8backends10getentropy10fill_inner17hbf1bd8786a24b7ebE, symObjAddr: 0x0, symBinAddr: 0x232EC, symSize: 0xD4 }
  - { offset: 0x9EBA2, size: 0x8, addend: 0x0, symName: __ZN9getrandom8backends10getentropy10fill_inner17hbf1bd8786a24b7ebE, symObjAddr: 0x0, symBinAddr: 0x232EC, symSize: 0xD4 }
  - { offset: 0x9ECB8, size: 0x8, addend: 0x0, symName: '__ZN79_$LT$pyo3..types..string..PyString$u20$as$u20$pyo3..type_object..PyTypeInfo$GT$10is_type_of17hc3365118a0ed75eaE', symObjAddr: 0x0, symBinAddr: 0x233C0, symSize: 0x30 }
  - { offset: 0x9FE35, size: 0x8, addend: 0x0, symName: '__ZN79_$LT$pyo3..types..string..PyString$u20$as$u20$pyo3..type_object..PyTypeInfo$GT$10is_type_of17hc3365118a0ed75eaE', symObjAddr: 0x0, symBinAddr: 0x233C0, symSize: 0x30 }
  - { offset: 0xA0432, size: 0x8, addend: 0x0, symName: __ZN8pyo3_ffi7cpython10listobject15PyList_SET_ITEM17hb93cba3e62b27adbE, symObjAddr: 0x0, symBinAddr: 0x233F0, symSize: 0x110 }
  - { offset: 0xA0A14, size: 0x8, addend: 0x0, symName: __ZN8pyo3_ffi7cpython10listobject15PyList_SET_ITEM17hb93cba3e62b27adbE, symObjAddr: 0x0, symBinAddr: 0x233F0, symSize: 0x110 }
  - { offset: 0xA19EC, size: 0x8, addend: 0x0, symName: '__ZN4pyo311conversions3std3num63_$LT$impl$u20$pyo3..conversion..IntoPyObject$u20$for$u20$u8$GT$28owned_sequence_into_pyobject17h6bafebf66571a8daE', symObjAddr: 0x0, symBinAddr: 0x23500, symSize: 0x94 }
  - { offset: 0xA2E94, size: 0x8, addend: 0x0, symName: '__ZN4pyo311conversions3std3num63_$LT$impl$u20$pyo3..conversion..IntoPyObject$u20$for$u20$u8$GT$28owned_sequence_into_pyobject17h6bafebf66571a8daE', symObjAddr: 0x0, symBinAddr: 0x23500, symSize: 0x94 }
  - { offset: 0xA388A, size: 0x8, addend: 0x0, symName: '__ZN97_$LT$alloc..ffi..c_str..CString$u20$as$u20$core..borrow..Borrow$LT$core..ffi..c_str..CStr$GT$$GT$6borrow17hab5aa957000b4c3eE', symObjAddr: 0x0, symBinAddr: 0x23594, symSize: 0x20 }
  - { offset: 0xA3910, size: 0x8, addend: 0x0, symName: '__ZN97_$LT$alloc..ffi..c_str..CString$u20$as$u20$core..borrow..Borrow$LT$core..ffi..c_str..CStr$GT$$GT$6borrow17hab5aa957000b4c3eE', symObjAddr: 0x0, symBinAddr: 0x23594, symSize: 0x20 }
  - { offset: 0xA3A95, size: 0x8, addend: 0x0, symName: '__ZN77_$LT$pyo3..exceptions..PyIOError$u20$as$u20$pyo3..type_object..PyTypeInfo$GT$15type_object_raw17h58f44f7cf347e3ddE', symObjAddr: 0x0, symBinAddr: 0x235B4, symSize: 0x24 }
  - { offset: 0xA4B83, size: 0x8, addend: 0x0, symName: '__ZN77_$LT$pyo3..exceptions..PyIOError$u20$as$u20$pyo3..type_object..PyTypeInfo$GT$15type_object_raw17h58f44f7cf347e3ddE', symObjAddr: 0x0, symBinAddr: 0x235B4, symSize: 0x24 }
  - { offset: 0xA50F4, size: 0x8, addend: 0x0, symName: '__ZN4core3str21_$LT$impl$u20$str$GT$11starts_with17h455bf2eec0e30319E', symObjAddr: 0x0, symBinAddr: 0x235D8, symSize: 0x44 }
  - { offset: 0xA5110, size: 0x8, addend: 0x0, symName: '__ZN4core3str21_$LT$impl$u20$str$GT$11starts_with17h455bf2eec0e30319E', symObjAddr: 0x0, symBinAddr: 0x235D8, symSize: 0x44 }
  - { offset: 0xA518A, size: 0x8, addend: 0x0, symName: '__ZN4core3str21_$LT$impl$u20$str$GT$12trim_matches17h535a2b6a035755bfE', symObjAddr: 0x44, symBinAddr: 0x2361C, symSize: 0x108 }
  - { offset: 0xA5381, size: 0x8, addend: 0x0, symName: '__ZN4core3str21_$LT$impl$u20$str$GT$18trim_start_matches17h7ae9ee82ca4cd245E', symObjAddr: 0x14C, symBinAddr: 0x23724, symSize: 0xE8 }
  - { offset: 0xA58FF, size: 0x8, addend: 0x0, symName: '__ZN67_$LT$core..array..TryFromSliceError$u20$as$u20$core..fmt..Debug$GT$3fmt17h14b39359569fdd9cE', symObjAddr: 0x0, symBinAddr: 0x2380C, symSize: 0x54 }
  - { offset: 0xA5929, size: 0x8, addend: 0x0, symName: '__ZN67_$LT$core..array..TryFromSliceError$u20$as$u20$core..fmt..Debug$GT$3fmt17h14b39359569fdd9cE', symObjAddr: 0x0, symBinAddr: 0x2380C, symSize: 0x54 }
  - { offset: 0xA5AF9, size: 0x8, addend: 0x0, symName: __ZN4core4char7methods15encode_utf8_raw17h8347da3c63468e21E, symObjAddr: 0x0, symBinAddr: 0x23860, symSize: 0x100 }
  - { offset: 0xA5B67, size: 0x8, addend: 0x0, symName: __ZN4core4char7methods15encode_utf8_raw17h8347da3c63468e21E, symObjAddr: 0x0, symBinAddr: 0x23860, symSize: 0x100 }
  - { offset: 0xA5C88, size: 0x8, addend: 0x0, symName: '__ZN4core4char7methods22_$LT$impl$u20$char$GT$13is_whitespace17haedab4f04e233125E', symObjAddr: 0x100, symBinAddr: 0x23960, symSize: 0x90 }
  - { offset: 0xA5CEB, size: 0x8, addend: 0x0, symName: __ZN4core4char7methods25encode_utf8_raw_unchecked17hfb84e60a734b29c6E, symObjAddr: 0x190, symBinAddr: 0x239F0, symSize: 0x188 }
  - { offset: 0xA6036, size: 0x8, addend: 0x0, symName: __ZN4core9ub_checks23maybe_is_nonoverlapping7runtime17h83465ec911d1475aE, symObjAddr: 0x0, symBinAddr: 0x23B78, symSize: 0xD8 }
  - { offset: 0xA61BB, size: 0x8, addend: 0x0, symName: __ZN4core9ub_checks23maybe_is_nonoverlapping7runtime17h83465ec911d1475aE, symObjAddr: 0x0, symBinAddr: 0x23B78, symSize: 0xD8 }
  - { offset: 0xA63CE, size: 0x8, addend: 0x0, symName: '__ZN3std4path77_$LT$impl$u20$core..convert..AsRef$LT$std..path..Path$GT$$u20$for$u20$str$GT$6as_ref17h52354e798d127e50E', symObjAddr: 0x0, symBinAddr: 0x23C50, symSize: 0x18 }
  - { offset: 0xA63EA, size: 0x8, addend: 0x0, symName: '__ZN3std4path77_$LT$impl$u20$core..convert..AsRef$LT$std..path..Path$GT$$u20$for$u20$str$GT$6as_ref17h52354e798d127e50E', symObjAddr: 0x0, symBinAddr: 0x23C50, symSize: 0x18 }
  - { offset: 0xA641E, size: 0x8, addend: 0x0, symName: '__ZN79_$LT$std..path..Path$u20$as$u20$core..convert..AsRef$LT$std..path..Path$GT$$GT$6as_ref17h56e03e6d4d792040E', symObjAddr: 0x18, symBinAddr: 0x23C68, symSize: 0x18 }
  - { offset: 0xA6526, size: 0x8, addend: 0x0, symName: __ZN3std4sync4once4Once15call_once_force17h8bbc104875c7457bE, symObjAddr: 0x0, symBinAddr: 0x23C80, symSize: 0xEC }
  - { offset: 0xA655A, size: 0x8, addend: 0x0, symName: '__ZN3std4sync4once4Once15call_once_force28_$u7b$$u7b$closure$u7d$$u7d$17h32a0c3c07200e20cE', symObjAddr: 0x1C8, symBinAddr: 0x23E48, symSize: 0x84 }
  - { offset: 0xA65EC, size: 0x8, addend: 0x0, symName: '__ZN3std4sync4once4Once15call_once_force28_$u7b$$u7b$closure$u7d$$u7d$17ha54dc484baf276a5E', symObjAddr: 0x24C, symBinAddr: 0x23ECC, symSize: 0x70 }
  - { offset: 0xA6E94, size: 0x8, addend: 0x0, symName: __ZN3std4sync4once4Once15call_once_force17h8bbc104875c7457bE, symObjAddr: 0x0, symBinAddr: 0x23C80, symSize: 0xEC }
  - { offset: 0xA6F59, size: 0x8, addend: 0x0, symName: __ZN3std4sync4once4Once15call_once_force17h9f5049b290703ca3E, symObjAddr: 0xEC, symBinAddr: 0x23D6C, symSize: 0xDC }
  - { offset: 0xA70EC, size: 0x8, addend: 0x0, symName: '__ZN75_$LT$usize$u20$as$u20$core..slice..index..SliceIndex$LT$$u5b$T$u5d$$GT$$GT$5index17hd938cbc31d792648E', symObjAddr: 0x0, symBinAddr: 0x23F3C, symSize: 0x5C }
  - { offset: 0xA710D, size: 0x8, addend: 0x0, symName: '__ZN75_$LT$usize$u20$as$u20$core..slice..index..SliceIndex$LT$$u5b$T$u5d$$GT$$GT$5index17hd938cbc31d792648E', symObjAddr: 0x0, symBinAddr: 0x23F3C, symSize: 0x5C }
  - { offset: 0xA71B7, size: 0x8, addend: 0x0, symName: __ZN4core3ptr19swap_nonoverlapping17h1651f379374a81cdE, symObjAddr: 0x0, symBinAddr: 0x23F98, symSize: 0xBC }
  - { offset: 0xA7323, size: 0x8, addend: 0x0, symName: __ZN4core3ptr19swap_nonoverlapping17h1651f379374a81cdE, symObjAddr: 0x0, symBinAddr: 0x23F98, symSize: 0xBC }
  - { offset: 0xA749D, size: 0x8, addend: 0x0, symName: __ZN4core3ptr19swap_nonoverlapping17h99c34cb36409ba7fE, symObjAddr: 0xBC, symBinAddr: 0x24054, symSize: 0xC0 }
  - { offset: 0xA765C, size: 0x8, addend: 0x0, symName: __ZN4core3ptr4swap17h03bf475e11456040E, symObjAddr: 0x17C, symBinAddr: 0x24114, symSize: 0x120 }
  - { offset: 0xA77CA, size: 0x8, addend: 0x0, symName: __ZN4core3ptr4swap17h9353bc0bcdf5b498E, symObjAddr: 0x29C, symBinAddr: 0x24234, symSize: 0x128 }
  - { offset: 0xA78BE, size: 0x8, addend: 0x0, symName: __ZN4core3ptr5write17h9b6a885215fc01b6E, symObjAddr: 0x3C4, symBinAddr: 0x2435C, symSize: 0x2C }
  - { offset: 0xA7901, size: 0x8, addend: 0x0, symName: __ZN4core3ptr5write17hece0e38fcb3a2240E, symObjAddr: 0x3F0, symBinAddr: 0x24388, symSize: 0x2C }
  - { offset: 0xA84B2, size: 0x8, addend: 0x0, symName: __ZN4pyo35impl_10trampoline10trampoline17h07ead861a4d99db1E, symObjAddr: 0x0, symBinAddr: 0x243B4, symSize: 0x14C }
  - { offset: 0xA99B1, size: 0x8, addend: 0x0, symName: __ZN4pyo35impl_10trampoline10trampoline17h07ead861a4d99db1E, symObjAddr: 0x0, symBinAddr: 0x243B4, symSize: 0x14C }
  - { offset: 0xA9A53, size: 0x8, addend: 0x0, symName: __ZN4pyo35impl_10trampoline10trampoline17h8381364bbaf3986dE, symObjAddr: 0x14C, symBinAddr: 0x24500, symSize: 0x160 }
  - { offset: 0xA9AF7, size: 0x8, addend: 0x0, symName: __ZN4pyo35impl_10trampoline10trampoline17hcf521d2e9e7858c4E, symObjAddr: 0x2AC, symBinAddr: 0x24660, symSize: 0x158 }
  - { offset: 0xA9B9A, size: 0x8, addend: 0x0, symName: __ZN4pyo35impl_10trampoline10trampoline17hf310df76f9b576e3E, symObjAddr: 0x404, symBinAddr: 0x247B8, symSize: 0x15C }
  - { offset: 0xA9C42, size: 0x8, addend: 0x0, symName: '__ZN4pyo35impl_10trampoline10trampoline28_$u7b$$u7b$closure$u7d$$u7d$17h20fbe9003ee3ee24E', symObjAddr: 0x560, symBinAddr: 0x24914, symSize: 0x24 }
  - { offset: 0xA9C90, size: 0x8, addend: 0x0, symName: '__ZN4pyo35impl_10trampoline10trampoline28_$u7b$$u7b$closure$u7d$$u7d$17h2cfd182d61d2d477E', symObjAddr: 0x584, symBinAddr: 0x24938, symSize: 0x2C }
  - { offset: 0xA9CDE, size: 0x8, addend: 0x0, symName: '__ZN4pyo35impl_10trampoline10trampoline28_$u7b$$u7b$closure$u7d$$u7d$17h632d26148dc3b8c4E', symObjAddr: 0x5B0, symBinAddr: 0x24964, symSize: 0x34 }
  - { offset: 0xA9D2D, size: 0x8, addend: 0x0, symName: '__ZN4pyo35impl_10trampoline10trampoline28_$u7b$$u7b$closure$u7d$$u7d$17hba2a1cb1ef1791c1E', symObjAddr: 0x5E4, symBinAddr: 0x24998, symSize: 0x40 }
  - { offset: 0xA9D82, size: 0x8, addend: 0x0, symName: '__ZN4pyo35impl_10trampoline11module_init28_$u7b$$u7b$closure$u7d$$u7d$17h4831abb48bc05193E', symObjAddr: 0x624, symBinAddr: 0x249D8, symSize: 0x40 }
  - { offset: 0xA9DCE, size: 0x8, addend: 0x0, symName: '__ZN4pyo35impl_10trampoline11module_init28_$u7b$$u7b$closure$u7d$$u7d$28_$u7b$$u7b$closure$u7d$$u7d$17hbfc4bb0396a30150E', symObjAddr: 0x664, symBinAddr: 0x24A18, symSize: 0x24 }
  - { offset: 0xA9E20, size: 0x8, addend: 0x0, symName: __ZN4pyo35impl_10trampoline21trampoline_unraisable17h0b2b5cb3ced4ab0eE, symObjAddr: 0x688, symBinAddr: 0x24A3C, symSize: 0x218 }
  - { offset: 0xA9EC3, size: 0x8, addend: 0x0, symName: '__ZN4pyo35impl_10trampoline21trampoline_unraisable28_$u7b$$u7b$closure$u7d$$u7d$17h13d2d3d99bd62ca0E', symObjAddr: 0x8A0, symBinAddr: 0x24C54, symSize: 0x5C }
  - { offset: 0xA9F02, size: 0x8, addend: 0x0, symName: '__ZN4pyo35impl_10trampoline21trampoline_unraisable28_$u7b$$u7b$closure$u7d$$u7d$17h38094f0112d81d65E', symObjAddr: 0x8FC, symBinAddr: 0x24CB0, symSize: 0x2C }
  - { offset: 0xA9F54, size: 0x8, addend: 0x0, symName: '__ZN4pyo35impl_10trampoline22fastcall_with_keywords28_$u7b$$u7b$closure$u7d$$u7d$17hc7677a90420deddeE', symObjAddr: 0x928, symBinAddr: 0x24CDC, symSize: 0x48 }
  - { offset: 0xAA020, size: 0x8, addend: 0x0, symName: '__ZN4pyo35impl_10trampoline6noargs28_$u7b$$u7b$closure$u7d$$u7d$17h6c3b91a75f09d270E', symObjAddr: 0x970, symBinAddr: 0x24D24, symSize: 0x34 }
  - { offset: 0xAA09D, size: 0x8, addend: 0x0, symName: '__ZN4pyo35impl_10trampoline7dealloc28_$u7b$$u7b$closure$u7d$$u7d$17h32d4ac8de1ba1c2dE', symObjAddr: 0x9A4, symBinAddr: 0x24D58, symSize: 0x40 }
  - { offset: 0xAA11A, size: 0x8, addend: 0x0, symName: '__ZN4pyo35impl_10trampoline7newfunc28_$u7b$$u7b$closure$u7d$$u7d$17h051badc3658dfb8aE', symObjAddr: 0x9E4, symBinAddr: 0x24D98, symSize: 0x40 }
  - { offset: 0xAABF0, size: 0x8, addend: 0x0, symName: __ZN11biospy_core4feat12KmerFeatures3new17h33c2338311ee998fE, symObjAddr: 0x0, symBinAddr: 0x24DD8, symSize: 0x14 }
  - { offset: 0xAAC9F, size: 0x8, addend: 0x0, symName: '__ZN87_$LT$biospy_core..feat..KmerFeatures$u20$as$u20$biospy_core..feat..FeatureExtractor$GT$3dim17h3db005bbb667aed6E', symObjAddr: 0x120, symBinAddr: 0x24EF8, symSize: 0x18 }
  - { offset: 0xAACCB, size: 0x8, addend: 0x0, symName: '__ZN87_$LT$biospy_core..feat..KmerFeatures$u20$as$u20$biospy_core..feat..FeatureExtractor$GT$4name17h275747f44497b7acE', symObjAddr: 0x138, symBinAddr: 0x24F10, symSize: 0x20 }
  - { offset: 0xAACF7, size: 0x8, addend: 0x0, symName: '__ZN87_$LT$biospy_core..feat..KmerFeatures$u20$as$u20$biospy_core..feat..FeatureExtractor$GT$7extract17h7b5c97ba3ba3d44aE', symObjAddr: 0x158, symBinAddr: 0x24F30, symSize: 0x224 }
  - { offset: 0xAADBA, size: 0x8, addend: 0x0, symName: '__ZN88_$LT$biospy_core..feat..BasicFeatures$u20$as$u20$biospy_core..feat..FeatureExtractor$GT$3dim17h025186cd0a4475b1E', symObjAddr: 0x37C, symBinAddr: 0x25154, symSize: 0x18 }
  - { offset: 0xAADE6, size: 0x8, addend: 0x0, symName: '__ZN88_$LT$biospy_core..feat..BasicFeatures$u20$as$u20$biospy_core..feat..FeatureExtractor$GT$4name17h14246f850014e669E', symObjAddr: 0x394, symBinAddr: 0x2516C, symSize: 0x20 }
  - { offset: 0xAAE12, size: 0x8, addend: 0x0, symName: '__ZN88_$LT$biospy_core..feat..BasicFeatures$u20$as$u20$biospy_core..feat..FeatureExtractor$GT$7extract17hdd05821c70fe8eedE', symObjAddr: 0x3B4, symBinAddr: 0x2518C, symSize: 0x36C }
  - { offset: 0xAAF2B, size: 0x8, addend: 0x0, symName: __ZN11biospy_core4feat12KmerFeatures3new17h33c2338311ee998fE, symObjAddr: 0x0, symBinAddr: 0x24DD8, symSize: 0x14 }
  - { offset: 0xAB2FC, size: 0x8, addend: 0x0, symName: __ZN11biospy_core4feat8Pipeline3add17hd692ab9b728b360aE, symObjAddr: 0x14, symBinAddr: 0x24DEC, symSize: 0x78 }
  - { offset: 0xAB32D, size: 0x8, addend: 0x0, symName: __ZN11biospy_core4feat8Pipeline3new17h3d282390a9b92addE, symObjAddr: 0x8C, symBinAddr: 0x24E64, symSize: 0x38 }
  - { offset: 0xAB37B, size: 0x8, addend: 0x0, symName: __ZN11biospy_core4feat8Pipeline7extract17hcca836128c972ef2E, symObjAddr: 0xC4, symBinAddr: 0x24E9C, symSize: 0x5C }
  - { offset: 0xAB748, size: 0x8, addend: 0x0, symName: __ZN5alloc3fmt6format17h2aabaffa6193940aE, symObjAddr: 0x0, symBinAddr: 0x254F8, symSize: 0xD8 }
  - { offset: 0xABC60, size: 0x8, addend: 0x0, symName: __ZN5alloc3fmt6format17h2aabaffa6193940aE, symObjAddr: 0x0, symBinAddr: 0x254F8, symSize: 0xD8 }
  - { offset: 0xABE00, size: 0x8, addend: 0x0, symName: '__ZN4pyo34sync20GILOnceCell$LT$T$GT$15get_or_try_init17h4e00239e889e3d7aE', symObjAddr: 0x0, symBinAddr: 0x255D0, symSize: 0xB4 }
  - { offset: 0xAD6FD, size: 0x8, addend: 0x0, symName: '__ZN4pyo34sync20GILOnceCell$LT$T$GT$3set28_$u7b$$u7b$closure$u7d$$u7d$17hcab54439eb2498acE', symObjAddr: 0x2D4, symBinAddr: 0x258A4, symSize: 0x100 }
  - { offset: 0xAE17A, size: 0x8, addend: 0x0, symName: '__ZN4pyo34sync20GILOnceCell$LT$T$GT$15get_or_try_init17h4e00239e889e3d7aE', symObjAddr: 0x0, symBinAddr: 0x255D0, symSize: 0xB4 }
  - { offset: 0xAE1F3, size: 0x8, addend: 0x0, symName: '__ZN4pyo34sync20GILOnceCell$LT$T$GT$15get_or_try_init17h63b4ec49297d8a91E', symObjAddr: 0xB4, symBinAddr: 0x25684, symSize: 0xB4 }
  - { offset: 0xAE26C, size: 0x8, addend: 0x0, symName: '__ZN4pyo34sync20GILOnceCell$LT$T$GT$3get17ha3c9171312261f37E', symObjAddr: 0x168, symBinAddr: 0x25738, symSize: 0xA8 }
  - { offset: 0xAE2B0, size: 0x8, addend: 0x0, symName: '__ZN4pyo34sync20GILOnceCell$LT$T$GT$3set17he2acd38f0b15ca0eE', symObjAddr: 0x210, symBinAddr: 0x257E0, symSize: 0xC4 }
  - { offset: 0xAE443, size: 0x8, addend: 0x0, symName: '__ZN4pyo34sync20GILOnceCell$LT$T$GT$4init17h98ea3765276a32c5E', symObjAddr: 0x3D4, symBinAddr: 0x99B48, symSize: 0x1A0 }
  - { offset: 0xAE51A, size: 0x8, addend: 0x0, symName: '__ZN4pyo34sync20GILOnceCell$LT$T$GT$4init17ha616db6b146fe593E', symObjAddr: 0x574, symBinAddr: 0x99CE8, symSize: 0x1A0 }
  - { offset: 0xAE623, size: 0x8, addend: 0x0, symName: '__ZN5alloc7raw_vec19RawVec$LT$T$C$A$GT$8grow_one17h011bba6c4627dbdfE', symObjAddr: 0x0, symBinAddr: 0x259A4, symSize: 0x84 }
  - { offset: 0xAF0A0, size: 0x8, addend: 0x0, symName: '__ZN5alloc7raw_vec19RawVec$LT$T$C$A$GT$8grow_one17h011bba6c4627dbdfE', symObjAddr: 0x0, symBinAddr: 0x259A4, symSize: 0x84 }
  - { offset: 0xAF1A1, size: 0x8, addend: 0x0, symName: '__ZN5alloc7raw_vec19RawVec$LT$T$C$A$GT$8grow_one17h9e6c7e2b03909215E', symObjAddr: 0x84, symBinAddr: 0x25A28, symSize: 0x88 }
  - { offset: 0xAF27A, size: 0x8, addend: 0x0, symName: '__ZN5alloc7raw_vec19RawVec$LT$T$C$A$GT$8grow_one17hbcbfe4cf6126c572E', symObjAddr: 0x10C, symBinAddr: 0x25AB0, symSize: 0x88 }
  - { offset: 0xAF333, size: 0x8, addend: 0x0, symName: '__ZN5alloc7raw_vec19RawVec$LT$T$C$A$GT$8grow_one17hc754d25fadaf4bbaE', symObjAddr: 0x194, symBinAddr: 0x25B38, symSize: 0x84 }
  - { offset: 0xAF3E5, size: 0x8, addend: 0x0, symName: '__ZN5alloc7raw_vec19RawVec$LT$T$C$A$GT$8grow_one17hcb0d0dff00934aaeE', symObjAddr: 0x218, symBinAddr: 0x25BBC, symSize: 0x88 }
  - { offset: 0xAF611, size: 0x8, addend: 0x0, symName: '__ZN5alloc7raw_vec19RawVec$LT$T$C$A$GT$8into_box17h70576fde7bd2e3a4E', symObjAddr: 0x2A0, symBinAddr: 0x25C44, symSize: 0x7C }
  - { offset: 0xAF7DC, size: 0x8, addend: 0x0, symName: '__ZN102_$LT$core..slice..sort..unstable..quicksort..GapGuardRaw$LT$T$GT$$u20$as$u20$core..ops..drop..Drop$GT$4drop17h19f186c64e458c58E', symObjAddr: 0x0, symBinAddr: 0x25CC0, symSize: 0x80 }
  - { offset: 0xB0766, size: 0x8, addend: 0x0, symName: '__ZN4core3ptr101drop_in_place$LT$hashbrown..map..HashMap$LT$u64$C$$LP$$RP$$C$ahash..random_state..RandomState$GT$$GT$17h91111cf4c3e6000fE', symObjAddr: 0xB64, symBinAddr: 0x26764, symSize: 0x24 }
  - { offset: 0xB0795, size: 0x8, addend: 0x0, symName: '__ZN4core3ptr101drop_in_place$LT$pyo3..pyclass_init..PyClassInitializerImpl$LT$biospy_core..py..PyKmerCounter$GT$$GT$17h3293acb529df0700E', symObjAddr: 0xB88, symBinAddr: 0x26788, symSize: 0x54 }
  - { offset: 0xB07C4, size: 0x8, addend: 0x0, symName: '__ZN4core3ptr102drop_in_place$LT$alloc..boxed..Box$LT$$u5b$core..mem..maybe_uninit..MaybeUninit$LT$u8$GT$$u5d$$GT$$GT$17h4c27f03bcd42583fE', symObjAddr: 0xBDC, symBinAddr: 0x267DC, symSize: 0x2C }
  - { offset: 0xB07F3, size: 0x8, addend: 0x0, symName: '__ZN4core3ptr102drop_in_place$LT$core..option..Option$LT$pyo3..pycell..PyRef$LT$biospy_core..py..PyMinHash$GT$$GT$$GT$17hdfbb0d8b9793b7b1E', symObjAddr: 0xC08, symBinAddr: 0x26808, symSize: 0x44 }
  - { offset: 0xB0822, size: 0x8, addend: 0x0, symName: '__ZN4core3ptr103drop_in_place$LT$std..collections..hash..set..HashSet$LT$u64$C$ahash..random_state..RandomState$GT$$GT$17h7a471cfa2a352d9cE', symObjAddr: 0xC70, symBinAddr: 0x2684C, symSize: 0x24 }
  - { offset: 0xB0851, size: 0x8, addend: 0x0, symName: '__ZN4core3ptr105drop_in_place$LT$core..option..Option$LT$pyo3..pycell..PyRefMut$LT$biospy_core..py..PyMinHash$GT$$GT$$GT$17h4980e37933a0c83eE', symObjAddr: 0xCDC, symBinAddr: 0x26870, symSize: 0x44 }
  - { offset: 0xB0880, size: 0x8, addend: 0x0, symName: '__ZN4core3ptr105drop_in_place$LT$hashbrown..set..HashSet$LT$$LP$u8$C$u8$C$u8$RP$$C$std..hash..random..RandomState$GT$$GT$17hbb0e7819e58279d4E', symObjAddr: 0xD20, symBinAddr: 0x268B4, symSize: 0x24 }
  - { offset: 0xB08AF, size: 0x8, addend: 0x0, symName: '__ZN4core3ptr106drop_in_place$LT$core..option..Option$LT$pyo3..pycell..PyRef$LT$biospy_core..py..PyKmerCounter$GT$$GT$$GT$17hf42fc92cb8965285E', symObjAddr: 0xD44, symBinAddr: 0x268D8, symSize: 0x44 }
  - { offset: 0xB08DE, size: 0x8, addend: 0x0, symName: '__ZN4core3ptr108drop_in_place$LT$core..result..Result$LT$$LP$$RP$$C$alloc..borrow..Cow$LT$core..ffi..c_str..CStr$GT$$GT$$GT$17h50a0b2c085be1ac1E', symObjAddr: 0xD88, symBinAddr: 0x2691C, symSize: 0x44 }
  - { offset: 0xB090D, size: 0x8, addend: 0x0, symName: '__ZN4core3ptr108drop_in_place$LT$core..result..Result$LT$alloc..vec..Vec$LT$$LP$u64$C$u32$RP$$GT$$C$pyo3..err..PyErr$GT$$GT$17h845945166df9e4e7E', symObjAddr: 0xDCC, symBinAddr: 0x26960, symSize: 0x50 }
  - { offset: 0xB093C, size: 0x8, addend: 0x0, symName: '__ZN4core3ptr109drop_in_place$LT$core..option..Option$LT$pyo3..pycell..PyRefMut$LT$biospy_core..py..PyKmerCounter$GT$$GT$$GT$17h98878a7d32f5884bE', symObjAddr: 0xE7C, symBinAddr: 0x269B0, symSize: 0x44 }
  - { offset: 0xB096B, size: 0x8, addend: 0x0, symName: '__ZN4core3ptr109drop_in_place$LT$std..collections..hash..map..HashMap$LT$u64$C$u32$C$ahash..random_state..RandomState$GT$$GT$17hd9affb32019b9d5dE', symObjAddr: 0xEE4, symBinAddr: 0x269F4, symSize: 0x24 }
  - { offset: 0xB099A, size: 0x8, addend: 0x0, symName: '__ZN4core3ptr112drop_in_place$LT$alloc..vec..Vec$LT$alloc..boxed..Box$LT$dyn$u20$biospy_core..feat..FeatureExtractor$GT$$GT$$GT$17h7e056999717e1970E', symObjAddr: 0xF08, symBinAddr: 0x26A18, symSize: 0x5C }
  - { offset: 0xB09C9, size: 0x8, addend: 0x0, symName: '__ZN4core3ptr116drop_in_place$LT$core..result..Result$LT$alloc..vec..Vec$LT$alloc..vec..Vec$LT$u8$GT$$GT$$C$pyo3..err..PyErr$GT$$GT$17hc5719a673db19d8aE', symObjAddr: 0xF88, symBinAddr: 0x26A74, symSize: 0x50 }
  - { offset: 0xB09F8, size: 0x8, addend: 0x0, symName: '__ZN4core3ptr116drop_in_place$LT$hashbrown..map..HashMap$LT$$LP$u8$C$u8$C$u8$RP$$C$$LP$$RP$$C$std..hash..random..RandomState$GT$$GT$17hfee1722169c58a66E', symObjAddr: 0xFD8, symBinAddr: 0x26AC4, symSize: 0x24 }
  - { offset: 0xB0A27, size: 0x8, addend: 0x0, symName: '__ZN4core3ptr117drop_in_place$LT$biospy_core..io..FastaReader$LT$std..io..buffered..bufreader..BufReader$LT$std..fs..File$GT$$GT$$GT$17h3bb8094d7edd3e84E', symObjAddr: 0xFFC, symBinAddr: 0x26AE8, symSize: 0x8C }
  - { offset: 0xB0A56, size: 0x8, addend: 0x0, symName: '__ZN4core3ptr117drop_in_place$LT$biospy_core..io..FastqReader$LT$std..io..buffered..bufreader..BufReader$LT$std..fs..File$GT$$GT$$GT$17h4399b73dd32f609bE', symObjAddr: 0x1088, symBinAddr: 0x26B74, symSize: 0x5C }
  - { offset: 0xB0A85, size: 0x8, addend: 0x0, symName: '__ZN4core3ptr117drop_in_place$LT$core..result..Result$LT$alloc..vec..Vec$LT$alloc..vec..Vec$LT$f64$GT$$GT$$C$pyo3..err..PyErr$GT$$GT$17h3d71192dbe904852E', symObjAddr: 0x10E4, symBinAddr: 0x26BD0, symSize: 0x50 }
  - { offset: 0xB0AB4, size: 0x8, addend: 0x0, symName: '__ZN4core3ptr119drop_in_place$LT$alloc..raw_vec..RawVec$LT$alloc..boxed..Box$LT$dyn$u20$biospy_core..feat..FeatureExtractor$GT$$GT$$GT$17h14e91439c6147e93E', symObjAddr: 0x1134, symBinAddr: 0x26C20, symSize: 0x24 }
  - { offset: 0xB0AE3, size: 0x8, addend: 0x0, symName: '__ZN4core3ptr130drop_in_place$LT$pyo3..err..PyErr..new$LT$pyo3..exceptions..PyIOError$C$alloc..string..String$GT$..$u7b$$u7b$closure$u7d$$u7d$$GT$17h105c4e016486ea05E', symObjAddr: 0x1158, symBinAddr: 0x26C44, symSize: 0x24 }
  - { offset: 0xB0B12, size: 0x8, addend: 0x0, symName: '__ZN4core3ptr157drop_in_place$LT$$LT$alloc..vec..into_iter..IntoIter$LT$T$C$A$GT$$u20$as$u20$core..ops..drop..Drop$GT$..drop..DropGuard$LT$f64$C$alloc..alloc..Global$GT$$GT$17hcba2221a6f8f5052E', symObjAddr: 0x117C, symBinAddr: 0x26C68, symSize: 0x24 }
  - { offset: 0xB0B41, size: 0x8, addend: 0x0, symName: '__ZN4core3ptr171drop_in_place$LT$$LT$alloc..vec..into_iter..IntoIter$LT$T$C$A$GT$$u20$as$u20$core..ops..drop..Drop$GT$..drop..DropGuard$LT$$LP$u64$C$u32$RP$$C$alloc..alloc..Global$GT$$GT$17h5cd67fcf4822101dE', symObjAddr: 0x11A0, symBinAddr: 0x26C8C, symSize: 0x24 }
  - { offset: 0xB0B70, size: 0x8, addend: 0x0, symName: '__ZN4core3ptr179drop_in_place$LT$$LT$alloc..vec..into_iter..IntoIter$LT$T$C$A$GT$$u20$as$u20$core..ops..drop..Drop$GT$..drop..DropGuard$LT$alloc..vec..Vec$LT$u8$GT$$C$alloc..alloc..Global$GT$$GT$17h98adfb36370ac9e7E', symObjAddr: 0x11C4, symBinAddr: 0x26CB0, symSize: 0x24 }
  - { offset: 0xB0B9F, size: 0x8, addend: 0x0, symName: '__ZN4core3ptr180drop_in_place$LT$$LT$alloc..vec..into_iter..IntoIter$LT$T$C$A$GT$$u20$as$u20$core..ops..drop..Drop$GT$..drop..DropGuard$LT$alloc..vec..Vec$LT$f64$GT$$C$alloc..alloc..Global$GT$$GT$17hcf595b4b40dcb767E', symObjAddr: 0x11E8, symBinAddr: 0x26CD4, symSize: 0x24 }
  - { offset: 0xB0BCE, size: 0x8, addend: 0x0, symName: '__ZN4core3ptr238drop_in_place$LT$alloc..boxed..convert..$LT$impl$u20$core..convert..From$LT$alloc..string..String$GT$$u20$for$u20$alloc..boxed..Box$LT$dyn$u20$core..error..Error$u2b$core..marker..Send$u2b$core..marker..Sync$GT$$GT$..from..StringError$GT$17h661dd755f5d13594E', symObjAddr: 0x120C, symBinAddr: 0x26CF8, symSize: 0x24 }
  - { offset: 0xB0BFD, size: 0x8, addend: 0x0, symName: '__ZN4core3ptr250drop_in_place$LT$core..iter..adapters..map..Map$LT$alloc..vec..into_iter..IntoIter$LT$f64$GT$$C$$LT$f64$u20$as$u20$pyo3..conversion..IntoPyObject$GT$..owned_sequence_into_pyobject$LT$alloc..vec..Vec$LT$f64$GT$$GT$..$u7b$$u7b$closure$u7d$$u7d$$GT$$GT$17h244b7d50c0321194E', symObjAddr: 0x1230, symBinAddr: 0x26D1C, symSize: 0x24 }
  - { offset: 0xB0C2C, size: 0x8, addend: 0x0, symName: '__ZN4core3ptr263drop_in_place$LT$core..iter..adapters..flatten..FlatMap$LT$core..slice..iter..Iter$LT$alloc..boxed..Box$LT$dyn$u20$biospy_core..feat..FeatureExtractor$GT$$GT$$C$alloc..vec..Vec$LT$f64$GT$$C$biospy_core..feat..Pipeline..extract..$u7b$$u7b$closure$u7d$$u7d$$GT$$GT$17haf16f01b55a68c87E', symObjAddr: 0x1254, symBinAddr: 0x26D40, symSize: 0x24 }
  - { offset: 0xB0C5B, size: 0x8, addend: 0x0, symName: '__ZN4core3ptr273drop_in_place$LT$alloc..vec..Vec$LT$u8$GT$..extend_trusted$LT$core..iter..adapters..map..Map$LT$core..iter..adapters..rev..Rev$LT$core..slice..iter..Iter$LT$u8$GT$$GT$$C$biospy_core..kmer..canonical_hash..$u7b$$u7b$closure$u7d$$u7d$$GT$$GT$..$u7b$$u7b$closure$u7d$$u7d$$GT$17h6875f3598493c6adE', symObjAddr: 0x1278, symBinAddr: 0x26D64, symSize: 0x24 }
  - { offset: 0xB0C8A, size: 0x8, addend: 0x0, symName: '__ZN4core3ptr288drop_in_place$LT$alloc..vec..Vec$LT$alloc..vec..Vec$LT$f64$GT$$GT$..extend_trusted$LT$core..iter..adapters..map..Map$LT$core..slice..iter..Iter$LT$alloc..vec..Vec$LT$u8$GT$$GT$$C$biospy_core..py..extract_features_batch..$u7b$$u7b$closure$u7d$$u7d$$GT$$GT$..$u7b$$u7b$closure$u7d$$u7d$$GT$17h560fb1182c7f7a3eE', symObjAddr: 0x129C, symBinAddr: 0x26D88, symSize: 0x24 }
  - { offset: 0xB0CB9, size: 0x8, addend: 0x0, symName: '__ZN4core3ptr292drop_in_place$LT$core..iter..adapters..map..Map$LT$alloc..vec..into_iter..IntoIter$LT$$LP$u64$C$u32$RP$$GT$$C$$LT$$LP$u64$C$u32$RP$$u20$as$u20$pyo3..conversion..IntoPyObject$GT$..owned_sequence_into_pyobject$LT$alloc..vec..Vec$LT$$LP$u64$C$u32$RP$$GT$$GT$..$u7b$$u7b$closure$u7d$$u7d$$GT$$GT$17h0030c79b8b3b19f3E', symObjAddr: 0x12C0, symBinAddr: 0x26DAC, symSize: 0x24 }
  - { offset: 0xB0CE8, size: 0x8, addend: 0x0, symName: '__ZN4core3ptr316drop_in_place$LT$core..iter..adapters..map..Map$LT$alloc..vec..into_iter..IntoIter$LT$alloc..vec..Vec$LT$u8$GT$$GT$$C$$LT$alloc..vec..Vec$LT$u8$GT$$u20$as$u20$pyo3..conversion..IntoPyObject$GT$..owned_sequence_into_pyobject$LT$alloc..vec..Vec$LT$alloc..vec..Vec$LT$u8$GT$$GT$$GT$..$u7b$$u7b$closure$u7d$$u7d$$GT$$GT$17h9b2e76c63348f505E', symObjAddr: 0x12E4, symBinAddr: 0x26DD0, symSize: 0x24 }
  - { offset: 0xB0D17, size: 0x8, addend: 0x0, symName: '__ZN4core3ptr319drop_in_place$LT$core..iter..adapters..map..Map$LT$alloc..vec..into_iter..IntoIter$LT$alloc..vec..Vec$LT$f64$GT$$GT$$C$$LT$alloc..vec..Vec$LT$f64$GT$$u20$as$u20$pyo3..conversion..IntoPyObject$GT$..owned_sequence_into_pyobject$LT$alloc..vec..Vec$LT$alloc..vec..Vec$LT$f64$GT$$GT$$GT$..$u7b$$u7b$closure$u7d$$u7d$$GT$$GT$17hc311265cb07ac658E', symObjAddr: 0x1308, symBinAddr: 0x26DF4, symSize: 0x24 }
  - { offset: 0xB0D46, size: 0x8, addend: 0x0, symName: '__ZN4core3ptr323drop_in_place$LT$core..iter..adapters..flatten..FlattenCompat$LT$core..iter..adapters..map..Map$LT$core..slice..iter..Iter$LT$alloc..boxed..Box$LT$dyn$u20$biospy_core..feat..FeatureExtractor$GT$$GT$$C$biospy_core..feat..Pipeline..extract..$u7b$$u7b$closure$u7d$$u7d$$GT$$C$alloc..vec..into_iter..IntoIter$LT$f64$GT$$GT$$GT$17h8c30d32df89562e2E', symObjAddr: 0x132C, symBinAddr: 0x26E18, symSize: 0x64 }
  - { offset: 0xB0D75, size: 0x8, addend: 0x0, symName: '__ZN4core3ptr34drop_in_place$LT$std..fs..File$GT$17h52a094d793f757e2E', symObjAddr: 0x1390, symBinAddr: 0x26E7C, symSize: 0x24 }
  - { offset: 0xB0DA4, size: 0x8, addend: 0x0, symName: '__ZN4core3ptr35drop_in_place$LT$std..io..Guard$GT$17h0801b26f781863e1E', symObjAddr: 0x13B4, symBinAddr: 0x26EA0, symSize: 0x24 }
  - { offset: 0xB0DD3, size: 0x8, addend: 0x0, symName: '__ZN4core3ptr369drop_in_place$LT$core..iter..traits..iterator..Iterator..for_each..call$LT$u8$C$alloc..vec..Vec$LT$u8$GT$..extend_trusted$LT$core..iter..adapters..map..Map$LT$core..iter..adapters..rev..Rev$LT$core..slice..iter..Iter$LT$u8$GT$$GT$$C$biospy_core..kmer..canonical_hash..$u7b$$u7b$closure$u7d$$u7d$$GT$$GT$..$u7b$$u7b$closure$u7d$$u7d$$GT$..$u7b$$u7b$closure$u7d$$u7d$$GT$17h40b047bf393993deE', symObjAddr: 0x13D8, symBinAddr: 0x26EC4, symSize: 0x24 }
  - { offset: 0xB0E02, size: 0x8, addend: 0x0, symName: '__ZN4core3ptr408drop_in_place$LT$core..iter..traits..iterator..Iterator..for_each..call$LT$alloc..vec..Vec$LT$f64$GT$$C$alloc..vec..Vec$LT$alloc..vec..Vec$LT$f64$GT$$GT$..extend_trusted$LT$core..iter..adapters..map..Map$LT$core..slice..iter..Iter$LT$alloc..vec..Vec$LT$u8$GT$$GT$$C$biospy_core..py..extract_features_batch..$u7b$$u7b$closure$u7d$$u7d$$GT$$GT$..$u7b$$u7b$closure$u7d$$u7d$$GT$..$u7b$$u7b$closure$u7d$$u7d$$GT$17h54c352ec127839b5E', symObjAddr: 0x13FC, symBinAddr: 0x26EE8, symSize: 0x24 }
  - { offset: 0xB0E31, size: 0x8, addend: 0x0, symName: '__ZN4core3ptr45drop_in_place$LT$std..sys..fs..unix..File$GT$17hf366f621782e06d9E', symObjAddr: 0x1420, symBinAddr: 0x26F0C, symSize: 0x24 }
  - { offset: 0xB0E60, size: 0x8, addend: 0x0, symName: '__ZN4core3ptr47drop_in_place$LT$alloc..vec..Vec$LT$f64$GT$$GT$17h5dac2d3c2d74175aE', symObjAddr: 0x1444, symBinAddr: 0x26F30, symSize: 0x5C }
  - { offset: 0xB0E8F, size: 0x8, addend: 0x0, symName: '__ZN4core3ptr47drop_in_place$LT$alloc..vec..Vec$LT$u64$GT$$GT$17h8d50535cd6cb1cc8E', symObjAddr: 0x14A0, symBinAddr: 0x26F8C, symSize: 0x5C }
  - { offset: 0xB0EBE, size: 0x8, addend: 0x0, symName: '__ZN4core3ptr47drop_in_place$LT$biospy_core..py..PyMinHash$GT$17hd47b50493e5aff6dE', symObjAddr: 0x14FC, symBinAddr: 0x26FE8, symSize: 0x24 }
  - { offset: 0xB0EED, size: 0x8, addend: 0x0, symName: '__ZN4core3ptr48drop_in_place$LT$biospy_core..feat..Pipeline$GT$17h474037718d8258c8E', symObjAddr: 0x1520, symBinAddr: 0x2700C, symSize: 0x24 }
  - { offset: 0xB0F1C, size: 0x8, addend: 0x0, symName: '__ZN4core3ptr48drop_in_place$LT$std..os..fd..owned..OwnedFd$GT$17h5ecc776031a16348E', symObjAddr: 0x1544, symBinAddr: 0x27030, symSize: 0x24 }
  - { offset: 0xB0F4B, size: 0x8, addend: 0x0, symName: '__ZN4core3ptr49drop_in_place$LT$biospy_core..io..FastqRecord$GT$17h02caa323ef163326E', symObjAddr: 0x1568, symBinAddr: 0x27054, symSize: 0x90 }
  - { offset: 0xB0F7A, size: 0x8, addend: 0x0, symName: '__ZN4core3ptr49drop_in_place$LT$biospy_core..sketch..MinHash$GT$17hf30f79eb706660b0E', symObjAddr: 0x15F8, symBinAddr: 0x270E4, symSize: 0x60 }
  - { offset: 0xB0FA9, size: 0x8, addend: 0x0, symName: '__ZN4core3ptr49drop_in_place$LT$std..sys..fd..unix..FileDesc$GT$17h49d3c4e86ae6a531E', symObjAddr: 0x1658, symBinAddr: 0x27144, symSize: 0x24 }
  - { offset: 0xB0FD8, size: 0x8, addend: 0x0, symName: '__ZN4core3ptr51drop_in_place$LT$biospy_core..kmer..KmerCounter$GT$17hb07bd23169edfbcfE', symObjAddr: 0x167C, symBinAddr: 0x27168, symSize: 0x24 }
  - { offset: 0xB1007, size: 0x8, addend: 0x0, symName: '__ZN4core3ptr51drop_in_place$LT$biospy_core..py..PyKmerCounter$GT$17h104c931a5f8f3404E', symObjAddr: 0x16A0, symBinAddr: 0x2718C, symSize: 0x24 }
  - { offset: 0xB1036, size: 0x8, addend: 0x0, symName: '__ZN4core3ptr531drop_in_place$LT$core..iter..adapters..map..map_fold$LT$$RF$u8$C$u8$C$$LP$$RP$$C$biospy_core..kmer..canonical_hash..$u7b$$u7b$closure$u7d$$u7d$$C$core..iter..traits..iterator..Iterator..for_each..call$LT$u8$C$alloc..vec..Vec$LT$u8$GT$..extend_trusted$LT$core..iter..adapters..map..Map$LT$core..iter..adapters..rev..Rev$LT$core..slice..iter..Iter$LT$u8$GT$$GT$$C$biospy_core..kmer..canonical_hash..$u7b$$u7b$closure$u7d$$u7d$$GT$$GT$..$u7b$$u7b$closure$u7d$$u7d$$GT$..$u7b$$u7b$closure$u7d$$u7d$$GT$..$u7b$$u7b$closure$u7d$$u7d$$GT$17hc4f6033c6ed49c19E', symObjAddr: 0x16C4, symBinAddr: 0x271B0, symSize: 0x24 }
  - { offset: 0xB1065, size: 0x8, addend: 0x0, symName: '__ZN4core3ptr54drop_in_place$LT$alloc..raw_vec..RawVec$LT$f64$GT$$GT$17heb6af51aa6658e97E', symObjAddr: 0x170C, symBinAddr: 0x271D4, symSize: 0x24 }
  - { offset: 0xB1094, size: 0x8, addend: 0x0, symName: '__ZN4core3ptr54drop_in_place$LT$alloc..raw_vec..RawVec$LT$u64$GT$$GT$17he59424d0099cddfaE', symObjAddr: 0x1730, symBinAddr: 0x271F8, symSize: 0x24 }
  - { offset: 0xB10C3, size: 0x8, addend: 0x0, symName: '__ZN4core3ptr56drop_in_place$LT$$u5b$alloc..vec..Vec$LT$u8$GT$$u5d$$GT$17he5e2154d0db08c79E', symObjAddr: 0x1754, symBinAddr: 0x2721C, symSize: 0xC4 }
  - { offset: 0xB10F2, size: 0x8, addend: 0x0, symName: '__ZN4core3ptr57drop_in_place$LT$$u5b$alloc..vec..Vec$LT$f64$GT$$u5d$$GT$17h921b08d7f0fc9c9dE', symObjAddr: 0x1818, symBinAddr: 0x272E0, symSize: 0xC4 }
  - { offset: 0xB1121, size: 0x8, addend: 0x0, symName: '__ZN4core3ptr57drop_in_place$LT$ahash..hash_set..AHashSet$LT$u64$GT$$GT$17h4bba4ac46263b53dE', symObjAddr: 0x18DC, symBinAddr: 0x273A4, symSize: 0x24 }
  - { offset: 0xB1150, size: 0x8, addend: 0x0, symName: '__ZN4core3ptr61drop_in_place$LT$alloc..vec..Vec$LT$$LP$u64$C$u32$RP$$GT$$GT$17h68eb64f89654cb6cE', symObjAddr: 0x1924, symBinAddr: 0x273C8, symSize: 0x5C }
  - { offset: 0xB117F, size: 0x8, addend: 0x0, symName: '__ZN4core3ptr623drop_in_place$LT$core..iter..adapters..map..map_fold$LT$$RF$alloc..vec..Vec$LT$u8$GT$$C$alloc..vec..Vec$LT$f64$GT$$C$$LP$$RP$$C$biospy_core..py..extract_features_batch..$u7b$$u7b$closure$u7d$$u7d$$C$core..iter..traits..iterator..Iterator..for_each..call$LT$alloc..vec..Vec$LT$f64$GT$$C$alloc..vec..Vec$LT$alloc..vec..Vec$LT$f64$GT$$GT$..extend_trusted$LT$core..iter..adapters..map..Map$LT$core..slice..iter..Iter$LT$alloc..vec..Vec$LT$u8$GT$$GT$$C$biospy_core..py..extract_features_batch..$u7b$$u7b$closure$u7d$$u7d$$GT$$GT$..$u7b$$u7b$closure$u7d$$u7d$$GT$..$u7b$$u7b$closure$u7d$$u7d$$GT$..$u7b$$u7b$closure$u7d$$u7d$$GT$17ha6bf2b85a12fae1fE', symObjAddr: 0x1980, symBinAddr: 0x27424, symSize: 0x24 }
  - { offset: 0xB11AE, size: 0x8, addend: 0x0, symName: '__ZN4core3ptr63drop_in_place$LT$ahash..hash_map..AHashMap$LT$u64$C$u32$GT$$GT$17hc111464092912e58E', symObjAddr: 0x19A4, symBinAddr: 0x27448, symSize: 0x24 }
  - { offset: 0xB11DD, size: 0x8, addend: 0x0, symName: '__ZN4core3ptr63drop_in_place$LT$alloc..vec..into_iter..IntoIter$LT$f64$GT$$GT$17hd8b780201a122cf5E', symObjAddr: 0x19C8, symBinAddr: 0x2746C, symSize: 0x24 }
  - { offset: 0xB120C, size: 0x8, addend: 0x0, symName: '__ZN4core3ptr65drop_in_place$LT$std..io..buffered..bufreader..buffer..Buffer$GT$17h7ef837c59f240065E', symObjAddr: 0x1A34, symBinAddr: 0x27490, symSize: 0x24 }
  - { offset: 0xB123B, size: 0x8, addend: 0x0, symName: '__ZN4core3ptr68drop_in_place$LT$alloc..raw_vec..RawVec$LT$$LP$u64$C$u32$RP$$GT$$GT$17h95c4721296855ca8E', symObjAddr: 0x1A58, symBinAddr: 0x274B4, symSize: 0x24 }
  - { offset: 0xB126A, size: 0x8, addend: 0x0, symName: '__ZN4core3ptr69drop_in_place$LT$alloc..borrow..Cow$LT$core..ffi..c_str..CStr$GT$$GT$17h9e63e8188210e04fE', symObjAddr: 0x1A7C, symBinAddr: 0x274D8, symSize: 0x40 }
  - { offset: 0xB1299, size: 0x8, addend: 0x0, symName: '__ZN4core3ptr69drop_in_place$LT$alloc..collections..binary_heap..Hole$LT$u64$GT$$GT$17h487a7872a7f24b2fE', symObjAddr: 0x1ABC, symBinAddr: 0x27518, symSize: 0x24 }
  - { offset: 0xB12C8, size: 0x8, addend: 0x0, symName: '__ZN4core3ptr69drop_in_place$LT$alloc..vec..Vec$LT$alloc..vec..Vec$LT$u8$GT$$GT$$GT$17h6ee441a7d2a89f68E', symObjAddr: 0x1AE0, symBinAddr: 0x2753C, symSize: 0x5C }
  - { offset: 0xB12F7, size: 0x8, addend: 0x0, symName: '__ZN4core3ptr70drop_in_place$LT$alloc..vec..Vec$LT$alloc..vec..Vec$LT$f64$GT$$GT$$GT$17h501d1afef5302b81E', symObjAddr: 0x1B98, symBinAddr: 0x27598, symSize: 0x5C }
  - { offset: 0xB1326, size: 0x8, addend: 0x0, symName: '__ZN4core3ptr70drop_in_place$LT$hashbrown..raw..RawTable$LT$$LP$u64$C$u32$RP$$GT$$GT$17h80f8a1e00eed83f0E', symObjAddr: 0x1BF4, symBinAddr: 0x275F4, symSize: 0x24 }
  - { offset: 0xB1355, size: 0x8, addend: 0x0, symName: '__ZN4core3ptr71drop_in_place$LT$core..array..iter..IntoIter$LT$usize$C$2_usize$GT$$GT$17h6dcc2b07270605b4E', symObjAddr: 0x1C18, symBinAddr: 0x27618, symSize: 0x24 }
  - { offset: 0xB1384, size: 0x8, addend: 0x0, symName: '__ZN4core3ptr71drop_in_place$LT$core..result..Result$LT$f64$C$pyo3..err..PyErr$GT$$GT$17h2ad919a565ea811cE', symObjAddr: 0x1C3C, symBinAddr: 0x2763C, symSize: 0x40 }
  - { offset: 0xB13B3, size: 0x8, addend: 0x0, symName: '__ZN4core3ptr73drop_in_place$LT$core..result..Result$LT$usize$C$pyo3..err..PyErr$GT$$GT$17he0bc6ae720fe4886E', symObjAddr: 0x1C7C, symBinAddr: 0x2767C, symSize: 0x40 }
  - { offset: 0xB13E2, size: 0x8, addend: 0x0, symName: '__ZN4core3ptr73drop_in_place$LT$pyo3..instance..Py$LT$biospy_core..py..PyMinHash$GT$$GT$17hb871c7d1bf393928E', symObjAddr: 0x1CBC, symBinAddr: 0x276BC, symSize: 0x2C }
  - { offset: 0xB1411, size: 0x8, addend: 0x0, symName: '__ZN4core3ptr74drop_in_place$LT$pyo3..pycell..PyRef$LT$biospy_core..py..PyMinHash$GT$$GT$17hbc6f2d7b9223e2dcE', symObjAddr: 0x1CE8, symBinAddr: 0x276E8, symSize: 0x5C }
  - { offset: 0xB1440, size: 0x8, addend: 0x0, symName: '__ZN4core3ptr75drop_in_place$LT$alloc..collections..binary_heap..BinaryHeap$LT$u64$GT$$GT$17h7abf871a2ab8de29E', symObjAddr: 0x1D44, symBinAddr: 0x27744, symSize: 0x24 }
  - { offset: 0xB146F, size: 0x8, addend: 0x0, symName: '__ZN4core3ptr75drop_in_place$LT$hashbrown..raw..RawTable$LT$$LP$u64$C$$LP$$RP$$RP$$GT$$GT$17h53dec75de9117b64E', symObjAddr: 0x1D68, symBinAddr: 0x27768, symSize: 0x24 }
  - { offset: 0xB149E, size: 0x8, addend: 0x0, symName: '__ZN4core3ptr76drop_in_place$LT$alloc..raw_vec..RawVec$LT$alloc..vec..Vec$LT$u8$GT$$GT$$GT$17hfec30b0d93bc2747E', symObjAddr: 0x1D8C, symBinAddr: 0x2778C, symSize: 0x24 }
  - { offset: 0xB14CD, size: 0x8, addend: 0x0, symName: '__ZN4core3ptr76drop_in_place$LT$pyo3..instance..Bound$LT$biospy_core..py..PyMinHash$GT$$GT$17h6ccf615e236bebb1E', symObjAddr: 0x1DD4, symBinAddr: 0x277B0, symSize: 0x24 }
  - { offset: 0xB14FC, size: 0x8, addend: 0x0, symName: '__ZN4core3ptr77drop_in_place$LT$alloc..raw_vec..RawVec$LT$alloc..vec..Vec$LT$f64$GT$$GT$$GT$17h44e45ca7a6326f22E', symObjAddr: 0x1DF8, symBinAddr: 0x277D4, symSize: 0x24 }
  - { offset: 0xB152B, size: 0x8, addend: 0x0, symName: '__ZN4core3ptr77drop_in_place$LT$alloc..vec..into_iter..IntoIter$LT$$LP$u64$C$u32$RP$$GT$$GT$17h72e45c01de56f5e7E', symObjAddr: 0x1E1C, symBinAddr: 0x277F8, symSize: 0x24 }
  - { offset: 0xB155A, size: 0x8, addend: 0x0, symName: '__ZN4core3ptr77drop_in_place$LT$core..cell..UnsafeCell$LT$biospy_core..py..PyMinHash$GT$$GT$17hed49cb3ea41d8025E', symObjAddr: 0x1E40, symBinAddr: 0x2781C, symSize: 0x24 }
  - { offset: 0xB1589, size: 0x8, addend: 0x0, symName: '__ZN4core3ptr77drop_in_place$LT$pyo3..instance..Py$LT$biospy_core..py..PyKmerCounter$GT$$GT$17hdb1133d31a7c34d1E', symObjAddr: 0x1E64, symBinAddr: 0x27840, symSize: 0x2C }
  - { offset: 0xB15B8, size: 0x8, addend: 0x0, symName: '__ZN4core3ptr77drop_in_place$LT$pyo3..pycell..PyRefMut$LT$biospy_core..py..PyMinHash$GT$$GT$17ha0b8ee342f4f5736E', symObjAddr: 0x1E90, symBinAddr: 0x2786C, symSize: 0x5C }
  - { offset: 0xB15E7, size: 0x8, addend: 0x0, symName: '__ZN4core3ptr78drop_in_place$LT$core..result..Result$LT$usize$C$std..io..error..Error$GT$$GT$17he7455dad2529e118E', symObjAddr: 0x1EEC, symBinAddr: 0x278C8, symSize: 0x40 }
  - { offset: 0xB1616, size: 0x8, addend: 0x0, symName: '__ZN4core3ptr78drop_in_place$LT$pyo3..pycell..PyRef$LT$biospy_core..py..PyKmerCounter$GT$$GT$17h2f4492c5af0270baE', symObjAddr: 0x1F2C, symBinAddr: 0x27908, symSize: 0x5C }
  - { offset: 0xB1645, size: 0x8, addend: 0x0, symName: '__ZN4core3ptr80drop_in_place$LT$core..slice..sort..shared..smallsort..CopyOnDrop$LT$u64$GT$$GT$17hcde264162a1d94d4E', symObjAddr: 0x1F88, symBinAddr: 0x27964, symSize: 0x24 }
  - { offset: 0xB1674, size: 0x8, addend: 0x0, symName: '__ZN4core3ptr80drop_in_place$LT$pyo3..instance..Bound$LT$biospy_core..py..PyKmerCounter$GT$$GT$17hc9741a233bff878bE', symObjAddr: 0x203C, symBinAddr: 0x27988, symSize: 0x24 }
  - { offset: 0xB16A3, size: 0x8, addend: 0x0, symName: '__ZN4core3ptr81drop_in_place$LT$core..cell..UnsafeCell$LT$biospy_core..py..PyKmerCounter$GT$$GT$17h51fd3e273754c0a0E', symObjAddr: 0x2060, symBinAddr: 0x279AC, symSize: 0x24 }
  - { offset: 0xB16D2, size: 0x8, addend: 0x0, symName: '__ZN4core3ptr81drop_in_place$LT$core..result..Result$LT$$LP$$RP$$C$std..io..error..Error$GT$$GT$17h0a7338cd728aadb9E', symObjAddr: 0x2084, symBinAddr: 0x279D0, symSize: 0x44 }
  - { offset: 0xB1701, size: 0x8, addend: 0x0, symName: '__ZN4core3ptr81drop_in_place$LT$pyo3..pycell..PyRefMut$LT$biospy_core..py..PyKmerCounter$GT$$GT$17ha660ee4d53aae828E', symObjAddr: 0x20C8, symBinAddr: 0x27A14, symSize: 0x5C }
  - { offset: 0xB1730, size: 0x8, addend: 0x0, symName: '__ZN4core3ptr81drop_in_place$LT$std..io..buffered..bufreader..BufReader$LT$std..fs..File$GT$$GT$17hb69ca0d78e8824d4E', symObjAddr: 0x2124, symBinAddr: 0x27A70, symSize: 0x60 }
  - { offset: 0xB175F, size: 0x8, addend: 0x0, symName: '__ZN4core3ptr83drop_in_place$LT$core..slice..sort..unstable..quicksort..GapGuardRaw$LT$u64$GT$$GT$17h9d31dcdc50b185d0E', symObjAddr: 0x2184, symBinAddr: 0x27AD0, symSize: 0x24 }
  - { offset: 0xB178E, size: 0x8, addend: 0x0, symName: '__ZN4core3ptr85drop_in_place$LT$alloc..vec..into_iter..IntoIter$LT$alloc..vec..Vec$LT$u8$GT$$GT$$GT$17h075dad5f04b6dfa7E', symObjAddr: 0x21A8, symBinAddr: 0x27AF4, symSize: 0x24 }
  - { offset: 0xB17BD, size: 0x8, addend: 0x0, symName: '__ZN4core3ptr85drop_in_place$LT$std..collections..hash..set..HashSet$LT$$LP$u8$C$u8$C$u8$RP$$GT$$GT$17ha70ff5064e4ed897E', symObjAddr: 0x21CC, symBinAddr: 0x27B18, symSize: 0x24 }
  - { offset: 0xB17EC, size: 0x8, addend: 0x0, symName: '__ZN4core3ptr86drop_in_place$LT$alloc..vec..into_iter..IntoIter$LT$alloc..vec..Vec$LT$f64$GT$$GT$$GT$17h5ead4c8564f7698eE', symObjAddr: 0x21F0, symBinAddr: 0x27B3C, symSize: 0x24 }
  - { offset: 0xB181B, size: 0x8, addend: 0x0, symName: '__ZN4core3ptr89drop_in_place$LT$alloc..boxed..Box$LT$dyn$u20$biospy_core..feat..FeatureExtractor$GT$$GT$17h3839e87650214047E', symObjAddr: 0x2214, symBinAddr: 0x27B60, symSize: 0x80 }
  - { offset: 0xB184A, size: 0x8, addend: 0x0, symName: '__ZN4core3ptr89drop_in_place$LT$core..result..Result$LT$$RF$$u5b$u8$u5d$$C$std..io..error..Error$GT$$GT$17h83ffe6f8b43ffbd5E', symObjAddr: 0x22B8, symBinAddr: 0x27BE0, symSize: 0x4C }
  - { offset: 0xB1879, size: 0x8, addend: 0x0, symName: '__ZN4core3ptr90drop_in_place$LT$hashbrown..set..HashSet$LT$u64$C$ahash..random_state..RandomState$GT$$GT$17h0a90683ef3c55444E', symObjAddr: 0x2304, symBinAddr: 0x27C2C, symSize: 0x24 }
  - { offset: 0xB18A8, size: 0x8, addend: 0x0, symName: '__ZN4core3ptr91drop_in_place$LT$core..option..Option$LT$alloc..vec..into_iter..IntoIter$LT$f64$GT$$GT$$GT$17h05a9fa3c52e85f4fE', symObjAddr: 0x234C, symBinAddr: 0x27C50, symSize: 0x44 }
  - { offset: 0xB18D7, size: 0x8, addend: 0x0, symName: '__ZN4core3ptr92drop_in_place$LT$hashbrown..raw..RawTable$LT$$LP$$LP$u8$C$u8$C$u8$RP$$C$$LP$$RP$$RP$$GT$$GT$17h2154c94cc8d11999E', symObjAddr: 0x23B4, symBinAddr: 0x27C94, symSize: 0x24 }
  - { offset: 0xB1906, size: 0x8, addend: 0x0, symName: '__ZN4core3ptr93drop_in_place$LT$pyo3..pyclass_init..PyClassInitializer$LT$biospy_core..py..PyMinHash$GT$$GT$17hfd7bb350f7c9b73bE', symObjAddr: 0x23D8, symBinAddr: 0x27CB8, symSize: 0x24 }
  - { offset: 0xB1935, size: 0x8, addend: 0x0, symName: '__ZN4core3ptr93drop_in_place$LT$std..io..default_write_fmt..Adapter$LT$std..sys..stdio..unix..Stderr$GT$$GT$17hbee05e57a424d4d1E', symObjAddr: 0x23FC, symBinAddr: 0x27CDC, symSize: 0x24 }
  - { offset: 0xB1964, size: 0x8, addend: 0x0, symName: '__ZN4core3ptr94drop_in_place$LT$core..result..Result$LT$alloc..vec..Vec$LT$f64$GT$$C$pyo3..err..PyErr$GT$$GT$17he7b7626d4b502531E', symObjAddr: 0x2420, symBinAddr: 0x27D00, symSize: 0x50 }
  - { offset: 0xB1993, size: 0x8, addend: 0x0, symName: '__ZN4core3ptr94drop_in_place$LT$core..slice..sort..shared..smallsort..CopyOnDrop$LT$$LP$u64$C$u32$RP$$GT$$GT$17hbbc337f86d4a41f5E', symObjAddr: 0x2470, symBinAddr: 0x27D50, symSize: 0x24 }
  - { offset: 0xB19C2, size: 0x8, addend: 0x0, symName: '__ZN4core3ptr96drop_in_place$LT$hashbrown..map..HashMap$LT$u64$C$u32$C$ahash..random_state..RandomState$GT$$GT$17he7e19abfce68dc9aE', symObjAddr: 0x2494, symBinAddr: 0x27D74, symSize: 0x24 }
  - { offset: 0xB19F1, size: 0x8, addend: 0x0, symName: '__ZN4core3ptr97drop_in_place$LT$core..option..Option$LT$alloc..borrow..Cow$LT$core..ffi..c_str..CStr$GT$$GT$$GT$17he819beb15c9d963cE', symObjAddr: 0x24B8, symBinAddr: 0x27D98, symSize: 0x44 }
  - { offset: 0xB1A20, size: 0x8, addend: 0x0, symName: '__ZN4core3ptr97drop_in_place$LT$core..slice..sort..unstable..quicksort..GapGuardRaw$LT$$LP$u64$C$u32$RP$$GT$$GT$17h49f692c4404351c6E', symObjAddr: 0x24FC, symBinAddr: 0x27DDC, symSize: 0x24 }
  - { offset: 0xB1A4F, size: 0x8, addend: 0x0, symName: '__ZN4core3ptr97drop_in_place$LT$pyo3..pyclass_init..PyClassInitializer$LT$biospy_core..py..PyKmerCounter$GT$$GT$17haa6f58a12133ca14E', symObjAddr: 0x2520, symBinAddr: 0x27E00, symSize: 0x24 }
  - { offset: 0xB1A7E, size: 0x8, addend: 0x0, symName: '__ZN4core3ptr97drop_in_place$LT$pyo3..pyclass_init..PyClassInitializerImpl$LT$biospy_core..py..PyMinHash$GT$$GT$17ha9d7a90c2da1fbdfE', symObjAddr: 0x2544, symBinAddr: 0x27E24, symSize: 0x58 }
  - { offset: 0xB1AAD, size: 0x8, addend: 0x0, symName: '__ZN4core3ptr99drop_in_place$LT$$u5b$alloc..boxed..Box$LT$dyn$u20$biospy_core..feat..FeatureExtractor$GT$$u5d$$GT$17h837e92807b71d585E', symObjAddr: 0x259C, symBinAddr: 0x27E7C, symSize: 0xB4 }
  - { offset: 0xB1BA8, size: 0x8, addend: 0x0, symName: '__ZN102_$LT$core..slice..sort..unstable..quicksort..GapGuardRaw$LT$T$GT$$u20$as$u20$core..ops..drop..Drop$GT$4drop17h19f186c64e458c58E', symObjAddr: 0x0, symBinAddr: 0x25CC0, symSize: 0x80 }
  - { offset: 0xB1C01, size: 0x8, addend: 0x0, symName: '__ZN102_$LT$core..slice..sort..unstable..quicksort..GapGuardRaw$LT$T$GT$$u20$as$u20$core..ops..drop..Drop$GT$4drop17he7356c38ed4bbedfE', symObjAddr: 0x80, symBinAddr: 0x25D40, symSize: 0x84 }
  - { offset: 0xB1CC0, size: 0x8, addend: 0x0, symName: '__ZN99_$LT$core..slice..sort..shared..smallsort..CopyOnDrop$LT$T$GT$$u20$as$u20$core..ops..drop..Drop$GT$4drop17h8b91c6b8b5642fd4E', symObjAddr: 0x3414, symBinAddr: 0x28AB8, symSize: 0x88 }
  - { offset: 0xB1D21, size: 0x8, addend: 0x0, symName: '__ZN99_$LT$core..slice..sort..shared..smallsort..CopyOnDrop$LT$T$GT$$u20$as$u20$core..ops..drop..Drop$GT$4drop17hdebe9fb6fe06a5feE', symObjAddr: 0x349C, symBinAddr: 0x28B40, symSize: 0x84 }
  - { offset: 0xB20E7, size: 0x8, addend: 0x0, symName: __ZN4core3ops8function5FnMut8call_mut17h59437f3f15a72a2fE, symObjAddr: 0x2B4, symBinAddr: 0x25F74, symSize: 0x28 }
  - { offset: 0xB212B, size: 0x8, addend: 0x0, symName: __ZN4core3ops8function5FnMut8call_mut17h80e147c1d363f3b1E, symObjAddr: 0x2DC, symBinAddr: 0x25F9C, symSize: 0x40 }
  - { offset: 0xB219A, size: 0x8, addend: 0x0, symName: '__ZN4core3ops8function6FnOnce40call_once$u7b$$u7b$vtable.shim$u7d$$u7d$17h1c4651e22b620544E', symObjAddr: 0x31C, symBinAddr: 0x25FDC, symSize: 0x38 }
  - { offset: 0xB21DE, size: 0x8, addend: 0x0, symName: '__ZN4core3ops8function6FnOnce40call_once$u7b$$u7b$vtable.shim$u7d$$u7d$17h1cef727c9046c29bE', symObjAddr: 0x354, symBinAddr: 0x26014, symSize: 0x38 }
  - { offset: 0xB2222, size: 0x8, addend: 0x0, symName: '__ZN4core3ops8function6FnOnce40call_once$u7b$$u7b$vtable.shim$u7d$$u7d$17h441c0bb3d33c3597E', symObjAddr: 0x38C, symBinAddr: 0x2604C, symSize: 0x30 }
  - { offset: 0xB2262, size: 0x8, addend: 0x0, symName: '__ZN4core3ops8function6FnOnce40call_once$u7b$$u7b$vtable.shim$u7d$$u7d$17h4b9b27d424e3abf9E', symObjAddr: 0x3BC, symBinAddr: 0x2607C, symSize: 0x38 }
  - { offset: 0xB22A6, size: 0x8, addend: 0x0, symName: '__ZN4core3ops8function6FnOnce40call_once$u7b$$u7b$vtable.shim$u7d$$u7d$17h78c0d718bb902d33E', symObjAddr: 0x3F4, symBinAddr: 0x260B4, symSize: 0x38 }
  - { offset: 0xB22EA, size: 0x8, addend: 0x0, symName: '__ZN4core3ops8function6FnOnce40call_once$u7b$$u7b$vtable.shim$u7d$$u7d$17h90bf72afa9783ab2E', symObjAddr: 0x42C, symBinAddr: 0x260EC, symSize: 0x38 }
  - { offset: 0xB232E, size: 0x8, addend: 0x0, symName: '__ZN4core3ops8function6FnOnce40call_once$u7b$$u7b$vtable.shim$u7d$$u7d$17h93a05c41a9ef1337E', symObjAddr: 0x464, symBinAddr: 0x26124, symSize: 0x30 }
  - { offset: 0xB236E, size: 0x8, addend: 0x0, symName: '__ZN4core3ops8function6FnOnce40call_once$u7b$$u7b$vtable.shim$u7d$$u7d$17hae49ded7caca3ef6E', symObjAddr: 0x494, symBinAddr: 0x26154, symSize: 0x24 }
  - { offset: 0xB23B2, size: 0x8, addend: 0x0, symName: '__ZN4core3ops8function6FnOnce40call_once$u7b$$u7b$vtable.shim$u7d$$u7d$17hee38ac0a0caadfeaE', symObjAddr: 0x4B8, symBinAddr: 0x26178, symSize: 0x38 }
  - { offset: 0xB23F6, size: 0x8, addend: 0x0, symName: '__ZN4core3ops8function6FnOnce40call_once$u7b$$u7b$vtable.shim$u7d$$u7d$17hf6956813abcd0950E', symObjAddr: 0x4F0, symBinAddr: 0x261B0, symSize: 0x38 }
  - { offset: 0xB243A, size: 0x8, addend: 0x0, symName: __ZN4core3ops8function6FnOnce9call_once17h1b81791f7cf4be63E, symObjAddr: 0x528, symBinAddr: 0x261E8, symSize: 0x58 }
  - { offset: 0xB247E, size: 0x8, addend: 0x0, symName: __ZN4core3ops8function6FnOnce9call_once17h2ac56f8b08c67c26E, symObjAddr: 0x5E0, symBinAddr: 0x26240, symSize: 0x3C }
  - { offset: 0xB24C2, size: 0x8, addend: 0x0, symName: __ZN4core3ops8function6FnOnce9call_once17h37a99e7b93a21e63E, symObjAddr: 0x61C, symBinAddr: 0x2627C, symSize: 0x24 }
  - { offset: 0xB2506, size: 0x8, addend: 0x0, symName: __ZN4core3ops8function6FnOnce9call_once17h3c57ebcec56c2cb8E, symObjAddr: 0x640, symBinAddr: 0x262A0, symSize: 0x5C }
  - { offset: 0xB254A, size: 0x8, addend: 0x0, symName: __ZN4core3ops8function6FnOnce9call_once17h4045a22cb9175c18E, symObjAddr: 0x69C, symBinAddr: 0x262FC, symSize: 0x5C }
  - { offset: 0xB258E, size: 0x8, addend: 0x0, symName: __ZN4core3ops8function6FnOnce9call_once17h4a0af7b521431fbbE, symObjAddr: 0x6F8, symBinAddr: 0x26358, symSize: 0x24 }
  - { offset: 0xB25D2, size: 0x8, addend: 0x0, symName: __ZN4core3ops8function6FnOnce9call_once17h56cb775951bb83d7E, symObjAddr: 0x71C, symBinAddr: 0x2637C, symSize: 0x24 }
  - { offset: 0xB2616, size: 0x8, addend: 0x0, symName: __ZN4core3ops8function6FnOnce9call_once17h59d1bcc05149390cE, symObjAddr: 0x740, symBinAddr: 0x263A0, symSize: 0x58 }
  - { offset: 0xB265A, size: 0x8, addend: 0x0, symName: __ZN4core3ops8function6FnOnce9call_once17h8e4e9f7a794d7b24E, symObjAddr: 0x798, symBinAddr: 0x263F8, symSize: 0x4C }
  - { offset: 0xB269A, size: 0x8, addend: 0x0, symName: __ZN4core3ops8function6FnOnce9call_once17h9fa42b8be4ef7456E, symObjAddr: 0x7E4, symBinAddr: 0x26444, symSize: 0x20 }
  - { offset: 0xB26DE, size: 0x8, addend: 0x0, symName: __ZN4core3ops8function6FnOnce9call_once17ha401d22bc3d24ba4E, symObjAddr: 0x804, symBinAddr: 0x26464, symSize: 0x3C }
  - { offset: 0xB2722, size: 0x8, addend: 0x0, symName: __ZN4core3ops8function6FnOnce9call_once17ha4bfd0cccbbbf4e6E, symObjAddr: 0x840, symBinAddr: 0x264A0, symSize: 0x24 }
  - { offset: 0xB2766, size: 0x8, addend: 0x0, symName: __ZN4core3ops8function6FnOnce9call_once17hb3152ca60296c1daE, symObjAddr: 0x864, symBinAddr: 0x264C4, symSize: 0x4C }
  - { offset: 0xB27A6, size: 0x8, addend: 0x0, symName: __ZN4core3ops8function6FnOnce9call_once17hb442986bfd1faafdE, symObjAddr: 0x8B0, symBinAddr: 0x26510, symSize: 0x24 }
  - { offset: 0xB27EA, size: 0x8, addend: 0x0, symName: __ZN4core3ops8function6FnOnce9call_once17hb8d47821538c527aE, symObjAddr: 0x8D4, symBinAddr: 0x26534, symSize: 0x24 }
  - { offset: 0xB282E, size: 0x8, addend: 0x0, symName: __ZN4core3ops8function6FnOnce9call_once17hbd7adf279ee6d678E, symObjAddr: 0x8F8, symBinAddr: 0x26558, symSize: 0x24 }
  - { offset: 0xB2872, size: 0x8, addend: 0x0, symName: __ZN4core3ops8function6FnOnce9call_once17he27cdc0201f0bb9bE, symObjAddr: 0x958, symBinAddr: 0x2657C, symSize: 0x24 }
  - { offset: 0xB28B6, size: 0x8, addend: 0x0, symName: __ZN4core3ops8function6FnOnce9call_once17he8385532dfea17f8E, symObjAddr: 0x97C, symBinAddr: 0x265A0, symSize: 0x58 }
  - { offset: 0xB28FA, size: 0x8, addend: 0x0, symName: __ZN4core3ops8function6FnOnce9call_once17he8f3fddddeb88845E, symObjAddr: 0x9D4, symBinAddr: 0x265F8, symSize: 0x58 }
  - { offset: 0xB293E, size: 0x8, addend: 0x0, symName: __ZN4core3ops8function6FnOnce9call_once17hed7dc2e4fe4ee035E, symObjAddr: 0xA2C, symBinAddr: 0x26650, symSize: 0x4C }
  - { offset: 0xB2982, size: 0x8, addend: 0x0, symName: __ZN4core3ops8function6FnOnce9call_once17heeca20ef439bb070E, symObjAddr: 0xA78, symBinAddr: 0x2669C, symSize: 0x24 }
  - { offset: 0xB29C6, size: 0x8, addend: 0x0, symName: __ZN4core3ops8function6FnOnce9call_once17hef589b57d78ccebfE, symObjAddr: 0xA9C, symBinAddr: 0x266C0, symSize: 0x48 }
  - { offset: 0xB2A0A, size: 0x8, addend: 0x0, symName: __ZN4core3ops8function6FnOnce9call_once17hf905a5f2ac04abe9E, symObjAddr: 0xAE4, symBinAddr: 0x26708, symSize: 0x5C }
  - { offset: 0xB3CF3, size: 0x8, addend: 0x0, symName: '__ZN82_$LT$core..array..iter..IntoIter$LT$T$C$_$GT$$u20$as$u20$core..ops..drop..Drop$GT$4drop17h1327f585048885b2E', symObjAddr: 0x3084, symBinAddr: 0x28824, symSize: 0x14 }
  - { offset: 0xB4BF2, size: 0x8, addend: 0x0, symName: '__ZN69_$LT$std..os..fd..owned..OwnedFd$u20$as$u20$core..ops..drop..Drop$GT$4drop17hbc2df0d16aebeafaE', symObjAddr: 0x26C4, symBinAddr: 0x27F80, symSize: 0x40 }
  - { offset: 0xB5572, size: 0x8, addend: 0x0, symName: '__ZN77_$LT$alloc..raw_vec..RawVec$LT$T$C$A$GT$$u20$as$u20$core..ops..drop..Drop$GT$4drop17h11261a79204bd71aE', symObjAddr: 0x2E74, symBinAddr: 0x28644, symSize: 0x34 }
  - { offset: 0xB55AE, size: 0x8, addend: 0x0, symName: '__ZN77_$LT$alloc..raw_vec..RawVec$LT$T$C$A$GT$$u20$as$u20$core..ops..drop..Drop$GT$4drop17h2804df8f12c19107E', symObjAddr: 0x2EA8, symBinAddr: 0x28678, symSize: 0x34 }
  - { offset: 0xB55EA, size: 0x8, addend: 0x0, symName: '__ZN77_$LT$alloc..raw_vec..RawVec$LT$T$C$A$GT$$u20$as$u20$core..ops..drop..Drop$GT$4drop17h6ca8a76842c2e44aE', symObjAddr: 0x2EDC, symBinAddr: 0x286AC, symSize: 0x30 }
  - { offset: 0xB5626, size: 0x8, addend: 0x0, symName: '__ZN77_$LT$alloc..raw_vec..RawVec$LT$T$C$A$GT$$u20$as$u20$core..ops..drop..Drop$GT$4drop17h8a540b26bcf5999aE', symObjAddr: 0x2F0C, symBinAddr: 0x286DC, symSize: 0x34 }
  - { offset: 0xB5662, size: 0x8, addend: 0x0, symName: '__ZN77_$LT$alloc..raw_vec..RawVec$LT$T$C$A$GT$$u20$as$u20$core..ops..drop..Drop$GT$4drop17hda28c35df528c21bE', symObjAddr: 0x2F70, symBinAddr: 0x28710, symSize: 0x34 }
  - { offset: 0xB569E, size: 0x8, addend: 0x0, symName: '__ZN77_$LT$alloc..raw_vec..RawVec$LT$T$C$A$GT$$u20$as$u20$core..ops..drop..Drop$GT$4drop17he7101b315edffc78E', symObjAddr: 0x2FA4, symBinAddr: 0x28744, symSize: 0x30 }
  - { offset: 0xB5703, size: 0x8, addend: 0x0, symName: '__ZN157_$LT$$LT$alloc..vec..into_iter..IntoIter$LT$T$C$A$GT$$u20$as$u20$core..ops..drop..Drop$GT$..drop..DropGuard$LT$T$C$A$GT$$u20$as$u20$core..ops..drop..Drop$GT$4drop17h641561ef4b12ada0E', symObjAddr: 0x104, symBinAddr: 0x25DC4, symSize: 0x6C }
  - { offset: 0xB5846, size: 0x8, addend: 0x0, symName: '__ZN157_$LT$$LT$alloc..vec..into_iter..IntoIter$LT$T$C$A$GT$$u20$as$u20$core..ops..drop..Drop$GT$..drop..DropGuard$LT$T$C$A$GT$$u20$as$u20$core..ops..drop..Drop$GT$4drop17h6910c3add0f192b5E', symObjAddr: 0x170, symBinAddr: 0x25E30, symSize: 0x6C }
  - { offset: 0xB5989, size: 0x8, addend: 0x0, symName: '__ZN157_$LT$$LT$alloc..vec..into_iter..IntoIter$LT$T$C$A$GT$$u20$as$u20$core..ops..drop..Drop$GT$..drop..DropGuard$LT$T$C$A$GT$$u20$as$u20$core..ops..drop..Drop$GT$4drop17h7157031c888fe2bdE', symObjAddr: 0x1DC, symBinAddr: 0x25E9C, symSize: 0x6C }
  - { offset: 0xB5ACC, size: 0x8, addend: 0x0, symName: '__ZN157_$LT$$LT$alloc..vec..into_iter..IntoIter$LT$T$C$A$GT$$u20$as$u20$core..ops..drop..Drop$GT$..drop..DropGuard$LT$T$C$A$GT$$u20$as$u20$core..ops..drop..Drop$GT$4drop17hf6dbccf09269766eE', symObjAddr: 0x248, symBinAddr: 0x25F08, symSize: 0x6C }
  - { offset: 0xB5CAD, size: 0x8, addend: 0x0, symName: '__ZN86_$LT$alloc..vec..into_iter..IntoIter$LT$T$C$A$GT$$u20$as$u20$core..ops..drop..Drop$GT$4drop17h016dad04db1438e6E', symObjAddr: 0x3124, symBinAddr: 0x28838, symSize: 0x78 }
  - { offset: 0xB5CFF, size: 0x8, addend: 0x0, symName: '__ZN86_$LT$alloc..vec..into_iter..IntoIter$LT$T$C$A$GT$$u20$as$u20$core..ops..drop..Drop$GT$4drop17h5dd077981b624158E', symObjAddr: 0x319C, symBinAddr: 0x288B0, symSize: 0x64 }
  - { offset: 0xB5D51, size: 0x8, addend: 0x0, symName: '__ZN86_$LT$alloc..vec..into_iter..IntoIter$LT$T$C$A$GT$$u20$as$u20$core..ops..drop..Drop$GT$4drop17h93106e40d7a23f0eE', symObjAddr: 0x3200, symBinAddr: 0x28914, symSize: 0x78 }
  - { offset: 0xB5DA3, size: 0x8, addend: 0x0, symName: '__ZN86_$LT$alloc..vec..into_iter..IntoIter$LT$T$C$A$GT$$u20$as$u20$core..ops..drop..Drop$GT$4drop17hcbba67b4ddbd444cE', symObjAddr: 0x3278, symBinAddr: 0x2898C, symSize: 0x64 }
  - { offset: 0xB6071, size: 0x8, addend: 0x0, symName: '__ZN70_$LT$alloc..vec..Vec$LT$T$C$A$GT$$u20$as$u20$core..ops..drop..Drop$GT$4drop17h0f56c20c8d0e5256E', symObjAddr: 0x2704, symBinAddr: 0x27FC0, symSize: 0x24 }
  - { offset: 0xB6121, size: 0x8, addend: 0x0, symName: '__ZN70_$LT$alloc..vec..Vec$LT$T$C$A$GT$$u20$as$u20$core..ops..drop..Drop$GT$4drop17h4cdedd853d26af64E', symObjAddr: 0x2728, symBinAddr: 0x27FE4, symSize: 0x38 }
  - { offset: 0xB61D1, size: 0x8, addend: 0x0, symName: '__ZN70_$LT$alloc..vec..Vec$LT$T$C$A$GT$$u20$as$u20$core..ops..drop..Drop$GT$4drop17h884e3d118bd754b5E', symObjAddr: 0x2760, symBinAddr: 0x2801C, symSize: 0x38 }
  - { offset: 0xB6281, size: 0x8, addend: 0x0, symName: '__ZN70_$LT$alloc..vec..Vec$LT$T$C$A$GT$$u20$as$u20$core..ops..drop..Drop$GT$4drop17h9a291667a1e95d31E', symObjAddr: 0x2798, symBinAddr: 0x28054, symSize: 0x24 }
  - { offset: 0xB6331, size: 0x8, addend: 0x0, symName: '__ZN70_$LT$alloc..vec..Vec$LT$T$C$A$GT$$u20$as$u20$core..ops..drop..Drop$GT$4drop17hc79829263548b97fE', symObjAddr: 0x27BC, symBinAddr: 0x28078, symSize: 0x38 }
  - { offset: 0xB63E1, size: 0x8, addend: 0x0, symName: '__ZN70_$LT$alloc..vec..Vec$LT$T$C$A$GT$$u20$as$u20$core..ops..drop..Drop$GT$4drop17hd49f92daa2dc95f9E', symObjAddr: 0x27F4, symBinAddr: 0x280B0, symSize: 0x24 }
  - { offset: 0xB6678, size: 0x8, addend: 0x0, symName: '__ZN72_$LT$alloc..boxed..Box$LT$T$C$A$GT$$u20$as$u20$core..ops..drop..Drop$GT$4drop17h1d04f8b8f4e34152E', symObjAddr: 0x2894, symBinAddr: 0x2812C, symSize: 0xC4 }
  - { offset: 0xB67B1, size: 0x8, addend: 0x0, symName: '__ZN72_$LT$alloc..boxed..Box$LT$T$C$A$GT$$u20$as$u20$core..ops..drop..Drop$GT$4drop17h85a48e5ff56a9166E', symObjAddr: 0x2958, symBinAddr: 0x281F0, symSize: 0xBC }
  - { offset: 0xB6922, size: 0x8, addend: 0x0, symName: '__ZN88_$LT$alloc..collections..binary_heap..Hole$LT$T$GT$$u20$as$u20$core..ops..drop..Drop$GT$4drop17h48f2e6fd3e9078fbE', symObjAddr: 0x32DC, symBinAddr: 0x289F0, symSize: 0xC8 }
  - { offset: 0xB6E1E, size: 0x8, addend: 0x0, symName: '__ZN69_$LT$pyo3..instance..Py$LT$T$GT$$u20$as$u20$core..ops..drop..Drop$GT$4drop17h63d099cfa8d0936dE', symObjAddr: 0x2674, symBinAddr: 0x27F30, symSize: 0x28 }
  - { offset: 0xB6E51, size: 0x8, addend: 0x0, symName: '__ZN69_$LT$pyo3..instance..Py$LT$T$GT$$u20$as$u20$core..ops..drop..Drop$GT$4drop17hba391a976cd0364cE', symObjAddr: 0x269C, symBinAddr: 0x27F58, symSize: 0x28 }
  - { offset: 0xB6E8A, size: 0x8, addend: 0x0, symName: '__ZN72_$LT$pyo3..instance..Bound$LT$T$GT$$u20$as$u20$core..ops..drop..Drop$GT$4drop17h22f2ea2f7c901a05E', symObjAddr: 0x2A14, symBinAddr: 0x282AC, symSize: 0x1A0 }
  - { offset: 0xB6EF9, size: 0x8, addend: 0x0, symName: '__ZN72_$LT$pyo3..instance..Bound$LT$T$GT$$u20$as$u20$core..ops..drop..Drop$GT$4drop17h9511766f13201590E', symObjAddr: 0x2BB4, symBinAddr: 0x2844C, symSize: 0x1A0 }
  - { offset: 0xB7118, size: 0x8, addend: 0x0, symName: '__ZN70_$LT$pyo3..pycell..PyRef$LT$T$GT$$u20$as$u20$core..ops..drop..Drop$GT$4drop17h48b67cfdabf27a58E', symObjAddr: 0x283C, symBinAddr: 0x280D4, symSize: 0x2C }
  - { offset: 0xB714B, size: 0x8, addend: 0x0, symName: '__ZN70_$LT$pyo3..pycell..PyRef$LT$T$GT$$u20$as$u20$core..ops..drop..Drop$GT$4drop17h8e7f4ffbee5ec56aE', symObjAddr: 0x2868, symBinAddr: 0x28100, symSize: 0x2C }
  - { offset: 0xB7184, size: 0x8, addend: 0x0, symName: '__ZN73_$LT$pyo3..pycell..PyRefMut$LT$T$GT$$u20$as$u20$core..ops..drop..Drop$GT$4drop17h6ec374495d8ecc57E', symObjAddr: 0x2D54, symBinAddr: 0x285EC, symSize: 0x2C }
  - { offset: 0xB71B7, size: 0x8, addend: 0x0, symName: '__ZN73_$LT$pyo3..pycell..PyRefMut$LT$T$GT$$u20$as$u20$core..ops..drop..Drop$GT$4drop17ha0e371106e9788d5E', symObjAddr: 0x2D80, symBinAddr: 0x28618, symSize: 0x2C }
  - { offset: 0xB810E, size: 0x8, addend: 0x0, symName: '__ZN79_$LT$hashbrown..raw..RawTable$LT$T$C$A$GT$$u20$as$u20$core..ops..drop..Drop$GT$4drop17h35bc8d710c088da6E', symObjAddr: 0x2FD4, symBinAddr: 0x28774, symSize: 0x3C }
  - { offset: 0xB814A, size: 0x8, addend: 0x0, symName: '__ZN79_$LT$hashbrown..raw..RawTable$LT$T$C$A$GT$$u20$as$u20$core..ops..drop..Drop$GT$4drop17h4db2b0aaacdcda2dE', symObjAddr: 0x3010, symBinAddr: 0x287B0, symSize: 0x38 }
  - { offset: 0xB8186, size: 0x8, addend: 0x0, symName: '__ZN79_$LT$hashbrown..raw..RawTable$LT$T$C$A$GT$$u20$as$u20$core..ops..drop..Drop$GT$4drop17he30fd66211c0fff4E', symObjAddr: 0x3048, symBinAddr: 0x287E8, symSize: 0x3C }
  - { offset: 0xB96D0, size: 0x8, addend: 0x0, symName: '__ZN3std11collections4hash3set16HashSet$LT$T$GT$3new17he7985b94cfe0e96dE', symObjAddr: 0x0, symBinAddr: 0x28BC4, symSize: 0x54 }
  - { offset: 0xB9E28, size: 0x8, addend: 0x0, symName: '__ZN3std11collections4hash3set16HashSet$LT$T$GT$3new17he7985b94cfe0e96dE', symObjAddr: 0x0, symBinAddr: 0x28BC4, symSize: 0x54 }
  - { offset: 0xB9F1D, size: 0x8, addend: 0x0, symName: '__ZN3std11collections4hash3set20HashSet$LT$T$C$S$GT$11with_hasher17h52d6c78382b54812E', symObjAddr: 0x54, symBinAddr: 0x28C18, symSize: 0x80 }
  - { offset: 0xBA02E, size: 0x8, addend: 0x0, symName: '__ZN3std11collections4hash3set20HashSet$LT$T$C$S$GT$3len17h5eef7d8c548a599eE', symObjAddr: 0xD4, symBinAddr: 0x28C98, symSize: 0x18 }
  - { offset: 0xBA142, size: 0x8, addend: 0x0, symName: '__ZN3std11collections4hash3set20HashSet$LT$T$C$S$GT$6insert17h209dca012ede29f5E', symObjAddr: 0xEC, symBinAddr: 0x28CB0, symSize: 0x34 }
  - { offset: 0xBA264, size: 0x8, addend: 0x0, symName: '__ZN3std11collections4hash3set20HashSet$LT$T$C$S$GT$6insert17h9dfb052fc3dc1bf4E', symObjAddr: 0x120, symBinAddr: 0x28CE4, symSize: 0x68 }
  - { offset: 0xBA366, size: 0x8, addend: 0x0, symName: '__ZN3std11collections4hash3set20HashSet$LT$T$C$S$GT$6remove17h14f62dcc76c18ce6E', symObjAddr: 0x188, symBinAddr: 0x28D4C, symSize: 0x38 }
  - { offset: 0xBA44C, size: 0x8, addend: 0x0, symName: '__ZN3std11collections4hash3set20HashSet$LT$T$C$S$GT$8contains17h2e353ea9558f7d20E', symObjAddr: 0x1C0, symBinAddr: 0x28D84, symSize: 0x28 }
  - { offset: 0xBA4DC, size: 0x8, addend: 0x0, symName: '__ZN105_$LT$alloc..collections..binary_heap..Iter$LT$T$GT$$u20$as$u20$core..iter..traits..iterator..Iterator$GT$4next17h75a05ff532d24f50E', symObjAddr: 0x0, symBinAddr: 0x28DAC, symSize: 0x24 }
  - { offset: 0xBA4FD, size: 0x8, addend: 0x0, symName: '__ZN105_$LT$alloc..collections..binary_heap..Iter$LT$T$GT$$u20$as$u20$core..iter..traits..iterator..Iterator$GT$4next17h75a05ff532d24f50E', symObjAddr: 0x0, symBinAddr: 0x28DAC, symSize: 0x24 }
  - { offset: 0xBA534, size: 0x8, addend: 0x0, symName: '__ZN105_$LT$alloc..collections..binary_heap..Iter$LT$T$GT$$u20$as$u20$core..iter..traits..iterator..Iterator$GT$9size_hint17h14854265b5990c10E', symObjAddr: 0x24, symBinAddr: 0x28DD0, symSize: 0x60 }
  - { offset: 0xBA849, size: 0x8, addend: 0x0, symName: '__ZN5alloc11collections11binary_heap23BinaryHeap$LT$T$C$A$GT$3pop28_$u7b$$u7b$closure$u7d$$u7d$17h9365d418ca90df62E', symObjAddr: 0x59C, symBinAddr: 0x29348, symSize: 0x114 }
  - { offset: 0xBB6F8, size: 0x8, addend: 0x0, symName: __ZN4core4iter6traits8iterator8Iterator6copied17h0cdf6682c27fa9a4E, symObjAddr: 0x84, symBinAddr: 0x28E30, symSize: 0x1C }
  - { offset: 0xBB9F5, size: 0x8, addend: 0x0, symName: '__ZN5alloc11collections11binary_heap19BinaryHeap$LT$T$GT$13with_capacity17h0cb6b4b9ba78b7b2E', symObjAddr: 0xA0, symBinAddr: 0x28E4C, symSize: 0x50 }
  - { offset: 0xBBD1B, size: 0x8, addend: 0x0, symName: '__ZN5alloc11collections11binary_heap23BinaryHeap$LT$T$C$A$GT$19sift_down_to_bottom17h0cadb73d05ebc43aE', symObjAddr: 0xF0, symBinAddr: 0x28E9C, symSize: 0x41C }
  - { offset: 0xBC2E6, size: 0x8, addend: 0x0, symName: '__ZN5alloc11collections11binary_heap23BinaryHeap$LT$T$C$A$GT$3len17hd41f03de85e37292E', symObjAddr: 0x50C, symBinAddr: 0x292B8, symSize: 0x18 }
  - { offset: 0xBC379, size: 0x8, addend: 0x0, symName: '__ZN5alloc11collections11binary_heap23BinaryHeap$LT$T$C$A$GT$3pop17hcc4b37c61660fa6dE', symObjAddr: 0x524, symBinAddr: 0x292D0, symSize: 0x78 }
  - { offset: 0xBC677, size: 0x8, addend: 0x0, symName: '__ZN5alloc11collections11binary_heap23BinaryHeap$LT$T$C$A$GT$4iter17h10a3e9c4296dc904E', symObjAddr: 0x6B0, symBinAddr: 0x2945C, symSize: 0xA0 }
  - { offset: 0xBC94C, size: 0x8, addend: 0x0, symName: '__ZN5alloc11collections11binary_heap23BinaryHeap$LT$T$C$A$GT$4peek17ha2963c998c336332E', symObjAddr: 0x750, symBinAddr: 0x294FC, symSize: 0xA0 }
  - { offset: 0xBCB31, size: 0x8, addend: 0x0, symName: '__ZN5alloc11collections11binary_heap23BinaryHeap$LT$T$C$A$GT$4push17hf292d6d729efe4f1E', symObjAddr: 0x7F0, symBinAddr: 0x2959C, symSize: 0x50 }
  - { offset: 0xBCD7D, size: 0x8, addend: 0x0, symName: '__ZN5alloc11collections11binary_heap23BinaryHeap$LT$T$C$A$GT$7sift_up17h6579bce3ba48ce4eE', symObjAddr: 0x840, symBinAddr: 0x295EC, symSize: 0x250 }
  - { offset: 0xBD1B4, size: 0x8, addend: 0x0, symName: __ZN4core4iter6traits8iterator8Iterator3zip17h1280e14845d2bab6E, symObjAddr: 0x0, symBinAddr: 0x2983C, symSize: 0xB4 }
  - { offset: 0xBDAAB, size: 0x8, addend: 0x0, symName: __ZN4core4iter6traits8iterator8Iterator3zip17h1280e14845d2bab6E, symObjAddr: 0x0, symBinAddr: 0x2983C, symSize: 0xB4 }
  - { offset: 0xBDB21, size: 0x8, addend: 0x0, symName: __ZN4core4iter6traits8iterator8Iterator4take17h875c1952bac78900E, symObjAddr: 0xB4, symBinAddr: 0x298F0, symSize: 0x24 }
  - { offset: 0xBE950, size: 0x8, addend: 0x0, symName: '__ZN4pyo35types5tuple76_$LT$impl$u20$pyo3..conversion..IntoPyObject$u20$for$u20$$LP$T0$C$T1$RP$$GT$13into_pyobject17ha3e7e2706f68ec2eE', symObjAddr: 0xD8, symBinAddr: 0x29914, symSize: 0x1F4 }
  - { offset: 0xBF408, size: 0x8, addend: 0x0, symName: __ZN4core5slice4sort6shared5pivot11median3_rec17he31a245d47d6c793E, symObjAddr: 0x0, symBinAddr: 0x29B08, symSize: 0x1B8 }
  - { offset: 0xBF627, size: 0x8, addend: 0x0, symName: __ZN4core5slice4sort6shared5pivot11median3_rec17he31a245d47d6c793E, symObjAddr: 0x0, symBinAddr: 0x29B08, symSize: 0x1B8 }
  - { offset: 0xBF8A4, size: 0x8, addend: 0x0, symName: __ZN4core5slice4sort6shared5pivot11median3_rec17hf813a309764b0ff8E, symObjAddr: 0x1B8, symBinAddr: 0x29CC0, symSize: 0x1B8 }
  - { offset: 0xBFAA8, size: 0x8, addend: 0x0, symName: __ZN4core5slice4sort6shared5pivot12choose_pivot17h3afd525540d47651E, symObjAddr: 0x370, symBinAddr: 0x29E78, symSize: 0x238 }
  - { offset: 0xBFD3C, size: 0x8, addend: 0x0, symName: __ZN4core5slice4sort6shared5pivot12choose_pivot17h43bae6836d2cdd23E, symObjAddr: 0x5A8, symBinAddr: 0x2A0B0, symSize: 0x238 }
  - { offset: 0xC01F1, size: 0x8, addend: 0x0, symName: '__ZN9once_cell4race8once_box16OnceBox$LT$T$GT$11get_or_init17hb9a99f3a2c6956c3E', symObjAddr: 0x0, symBinAddr: 0x2A2E8, symSize: 0x2C }
  - { offset: 0xC03DB, size: 0x8, addend: 0x0, symName: '__ZN9once_cell4race8once_box16OnceBox$LT$T$GT$11get_or_init28_$u7b$$u7b$closure$u7d$$u7d$17h4ded92c971b4c101E', symObjAddr: 0x58, symBinAddr: 0x2A340, symSize: 0x1C }
  - { offset: 0xC041C, size: 0x8, addend: 0x0, symName: '__ZN9once_cell4race8once_box16OnceBox$LT$T$GT$11get_or_init28_$u7b$$u7b$closure$u7d$$u7d$17he52992b10cb758f3E', symObjAddr: 0x74, symBinAddr: 0x2A35C, symSize: 0x1C }
  - { offset: 0xC0A66, size: 0x8, addend: 0x0, symName: '__ZN9once_cell4race8once_box16OnceBox$LT$T$GT$11get_or_init17hb9a99f3a2c6956c3E', symObjAddr: 0x0, symBinAddr: 0x2A2E8, symSize: 0x2C }
  - { offset: 0xC0B2D, size: 0x8, addend: 0x0, symName: '__ZN9once_cell4race8once_box16OnceBox$LT$T$GT$11get_or_init17he0e993e1d65e912cE', symObjAddr: 0x2C, symBinAddr: 0x2A314, symSize: 0x2C }
  - { offset: 0xC0B71, size: 0x8, addend: 0x0, symName: '__ZN9once_cell4race8once_box16OnceBox$LT$T$GT$15get_or_try_init17h77aa72491c3b5e2bE', symObjAddr: 0x90, symBinAddr: 0x2A378, symSize: 0xC4 }
  - { offset: 0xC0BDC, size: 0x8, addend: 0x0, symName: '__ZN9once_cell4race8once_box16OnceBox$LT$T$GT$15get_or_try_init17h7fbda57b9c16b97cE', symObjAddr: 0x154, symBinAddr: 0x2A43C, symSize: 0xC4 }
  - { offset: 0xC0C47, size: 0x8, addend: 0x0, symName: '__ZN9once_cell4race8once_box16OnceBox$LT$T$GT$3get17h1603443ac336abb5E', symObjAddr: 0x218, symBinAddr: 0x2A500, symSize: 0x9C }
  - { offset: 0xC0C89, size: 0x8, addend: 0x0, symName: '__ZN9once_cell4race8once_box16OnceBox$LT$T$GT$3get17h62bea9c8249bdd5fE', symObjAddr: 0x2B4, symBinAddr: 0x2A59C, symSize: 0x9C }
  - { offset: 0xC0CCB, size: 0x8, addend: 0x0, symName: '__ZN9once_cell4race8once_box16OnceBox$LT$T$GT$4init17h1471d3303545c819E', symObjAddr: 0x350, symBinAddr: 0x99E88, symSize: 0x170 }
  - { offset: 0xC0DA6, size: 0x8, addend: 0x0, symName: '__ZN9once_cell4race8once_box16OnceBox$LT$T$GT$4init17he354e49f50fee706E', symObjAddr: 0x4C0, symBinAddr: 0x99FF8, symSize: 0x170 }
  - { offset: 0xC0E9F, size: 0x8, addend: 0x0, symName: __ZN4pyo311type_object10PyTypeInfo11type_object17h161b03e813759e45E, symObjAddr: 0x0, symBinAddr: 0x2A638, symSize: 0x30 }
  - { offset: 0xC2017, size: 0x8, addend: 0x0, symName: __ZN4pyo311type_object10PyTypeInfo11type_object17h161b03e813759e45E, symObjAddr: 0x0, symBinAddr: 0x2A638, symSize: 0x30 }
  - { offset: 0xC2068, size: 0x8, addend: 0x0, symName: '__ZN77_$LT$pyo3..exceptions..PyIOError$u20$as$u20$pyo3..type_object..PyTypeInfo$GT$15type_object_raw28_$u7b$$u7b$closure$u7d$$u7d$17h86a3c78e71a5c23bE', symObjAddr: 0x30, symBinAddr: 0x2A668, symSize: 0x4C }
  - { offset: 0xC26B4, size: 0x8, addend: 0x0, symName: '__ZN71_$LT$alloc..borrow..Cow$LT$B$GT$$u20$as$u20$core..ops..deref..Deref$GT$5deref17ha3b1e42181659e59E', symObjAddr: 0x0, symBinAddr: 0x2A6B4, symSize: 0x70 }
  - { offset: 0xC26D0, size: 0x8, addend: 0x0, symName: '__ZN71_$LT$alloc..borrow..Cow$LT$B$GT$$u20$as$u20$core..ops..deref..Deref$GT$5deref17ha3b1e42181659e59E', symObjAddr: 0x0, symBinAddr: 0x2A6B4, symSize: 0x70 }
  - { offset: 0xC2880, size: 0x8, addend: 0x0, symName: __ZN4core5alloc6layout6Layout25from_size_align_unchecked18precondition_check17h1b21e7245c183c63E, symObjAddr: 0x0, symBinAddr: 0x2A724, symSize: 0x70 }
  - { offset: 0xC28A6, size: 0x8, addend: 0x0, symName: __ZN4core5alloc6layout6Layout25from_size_align_unchecked18precondition_check17h1b21e7245c183c63E, symObjAddr: 0x0, symBinAddr: 0x2A724, symSize: 0x70 }
  - { offset: 0xC2951, size: 0x8, addend: 0x0, symName: '__ZN4core3cmp5impls48_$LT$impl$u20$core..cmp..Ord$u20$for$u20$u32$GT$3cmp17h3b8e5160b17261bfE', symObjAddr: 0x0, symBinAddr: 0x2A794, symSize: 0x38 }
  - { offset: 0xC2990, size: 0x8, addend: 0x0, symName: '__ZN4core3cmp5impls48_$LT$impl$u20$core..cmp..Ord$u20$for$u20$u32$GT$3cmp17h3b8e5160b17261bfE', symObjAddr: 0x0, symBinAddr: 0x2A794, symSize: 0x38 }
  - { offset: 0xC29D3, size: 0x8, addend: 0x0, symName: '__ZN4core3cmp5impls48_$LT$impl$u20$core..cmp..Ord$u20$for$u20$u64$GT$3cmp17h4c7bb8afa7636f8aE', symObjAddr: 0x38, symBinAddr: 0x2A7CC, symSize: 0x38 }
  - { offset: 0xC2A16, size: 0x8, addend: 0x0, symName: '__ZN4core3cmp5impls53_$LT$impl$u20$core..cmp..PartialEq$u20$for$u20$u8$GT$2eq17hd9ceddc644fe417eE', symObjAddr: 0x70, symBinAddr: 0x2A804, symSize: 0x2C }
  - { offset: 0xC2A59, size: 0x8, addend: 0x0, symName: '__ZN4core3cmp5impls54_$LT$impl$u20$core..cmp..PartialEq$u20$for$u20$u64$GT$2eq17hfdcd3dd951c5c90eE', symObjAddr: 0x9C, symBinAddr: 0x2A830, symSize: 0x2C }
  - { offset: 0xC2B02, size: 0x8, addend: 0x0, symName: __ZN4core5slice3raw14from_raw_parts18precondition_check17h76f957913a503575E, symObjAddr: 0x0, symBinAddr: 0x2A85C, symSize: 0x10C }
  - { offset: 0xC2CA1, size: 0x8, addend: 0x0, symName: __ZN4core5slice3raw14from_raw_parts18precondition_check17h76f957913a503575E, symObjAddr: 0x0, symBinAddr: 0x2A85C, symSize: 0x10C }
  - { offset: 0xC2DBD, size: 0x8, addend: 0x0, symName: __ZN4core5slice3raw18from_raw_parts_mut18precondition_check17hc850a831a970c386E, symObjAddr: 0x10C, symBinAddr: 0x2A968, symSize: 0x10C }
  - { offset: 0xC2F52, size: 0x8, addend: 0x0, symName: __ZN4core7unicode12unicode_data11white_space6lookup17h0d296ab06cb256a6E, symObjAddr: 0x0, symBinAddr: 0x2AA74, symSize: 0x14C }
  - { offset: 0xC2F73, size: 0x8, addend: 0x0, symName: __ZN4core7unicode12unicode_data11white_space6lookup17h0d296ab06cb256a6E, symObjAddr: 0x0, symBinAddr: 0x2AA74, symSize: 0x14C }
  - { offset: 0xC2FD1, size: 0x8, addend: 0x0, symName: __ZN4pyo35impl_10trampoline11module_init17hb6221bea7be573d5E, symObjAddr: 0x0, symBinAddr: 0x2ABC0, symSize: 0x28 }
  - { offset: 0xC4450, size: 0x8, addend: 0x0, symName: __ZN4pyo35impl_10trampoline11module_init17hb6221bea7be573d5E, symObjAddr: 0x0, symBinAddr: 0x2ABC0, symSize: 0x28 }
  - { offset: 0xC447C, size: 0x8, addend: 0x0, symName: __ZN4pyo35impl_10trampoline22fastcall_with_keywords17h0e6b32e37237b276E, symObjAddr: 0x28, symBinAddr: 0x2ABE8, symSize: 0x5C }
  - { offset: 0xC44E0, size: 0x8, addend: 0x0, symName: __ZN4pyo35impl_10trampoline6noargs17h81f8a50858bcd3f6E, symObjAddr: 0x84, symBinAddr: 0x2AC44, symSize: 0x64 }
  - { offset: 0xC4528, size: 0x8, addend: 0x0, symName: __ZN4pyo35impl_10trampoline7dealloc17h147d929b21073a5dE, symObjAddr: 0xE8, symBinAddr: 0x2ACA8, symSize: 0x34 }
  - { offset: 0xC455E, size: 0x8, addend: 0x0, symName: __ZN4pyo35impl_10trampoline7newfunc17h3c469bc315f6020eE, symObjAddr: 0x11C, symBinAddr: 0x2ACDC, symSize: 0x50 }
  - { offset: 0xC4EF9, size: 0x8, addend: 0x0, symName: '__ZN96_$LT$pyo3..pycell..impl_..BorrowChecker$u20$as$u20$pyo3..pycell..impl_..PyClassBorrowChecker$GT$3new17h72d8db9b45168660E', symObjAddr: 0x0, symBinAddr: 0x2AD2C, symSize: 0x40 }
  - { offset: 0xC4F1A, size: 0x8, addend: 0x0, symName: '__ZN96_$LT$pyo3..pycell..impl_..BorrowChecker$u20$as$u20$pyo3..pycell..impl_..PyClassBorrowChecker$GT$3new17h72d8db9b45168660E', symObjAddr: 0x0, symBinAddr: 0x2AD2C, symSize: 0x40 }
  - { offset: 0xC4FD5, size: 0x8, addend: 0x0, symName: __ZN4core4char7convert18from_u32_unchecked18precondition_check17hac87cee93602b7b6E, symObjAddr: 0x0, symBinAddr: 0x2AD6C, symSize: 0x7C }
  - { offset: 0xC505E, size: 0x8, addend: 0x0, symName: __ZN4core4char7convert18from_u32_unchecked18precondition_check17hac87cee93602b7b6E, symObjAddr: 0x0, symBinAddr: 0x2AD6C, symSize: 0x7C }
  - { offset: 0xC51D1, size: 0x8, addend: 0x0, symName: __ZN4core3cmp3Ord3min17h9bd4dd0e67fddf2bE, symObjAddr: 0x0, symBinAddr: 0x2ADE8, symSize: 0x74 }
  - { offset: 0xC5223, size: 0x8, addend: 0x0, symName: __ZN4core3cmp3Ord3min17h9bd4dd0e67fddf2bE, symObjAddr: 0x0, symBinAddr: 0x2ADE8, symSize: 0x74 }
  - { offset: 0xC52CD, size: 0x8, addend: 0x0, symName: '__ZN4core3str6traits108_$LT$impl$u20$core..slice..index..SliceIndex$LT$str$GT$$u20$for$u20$core..ops..range..Range$LT$usize$GT$$GT$13get_unchecked18precondition_check17h375bd77fc4731b3dE', symObjAddr: 0x0, symBinAddr: 0x2AE5C, symSize: 0x80 }
  - { offset: 0xC52F3, size: 0x8, addend: 0x0, symName: '__ZN4core3str6traits108_$LT$impl$u20$core..slice..index..SliceIndex$LT$str$GT$$u20$for$u20$core..ops..range..Range$LT$usize$GT$$GT$13get_unchecked18precondition_check17h375bd77fc4731b3dE', symObjAddr: 0x0, symBinAddr: 0x2AE5C, symSize: 0x80 }
  - { offset: 0xC53AC, size: 0x8, addend: 0x0, symName: __ZN5ahash13fallback_hash7AHasher17from_random_state17hba61477f65b4a92bE, symObjAddr: 0x0, symBinAddr: 0x2AEDC, symSize: 0x3C }
  - { offset: 0xC585C, size: 0x8, addend: 0x0, symName: '__ZN68_$LT$ahash..fallback_hash..AHasher$u20$as$u20$core..hash..Hasher$GT$11write_usize17ha6a96b2f7cd21d21E', symObjAddr: 0x3C, symBinAddr: 0x2AF18, symSize: 0x28 }
  - { offset: 0xC5892, size: 0x8, addend: 0x0, symName: '__ZN68_$LT$ahash..fallback_hash..AHasher$u20$as$u20$core..hash..Hasher$GT$5write17hf6b48dbd52be4f9eE', symObjAddr: 0x64, symBinAddr: 0x2AF40, symSize: 0xD20 }
  - { offset: 0xC653B, size: 0x8, addend: 0x0, symName: '__ZN68_$LT$ahash..fallback_hash..AHasher$u20$as$u20$core..hash..Hasher$GT$6finish17h9ea24aa5c352a06cE', symObjAddr: 0xD84, symBinAddr: 0x2BC60, symSize: 0x9C }
  - { offset: 0xC660D, size: 0x8, addend: 0x0, symName: '__ZN68_$LT$ahash..fallback_hash..AHasher$u20$as$u20$core..hash..Hasher$GT$9write_u6417hd89eaf674042a2fbE', symObjAddr: 0xE20, symBinAddr: 0x2BCFC, symSize: 0x94 }
  - { offset: 0xC6B22, size: 0x8, addend: 0x0, symName: __ZN5ahash13fallback_hash7AHasher17from_random_state17hba61477f65b4a92bE, symObjAddr: 0x0, symBinAddr: 0x2AEDC, symSize: 0x3C }
  - { offset: 0xC6E83, size: 0x8, addend: 0x0, symName: __ZN3std2io5error5Error3new17hdeb77d3b0f961b45E, symObjAddr: 0x0, symBinAddr: 0x2BD90, symSize: 0x4C }
  - { offset: 0xC7378, size: 0x8, addend: 0x0, symName: __ZN3std2io5error5Error3new17hdeb77d3b0f961b45E, symObjAddr: 0x0, symBinAddr: 0x2BD90, symSize: 0x4C }
  - { offset: 0xC73D2, size: 0x8, addend: 0x0, symName: __ZN4pyo311type_object10PyTypeInfo11type_object17h177a73a01a129a23E, symObjAddr: 0x0, symBinAddr: 0x2BDDC, symSize: 0x30 }
  - { offset: 0xC854A, size: 0x8, addend: 0x0, symName: __ZN4pyo311type_object10PyTypeInfo11type_object17h177a73a01a129a23E, symObjAddr: 0x0, symBinAddr: 0x2BDDC, symSize: 0x30 }
  - { offset: 0xC85A0, size: 0x8, addend: 0x0, symName: '__ZN73_$LT$pyo3..types..any..PyAny$u20$as$u20$pyo3..type_object..PyTypeInfo$GT$15type_object_raw28_$u7b$$u7b$closure$u7d$$u7d$17h2ea3ec91926c6928E', symObjAddr: 0x30, symBinAddr: 0x2BE0C, symSize: 0x18 }
  - { offset: 0xC8BC8, size: 0x8, addend: 0x0, symName: __ZN4pyo35types4none6PyNone3get17ha218c61837f3e357E, symObjAddr: 0x0, symBinAddr: 0x2BE24, symSize: 0x2C }
  - { offset: 0xCA309, size: 0x8, addend: 0x0, symName: __ZN4pyo35types4none6PyNone3get17ha218c61837f3e357E, symObjAddr: 0x0, symBinAddr: 0x2BE24, symSize: 0x2C }
  - { offset: 0xCA354, size: 0x8, addend: 0x0, symName: __ZN4core5slice6memchr6memchr17h7303c35d339e6b21E, symObjAddr: 0x0, symBinAddr: 0x2BE50, symSize: 0x114 }
  - { offset: 0xCA3A5, size: 0x8, addend: 0x0, symName: __ZN4core5slice6memchr6memchr17h7303c35d339e6b21E, symObjAddr: 0x0, symBinAddr: 0x2BE50, symSize: 0x114 }
  - { offset: 0xCA4D3, size: 0x8, addend: 0x0, symName: '__ZN106_$LT$pyo3..impl_..extract_argument..NoVarargs$u20$as$u20$pyo3..impl_..extract_argument..VarargsHandler$GT$20handle_varargs_tuple17h53835a393c61c6bcE', symObjAddr: 0x0, symBinAddr: 0x2BF64, symSize: 0xA0 }
  - { offset: 0xCBD80, size: 0x8, addend: 0x0, symName: '__ZN106_$LT$pyo3..impl_..extract_argument..NoVarargs$u20$as$u20$pyo3..impl_..extract_argument..VarargsHandler$GT$20handle_varargs_tuple17h53835a393c61c6bcE', symObjAddr: 0x0, symBinAddr: 0x2BF64, symSize: 0xA0 }
  - { offset: 0xCBDF9, size: 0x8, addend: 0x0, symName: '__ZN106_$LT$pyo3..impl_..extract_argument..NoVarargs$u20$as$u20$pyo3..impl_..extract_argument..VarargsHandler$GT$23handle_varargs_fastcall17hbbb556a20bb32b2cE', symObjAddr: 0xA0, symBinAddr: 0x2C004, symSize: 0xB4 }
  - { offset: 0xCBE6D, size: 0x8, addend: 0x0, symName: '__ZN114_$LT$pyo3..impl_..extract_argument..NoVarkeywords$u20$as$u20$pyo3..impl_..extract_argument..VarkeywordsHandler$GT$17handle_varkeyword17h1206237eb390942aE', symObjAddr: 0x154, symBinAddr: 0x2C0B8, symSize: 0x6C }
  - { offset: 0xCBFAC, size: 0x8, addend: 0x0, symName: __ZN4pyo35impl_16extract_argument24unwrap_required_argument17hf6839d30d01bad8fE, symObjAddr: 0x574, symBinAddr: 0x2C4D8, symSize: 0x58 }
  - { offset: 0xCC31F, size: 0x8, addend: 0x0, symName: __ZN4pyo35impl_16extract_argument19FunctionDescription36find_keyword_parameter_in_positional17h5be22d92c791d48aE, symObjAddr: 0x1C0, symBinAddr: 0x2C124, symSize: 0x5C }
  - { offset: 0xCC351, size: 0x8, addend: 0x0, symName: __ZN4pyo35impl_16extract_argument19FunctionDescription38find_keyword_parameter_in_keyword_only17h77a20d67f8daa7b2E, symObjAddr: 0x21C, symBinAddr: 0x2C180, symSize: 0x5C }
  - { offset: 0xCCA33, size: 0x8, addend: 0x0, symName: __ZN4pyo35impl_16extract_argument19FunctionDescription44ensure_no_missing_required_keyword_arguments17hd603ec50e2d7536eE, symObjAddr: 0x278, symBinAddr: 0x2C1DC, symSize: 0x160 }
  - { offset: 0xCCAFF, size: 0x8, addend: 0x0, symName: __ZN4pyo35impl_16extract_argument19FunctionDescription47ensure_no_missing_required_positional_arguments17hb87ae003f27f35f0E, symObjAddr: 0x3D8, symBinAddr: 0x2C33C, symSize: 0x19C }
  - { offset: 0xCCC94, size: 0x8, addend: 0x0, symName: __ZN8pyo3_ffi13unicodeobject15PyUnicode_Check17ha1ef373d0dcaebfcE, symObjAddr: 0x0, symBinAddr: 0x2C530, symSize: 0x30 }
  - { offset: 0xCCD2F, size: 0x8, addend: 0x0, symName: __ZN8pyo3_ffi13unicodeobject15PyUnicode_Check17ha1ef373d0dcaebfcE, symObjAddr: 0x0, symBinAddr: 0x2C530, symSize: 0x30 }
  - { offset: 0xCE1CC, size: 0x8, addend: 0x0, symName: '__ZN4core3ptr9const_ptr33_$LT$impl$u20$$BP$const$u20$T$GT$20offset_from_unsigned18precondition_check17h88e3e0fdd673db37E', symObjAddr: 0x0, symBinAddr: 0x2C560, symSize: 0x60 }
  - { offset: 0xCE1F2, size: 0x8, addend: 0x0, symName: '__ZN4core3ptr9const_ptr33_$LT$impl$u20$$BP$const$u20$T$GT$20offset_from_unsigned18precondition_check17h88e3e0fdd673db37E', symObjAddr: 0x0, symBinAddr: 0x2C560, symSize: 0x60 }
  - { offset: 0xCE2DB, size: 0x8, addend: 0x0, symName: '__ZN4core3ptr9const_ptr33_$LT$impl$u20$$BP$const$u20$T$GT$6offset18precondition_check17h900790e2a7eee942E', symObjAddr: 0x60, symBinAddr: 0x2C5C0, symSize: 0xC4 }
  - { offset: 0xCE6C2, size: 0x8, addend: 0x0, symName: __ZN4pyo35impl_9pymethods11tp_new_impl17h45757afb51c152adE, symObjAddr: 0x0, symBinAddr: 0x2C684, symSize: 0x6C }
  - { offset: 0xCEEB5, size: 0x8, addend: 0x0, symName: '__ZN50_$LT$T$u20$as$u20$core..convert..Into$LT$U$GT$$GT$4into17h970cb382eb5705bcE', symObjAddr: 0xD0, symBinAddr: 0x2C754, symSize: 0x24 }
  - { offset: 0xCFC18, size: 0x8, addend: 0x0, symName: __ZN4pyo35impl_9pymethods11tp_new_impl17h45757afb51c152adE, symObjAddr: 0x0, symBinAddr: 0x2C684, symSize: 0x6C }
  - { offset: 0xCFC7D, size: 0x8, addend: 0x0, symName: __ZN4pyo35impl_9pymethods11tp_new_impl17h9ac4c6bf29264c71E, symObjAddr: 0x6C, symBinAddr: 0x2C6F0, symSize: 0x64 }
  - { offset: 0xD0C0E, size: 0x8, addend: 0x0, symName: '__ZN4core5array102_$LT$impl$u20$core..convert..TryFrom$LT$$RF$$u5b$T$u5d$$GT$$u20$for$u20$$RF$$u5b$T$u3b$$u20$N$u5d$$GT$8try_from17h3591956ab2ed21d5E', symObjAddr: 0x0, symBinAddr: 0x2C778, symSize: 0x5C }
  - { offset: 0xD115F, size: 0x8, addend: 0x0, symName: '__ZN4core5array102_$LT$impl$u20$core..convert..TryFrom$LT$$RF$$u5b$T$u5d$$GT$$u20$for$u20$$RF$$u5b$T$u3b$$u20$N$u5d$$GT$8try_from17h3591956ab2ed21d5E', symObjAddr: 0x0, symBinAddr: 0x2C778, symSize: 0x5C }
  - { offset: 0xD1275, size: 0x8, addend: 0x0, symName: '__ZN4core5array102_$LT$impl$u20$core..convert..TryFrom$LT$$RF$$u5b$T$u5d$$GT$$u20$for$u20$$RF$$u5b$T$u3b$$u20$N$u5d$$GT$8try_from17h7022f2aaa8dd01e5E', symObjAddr: 0x5C, symBinAddr: 0x2C7D4, symSize: 0x5C }
  - { offset: 0xD138B, size: 0x8, addend: 0x0, symName: '__ZN4core5array102_$LT$impl$u20$core..convert..TryFrom$LT$$RF$$u5b$T$u5d$$GT$$u20$for$u20$$RF$$u5b$T$u3b$$u20$N$u5d$$GT$8try_from17h9fa7e2bedf128cffE', symObjAddr: 0xB8, symBinAddr: 0x2C830, symSize: 0x5C }
  - { offset: 0xD14A1, size: 0x8, addend: 0x0, symName: '__ZN4core5array102_$LT$impl$u20$core..convert..TryFrom$LT$$RF$$u5b$T$u5d$$GT$$u20$for$u20$$RF$$u5b$T$u3b$$u20$N$u5d$$GT$8try_from17hb25d6a7cb1c1d204E', symObjAddr: 0x114, symBinAddr: 0x2C88C, symSize: 0x5C }
  - { offset: 0xD15BD, size: 0x8, addend: 0x0, symName: '__ZN4core5array85_$LT$impl$u20$core..ops..index..Index$LT$I$GT$$u20$for$u20$$u5b$T$u3b$$u20$N$u5d$$GT$5index17h82d08f4344f66b6bE', symObjAddr: 0x170, symBinAddr: 0x2C8E8, symSize: 0xB0 }
  - { offset: 0xD1CD8, size: 0x8, addend: 0x0, symName: '__ZN102_$LT$core..str..iter..CharIndices$u20$as$u20$core..iter..traits..double_ended..DoubleEndedIterator$GT$9next_back17h1530f3db9e4940f3E', symObjAddr: 0x0, symBinAddr: 0x2C998, symSize: 0x14C }
  - { offset: 0xD1DBF, size: 0x8, addend: 0x0, symName: '__ZN102_$LT$core..str..iter..CharIndices$u20$as$u20$core..iter..traits..double_ended..DoubleEndedIterator$GT$9next_back17h1530f3db9e4940f3E', symObjAddr: 0x0, symBinAddr: 0x2C998, symSize: 0x14C }
  - { offset: 0xD1F6A, size: 0x8, addend: 0x0, symName: '__ZN87_$LT$core..str..iter..CharIndices$u20$as$u20$core..iter..traits..iterator..Iterator$GT$4next17h7124ba43f238acadE', symObjAddr: 0x14C, symBinAddr: 0x2CAE4, symSize: 0x118 }
  - { offset: 0xD2621, size: 0x8, addend: 0x0, symName: '__ZN103_$LT$pyo3..instance..Bound$LT$pyo3..types..any..PyAny$GT$$u20$as$u20$pyo3..types..any..PyAnyMethods$GT$14is_instance_of17h506cc5897e44bd18E', symObjAddr: 0x0, symBinAddr: 0x2CBFC, symSize: 0x24 }
  - { offset: 0xD2E53, size: 0x8, addend: 0x0, symName: '__ZN4core5slice29_$LT$impl$u20$$u5b$T$u5d$$GT$4iter17h2185bddee53709c8E', symObjAddr: 0x7B8, symBinAddr: 0x2D3B4, symSize: 0x28 }
  - { offset: 0xD467D, size: 0x8, addend: 0x0, symName: '__ZN63_$LT$I$u20$as$u20$core..iter..traits..collect..IntoIterator$GT$9into_iter17hb0cd5e1a55c2f612E', symObjAddr: 0xE90, symBinAddr: 0x2DA8C, symSize: 0x14 }
  - { offset: 0xD46E4, size: 0x8, addend: 0x0, symName: '__ZN103_$LT$pyo3..instance..Bound$LT$pyo3..types..any..PyAny$GT$$u20$as$u20$pyo3..types..any..PyAnyMethods$GT$14is_instance_of17h506cc5897e44bd18E', symObjAddr: 0x0, symBinAddr: 0x2CBFC, symSize: 0x24 }
  - { offset: 0xD471B, size: 0x8, addend: 0x0, symName: '__ZN103_$LT$pyo3..instance..Bound$LT$pyo3..types..any..PyAny$GT$$u20$as$u20$pyo3..types..any..PyAnyMethods$GT$18downcast_unchecked17h9eaa00a3521422b4E', symObjAddr: 0x24, symBinAddr: 0x2CC20, symSize: 0x74 }
  - { offset: 0xD4752, size: 0x8, addend: 0x0, symName: '__ZN103_$LT$pyo3..instance..Bound$LT$pyo3..types..any..PyAny$GT$$u20$as$u20$pyo3..types..any..PyAnyMethods$GT$18downcast_unchecked17hd6bd9dfa26e5e539E', symObjAddr: 0x98, symBinAddr: 0x2CC94, symSize: 0x74 }
  - { offset: 0xD4789, size: 0x8, addend: 0x0, symName: '__ZN103_$LT$pyo3..instance..Bound$LT$pyo3..types..any..PyAny$GT$$u20$as$u20$pyo3..types..any..PyAnyMethods$GT$23downcast_into_unchecked17h40a27ac387c4739dE', symObjAddr: 0x10C, symBinAddr: 0x2CD08, symSize: 0x14 }
  - { offset: 0xD47C0, size: 0x8, addend: 0x0, symName: '__ZN103_$LT$pyo3..instance..Bound$LT$pyo3..types..any..PyAny$GT$$u20$as$u20$pyo3..types..any..PyAnyMethods$GT$23downcast_into_unchecked17h52977dfc37d4732dE', symObjAddr: 0x120, symBinAddr: 0x2CD1C, symSize: 0x14 }
  - { offset: 0xD47F7, size: 0x8, addend: 0x0, symName: '__ZN103_$LT$pyo3..instance..Bound$LT$pyo3..types..any..PyAny$GT$$u20$as$u20$pyo3..types..any..PyAnyMethods$GT$7extract17h145c19580dfe6f06E', symObjAddr: 0x134, symBinAddr: 0x2CD30, symSize: 0x30 }
  - { offset: 0xD482E, size: 0x8, addend: 0x0, symName: '__ZN103_$LT$pyo3..instance..Bound$LT$pyo3..types..any..PyAny$GT$$u20$as$u20$pyo3..types..any..PyAnyMethods$GT$7extract17h1fe2ee2a462daa11E', symObjAddr: 0x164, symBinAddr: 0x2CD60, symSize: 0x30 }
  - { offset: 0xD4865, size: 0x8, addend: 0x0, symName: '__ZN103_$LT$pyo3..instance..Bound$LT$pyo3..types..any..PyAny$GT$$u20$as$u20$pyo3..types..any..PyAnyMethods$GT$7extract17h2d21f317f808caccE', symObjAddr: 0x194, symBinAddr: 0x2CD90, symSize: 0x30 }
  - { offset: 0xD489C, size: 0x8, addend: 0x0, symName: '__ZN103_$LT$pyo3..instance..Bound$LT$pyo3..types..any..PyAny$GT$$u20$as$u20$pyo3..types..any..PyAnyMethods$GT$7extract17h3d948ae6e055750fE', symObjAddr: 0x1C4, symBinAddr: 0x2CDC0, symSize: 0x30 }
  - { offset: 0xD48D3, size: 0x8, addend: 0x0, symName: '__ZN103_$LT$pyo3..instance..Bound$LT$pyo3..types..any..PyAny$GT$$u20$as$u20$pyo3..types..any..PyAnyMethods$GT$7extract17h622b9b63a7b82c05E', symObjAddr: 0x1F4, symBinAddr: 0x2CDF0, symSize: 0x30 }
  - { offset: 0xD490A, size: 0x8, addend: 0x0, symName: '__ZN103_$LT$pyo3..instance..Bound$LT$pyo3..types..any..PyAny$GT$$u20$as$u20$pyo3..types..any..PyAnyMethods$GT$7extract17h67d708de78b12fdcE', symObjAddr: 0x224, symBinAddr: 0x2CE20, symSize: 0x30 }
  - { offset: 0xD4941, size: 0x8, addend: 0x0, symName: '__ZN103_$LT$pyo3..instance..Bound$LT$pyo3..types..any..PyAny$GT$$u20$as$u20$pyo3..types..any..PyAnyMethods$GT$7extract17h86196b78d7d75514E', symObjAddr: 0x254, symBinAddr: 0x2CE50, symSize: 0x30 }
  - { offset: 0xD4978, size: 0x8, addend: 0x0, symName: '__ZN103_$LT$pyo3..instance..Bound$LT$pyo3..types..any..PyAny$GT$$u20$as$u20$pyo3..types..any..PyAnyMethods$GT$7extract17hd6f9db996779327fE', symObjAddr: 0x284, symBinAddr: 0x2CE80, symSize: 0x30 }
  - { offset: 0xD49AF, size: 0x8, addend: 0x0, symName: '__ZN103_$LT$pyo3..instance..Bound$LT$pyo3..types..any..PyAny$GT$$u20$as$u20$pyo3..types..any..PyAnyMethods$GT$8downcast17h3005c4135a1d6ed6E', symObjAddr: 0x2B4, symBinAddr: 0x2CEB0, symSize: 0x84 }
  - { offset: 0xD49E6, size: 0x8, addend: 0x0, symName: '__ZN103_$LT$pyo3..instance..Bound$LT$pyo3..types..any..PyAny$GT$$u20$as$u20$pyo3..types..any..PyAnyMethods$GT$8downcast17h6e6983e68f4e51d1E', symObjAddr: 0x338, symBinAddr: 0x2CF34, symSize: 0x84 }
  - { offset: 0xD4A3E, size: 0x8, addend: 0x0, symName: '__ZN115_$LT$pyo3..instance..Bound$LT$pyo3..types..module..PyModule$GT$$u20$as$u20$pyo3..types..module..PyModuleMethods$GT$3add17hefb9aff5f0194bf6E', symObjAddr: 0x3BC, symBinAddr: 0x2CFB8, symSize: 0x25C }
  - { offset: 0xD4B0B, size: 0x8, addend: 0x0, symName: '__ZN115_$LT$pyo3..instance..Bound$LT$pyo3..types..module..PyModule$GT$$u20$as$u20$pyo3..types..module..PyModuleMethods$GT$9add_class17h7639e35618bd9440E', symObjAddr: 0x618, symBinAddr: 0x2D214, symSize: 0xD0 }
  - { offset: 0xD4B81, size: 0x8, addend: 0x0, symName: '__ZN115_$LT$pyo3..instance..Bound$LT$pyo3..types..module..PyModule$GT$$u20$as$u20$pyo3..types..module..PyModuleMethods$GT$9add_class17hbc3ac2ecdf857d40E', symObjAddr: 0x6E8, symBinAddr: 0x2D2E4, symSize: 0xD0 }
  - { offset: 0xD4CBB, size: 0x8, addend: 0x0, symName: __ZN4pyo310conversion15IntoPyObjectExt22into_pyobject_or_pyerr17h0bd3f1daa68e29b6E, symObjAddr: 0x7E0, symBinAddr: 0x2D3DC, symSize: 0x48 }
  - { offset: 0xD4D3C, size: 0x8, addend: 0x0, symName: '__ZN4pyo35impl_9pymethods133_$LT$impl$u20$core..convert..From$LT$pyo3..impl_..pymethods..BoundRef$LT$T$GT$$GT$$u20$for$u20$$RF$pyo3..instance..Bound$LT$T$GT$$GT$4from17h87ad966b4cd38b98E', symObjAddr: 0x828, symBinAddr: 0x2D424, symSize: 0x14 }
  - { offset: 0xD520B, size: 0x8, addend: 0x0, symName: '__ZN4pyo38instance39Borrowed$LT$pyo3..types..any..PyAny$GT$15from_ptr_or_opt28_$u7b$$u7b$closure$u7d$$u7d$17hf184474c0f154a9cE', symObjAddr: 0xE20, symBinAddr: 0x2DA1C, symSize: 0x20 }
  - { offset: 0xD543A, size: 0x8, addend: 0x0, symName: '__ZN69_$LT$pyo3..instance..Bound$LT$T$GT$$u20$as$u20$core..clone..Clone$GT$5clone17h4b1b9d52086710cdE', symObjAddr: 0xEA4, symBinAddr: 0x2DAA0, symSize: 0x34 }
  - { offset: 0xD5471, size: 0x8, addend: 0x0, symName: '__ZN69_$LT$pyo3..instance..Bound$LT$T$GT$$u20$as$u20$core..clone..Clone$GT$5clone17hfb44bb40e7ee9c22E', symObjAddr: 0xED8, symBinAddr: 0x2DAD4, symSize: 0x34 }
  - { offset: 0xD6508, size: 0x8, addend: 0x0, symName: '__ZN4pyo38instance11Py$LT$T$GT$10into_bound17h2c4147301b90d90dE', symObjAddr: 0x83C, symBinAddr: 0x2D438, symSize: 0x1C }
  - { offset: 0xD656D, size: 0x8, addend: 0x0, symName: '__ZN4pyo38instance11Py$LT$T$GT$10into_bound17h9f9ba5b3d85ef2fdE', symObjAddr: 0x858, symBinAddr: 0x2D454, symSize: 0x1C }
  - { offset: 0xD65B4, size: 0x8, addend: 0x0, symName: '__ZN4pyo38instance11Py$LT$T$GT$13from_non_null17h7f8a501fad860177E', symObjAddr: 0x874, symBinAddr: 0x2D470, symSize: 0x14 }
  - { offset: 0xD65E0, size: 0x8, addend: 0x0, symName: '__ZN4pyo38instance11Py$LT$T$GT$13from_non_null17hf7b0e53561d53f76E', symObjAddr: 0x888, symBinAddr: 0x2D484, symSize: 0x14 }
  - { offset: 0xD6626, size: 0x8, addend: 0x0, symName: '__ZN4pyo38instance11Py$LT$T$GT$16get_class_object17h120919cfb8b97e04E', symObjAddr: 0x89C, symBinAddr: 0x2D498, symSize: 0x78 }
  - { offset: 0xD6682, size: 0x8, addend: 0x0, symName: '__ZN4pyo38instance11Py$LT$T$GT$16get_class_object17h307af87335af3d11E', symObjAddr: 0x914, symBinAddr: 0x2D510, symSize: 0x78 }
  - { offset: 0xD66C4, size: 0x8, addend: 0x0, symName: '__ZN4pyo38instance11Py$LT$T$GT$6as_ptr17h96b0afbeb80af563E', symObjAddr: 0x98C, symBinAddr: 0x2D588, symSize: 0x1C }
  - { offset: 0xD66F0, size: 0x8, addend: 0x0, symName: '__ZN4pyo38instance11Py$LT$T$GT$6as_ptr17hc2ac541078e042d3E', symObjAddr: 0x9A8, symBinAddr: 0x2D5A4, symSize: 0x1C }
  - { offset: 0xD671C, size: 0x8, addend: 0x0, symName: '__ZN4pyo38instance11Py$LT$T$GT$8into_ptr17hce69bef619aa2d50E', symObjAddr: 0x9C4, symBinAddr: 0x2D5C0, symSize: 0x30 }
  - { offset: 0xD6748, size: 0x8, addend: 0x0, symName: '__ZN4pyo38instance11Py$LT$T$GT$9clone_ref17h33dabf8a79d0dafeE', symObjAddr: 0x9F4, symBinAddr: 0x2D5F0, symSize: 0x100 }
  - { offset: 0xD67F7, size: 0x8, addend: 0x0, symName: '__ZN4pyo38instance11Py$LT$T$GT$9clone_ref17h9db88b3318c20e04E', symObjAddr: 0xAF4, symBinAddr: 0x2D6F0, symSize: 0x100 }
  - { offset: 0xD68B3, size: 0x8, addend: 0x0, symName: '__ZN4pyo38instance14Bound$LT$T$GT$10try_borrow17h2d4655a3f997cfbfE', symObjAddr: 0xBF4, symBinAddr: 0x2D7F0, symSize: 0x24 }
  - { offset: 0xD68EC, size: 0x8, addend: 0x0, symName: '__ZN4pyo38instance14Bound$LT$T$GT$10try_borrow17hfb768ce0f8f31cd2E', symObjAddr: 0xC18, symBinAddr: 0x2D814, symSize: 0x24 }
  - { offset: 0xD6918, size: 0x8, addend: 0x0, symName: '__ZN4pyo38instance14Bound$LT$T$GT$14try_borrow_mut17h456faab006871b78E', symObjAddr: 0xC3C, symBinAddr: 0x2D838, symSize: 0x24 }
  - { offset: 0xD6944, size: 0x8, addend: 0x0, symName: '__ZN4pyo38instance14Bound$LT$T$GT$14try_borrow_mut17hf92b86a0d51eedabE', symObjAddr: 0xC60, symBinAddr: 0x2D85C, symSize: 0x24 }
  - { offset: 0xD6970, size: 0x8, addend: 0x0, symName: '__ZN4pyo38instance14Bound$LT$T$GT$16get_class_object17h094ee4eb90994c7fE', symObjAddr: 0xC84, symBinAddr: 0x2D880, symSize: 0x2C }
  - { offset: 0xD699C, size: 0x8, addend: 0x0, symName: '__ZN4pyo38instance14Bound$LT$T$GT$16get_class_object17h4c3ed93ca3fb7d15E', symObjAddr: 0xCB0, symBinAddr: 0x2D8AC, symSize: 0x2C }
  - { offset: 0xD69C8, size: 0x8, addend: 0x0, symName: '__ZN4pyo38instance14Bound$LT$T$GT$6as_ptr17hb22b0b7aef06a48bE', symObjAddr: 0xCDC, symBinAddr: 0x2D8D8, symSize: 0x2C }
  - { offset: 0xD6A01, size: 0x8, addend: 0x0, symName: '__ZN4pyo38instance14Bound$LT$T$GT$6as_ptr17hc4fec0b75a691b77E', symObjAddr: 0xD08, symBinAddr: 0x2D904, symSize: 0x2C }
  - { offset: 0xD6A2D, size: 0x8, addend: 0x0, symName: '__ZN4pyo38instance14Bound$LT$T$GT$6as_ptr17hff3ab3eec5a9f97bE', symObjAddr: 0xD34, symBinAddr: 0x2D930, symSize: 0x2C }
  - { offset: 0xD6A59, size: 0x8, addend: 0x0, symName: '__ZN4pyo38instance14Bound$LT$T$GT$8into_ptr17h1b525d122cd8fa52E', symObjAddr: 0xD60, symBinAddr: 0x2D95C, symSize: 0x40 }
  - { offset: 0xD6A85, size: 0x8, addend: 0x0, symName: '__ZN4pyo38instance14Bound$LT$T$GT$8into_ptr17hdafb7e481e3b2b4cE', symObjAddr: 0xDA0, symBinAddr: 0x2D99C, symSize: 0x40 }
  - { offset: 0xD6AB1, size: 0x8, addend: 0x0, symName: '__ZN4pyo38instance14Bound$LT$T$GT$8into_ptr17hec2a872b50f7cfb7E', symObjAddr: 0xDE0, symBinAddr: 0x2D9DC, symSize: 0x40 }
  - { offset: 0xD6AF7, size: 0x8, addend: 0x0, symName: '__ZN4pyo38instance39Borrowed$LT$pyo3..types..any..PyAny$GT$18downcast_unchecked17h7227da87b4820408E', symObjAddr: 0xE40, symBinAddr: 0x2DA3C, symSize: 0x14 }
  - { offset: 0xD6B30, size: 0x8, addend: 0x0, symName: '__ZN4pyo38instance39Borrowed$LT$pyo3..types..any..PyAny$GT$18downcast_unchecked17hdf4495db047f20c3E', symObjAddr: 0xE54, symBinAddr: 0x2DA50, symSize: 0x14 }
  - { offset: 0xD6B69, size: 0x8, addend: 0x0, symName: '__ZN4pyo38internal8get_slot78_$LT$impl$u20$pyo3..instance..Bound$LT$pyo3..types..typeobject..PyType$GT$$GT$8get_slot17hd4670cc27b1db00cE', symObjAddr: 0xE68, symBinAddr: 0x2DA64, symSize: 0x28 }
  - { offset: 0xD6D4C, size: 0x8, addend: 0x0, symName: __ZN9hashbrown3raw13RawTableInner13drop_elements17h646cefd3faa8dc00E, symObjAddr: 0x0, symBinAddr: 0x2DB08, symSize: 0x30 }
  - { offset: 0xD6D7B, size: 0x8, addend: 0x0, symName: '__ZN9hashbrown3raw21RawTable$LT$T$C$A$GT$14reserve_rehash28_$u7b$$u7b$closure$u7d$$u7d$17h5a9be9af52e86fb3E', symObjAddr: 0x1EBC, symBinAddr: 0x2E27C, symSize: 0xC0 }
  - { offset: 0xD6F59, size: 0x8, addend: 0x0, symName: '__ZN9hashbrown3raw21RawTable$LT$T$C$A$GT$14reserve_rehash28_$u7b$$u7b$closure$u7d$$u7d$17h5b7494da64fbe7c4E', symObjAddr: 0x1F7C, symBinAddr: 0x2E33C, symSize: 0xC0 }
  - { offset: 0xD7137, size: 0x8, addend: 0x0, symName: '__ZN9hashbrown3raw21RawTable$LT$T$C$A$GT$14reserve_rehash28_$u7b$$u7b$closure$u7d$$u7d$17h8a379c9107655e69E', symObjAddr: 0x203C, symBinAddr: 0x2E3FC, symSize: 0xBC }
  - { offset: 0xD731B, size: 0x8, addend: 0x0, symName: '__ZN9hashbrown3raw21RawTable$LT$T$C$A$GT$25find_or_find_insert_index28_$u7b$$u7b$closure$u7d$$u7d$17hc9048ea702fae62eE', symObjAddr: 0x25A0, symBinAddr: 0x2E960, symSize: 0xC4 }
  - { offset: 0xD7508, size: 0x8, addend: 0x0, symName: '__ZN9hashbrown3raw21RawTable$LT$T$C$A$GT$25find_or_find_insert_index28_$u7b$$u7b$closure$u7d$$u7d$17hfd59efebb8a21030E', symObjAddr: 0x2664, symBinAddr: 0x2EA24, symSize: 0xC0 }
  - { offset: 0xD76FB, size: 0x8, addend: 0x0, symName: '__ZN9hashbrown3raw21RawTable$LT$T$C$A$GT$4find28_$u7b$$u7b$closure$u7d$$u7d$17h215b5de3d7a991afE', symObjAddr: 0x2D4C, symBinAddr: 0x2F10C, symSize: 0xC4 }
  - { offset: 0xD78DF, size: 0x8, addend: 0x0, symName: '__ZN9hashbrown3raw21RawTable$LT$T$C$A$GT$4find28_$u7b$$u7b$closure$u7d$$u7d$17hffd71bd67fb947cfE', symObjAddr: 0x2E10, symBinAddr: 0x2F1D0, symSize: 0xC4 }
  - { offset: 0xDADC4, size: 0x8, addend: 0x0, symName: __ZN9hashbrown3raw13RawTableInner13drop_elements17h646cefd3faa8dc00E, symObjAddr: 0x0, symBinAddr: 0x2DB08, symSize: 0x30 }
  - { offset: 0xDAFC9, size: 0x8, addend: 0x0, symName: __ZN9hashbrown3raw13RawTableInner13drop_elements17hdc503c52c00d9518E, symObjAddr: 0x30, symBinAddr: 0x2DB38, symSize: 0x2C }
  - { offset: 0xDB1CE, size: 0x8, addend: 0x0, symName: __ZN9hashbrown3raw13RawTableInner13drop_elements17hed32257dbe166290E, symObjAddr: 0x5C, symBinAddr: 0x2DB64, symSize: 0x30 }
  - { offset: 0xDB4B6, size: 0x8, addend: 0x0, symName: __ZN9hashbrown3raw13RawTableInner16drop_inner_table17h0fe3cddb254fa4e9E, symObjAddr: 0x8C, symBinAddr: 0x2DB94, symSize: 0xAC }
  - { offset: 0xDB73B, size: 0x8, addend: 0x0, symName: __ZN9hashbrown3raw13RawTableInner16drop_inner_table17h42727c59a349efa1E, symObjAddr: 0x138, symBinAddr: 0x2DC40, symSize: 0xAC }
  - { offset: 0xDB9C0, size: 0x8, addend: 0x0, symName: __ZN9hashbrown3raw13RawTableInner16drop_inner_table17h4f3ce36564aab272E, symObjAddr: 0x1E4, symBinAddr: 0x2DCEC, symSize: 0xAC }
  - { offset: 0xDBBB6, size: 0x8, addend: 0x0, symName: '__ZN9hashbrown3raw21RawIterRange$LT$T$GT$3new17h86baffb04c989f3dE', symObjAddr: 0x290, symBinAddr: 0x2DD98, symSize: 0x98 }
  - { offset: 0xDBE4A, size: 0x8, addend: 0x0, symName: '__ZN9hashbrown3raw21RawIterRange$LT$T$GT$9next_impl17hdae29b79cbf0c3a8E', symObjAddr: 0x328, symBinAddr: 0x2DE30, symSize: 0x1B4 }
  - { offset: 0xDC14E, size: 0x8, addend: 0x0, symName: '__ZN9hashbrown3raw21RawTable$LT$T$C$A$GT$12remove_entry17heccc3b0af6ceaf46E', symObjAddr: 0x4DC, symBinAddr: 0x2DFE4, symSize: 0x7C }
  - { offset: 0xDC267, size: 0x8, addend: 0x0, symName: '__ZN9hashbrown3raw21RawTable$LT$T$C$A$GT$13erase_no_drop17h9449c551da21ca51E', symObjAddr: 0x558, symBinAddr: 0x2E060, symSize: 0x90 }
  - { offset: 0xDC5F5, size: 0x8, addend: 0x0, symName: '__ZN9hashbrown3raw21RawTable$LT$T$C$A$GT$14insert_no_grow17h778b4b30f0673e77E', symObjAddr: 0x5E8, symBinAddr: 0x2E0F0, symSize: 0x18C }
  - { offset: 0xDCE67, size: 0x8, addend: 0x0, symName: '__ZN9hashbrown3raw21RawTable$LT$T$C$A$GT$14reserve_rehash17h7cbeb823bb46af3bE', symObjAddr: 0x774, symBinAddr: 0x9A168, symSize: 0x7B8 }
  - { offset: 0xDD72B, size: 0x8, addend: 0x0, symName: '__ZN9hashbrown3raw21RawTable$LT$T$C$A$GT$14reserve_rehash17h9cb099241a3c28d6E', symObjAddr: 0xF2C, symBinAddr: 0x9A920, symSize: 0x7CC }
  - { offset: 0xDDFE2, size: 0x8, addend: 0x0, symName: '__ZN9hashbrown3raw21RawTable$LT$T$C$A$GT$14reserve_rehash17ha7c6c7a6d9815752E', symObjAddr: 0x16F8, symBinAddr: 0x9B0EC, symSize: 0x7C4 }
  - { offset: 0xDEE3E, size: 0x8, addend: 0x0, symName: '__ZN9hashbrown3raw21RawTable$LT$T$C$A$GT$22insert_tagged_at_index17h498561529d3b0cddE', symObjAddr: 0x20F8, symBinAddr: 0x2E4B8, symSize: 0x12C }
  - { offset: 0xDF374, size: 0x8, addend: 0x0, symName: '__ZN9hashbrown3raw21RawTable$LT$T$C$A$GT$22insert_tagged_at_index17h6e5902af7085f221E', symObjAddr: 0x2224, symBinAddr: 0x2E5E4, symSize: 0x114 }
  - { offset: 0xDF7F0, size: 0x8, addend: 0x0, symName: '__ZN9hashbrown3raw21RawTable$LT$T$C$A$GT$25find_or_find_insert_index17ha761390a41165147E', symObjAddr: 0x2338, symBinAddr: 0x2E6F8, symSize: 0x134 }
  - { offset: 0xDFAAA, size: 0x8, addend: 0x0, symName: '__ZN9hashbrown3raw21RawTable$LT$T$C$A$GT$25find_or_find_insert_index17he6e730595eeae5b4E', symObjAddr: 0x246C, symBinAddr: 0x2E82C, symSize: 0x134 }
  - { offset: 0xE0200, size: 0x8, addend: 0x0, symName: '__ZN9hashbrown3raw21RawTable$LT$T$C$A$GT$4find17h023611d26a93c169E', symObjAddr: 0x2724, symBinAddr: 0x2EAE4, symSize: 0x314 }
  - { offset: 0xE0788, size: 0x8, addend: 0x0, symName: '__ZN9hashbrown3raw21RawTable$LT$T$C$A$GT$4find17hc2ab21aa4e40a0e3E', symObjAddr: 0x2A38, symBinAddr: 0x2EDF8, symSize: 0x314 }
  - { offset: 0xE0FB9, size: 0x8, addend: 0x0, symName: '__ZN9hashbrown3raw21RawTable$LT$T$C$A$GT$6remove17h1f4e3b7bb7376617E', symObjAddr: 0x2ED4, symBinAddr: 0x2F294, symSize: 0xDC }
  - { offset: 0xE11EC, size: 0x8, addend: 0x0, symName: '__ZN9hashbrown3raw21RawTable$LT$T$C$A$GT$7reserve17h6f6579d31de2decdE', symObjAddr: 0x2FB0, symBinAddr: 0x2F370, symSize: 0xB0 }
  - { offset: 0xE12F0, size: 0x8, addend: 0x0, symName: '__ZN9hashbrown3raw21RawTable$LT$T$C$A$GT$7reserve17h8170bbee9179da77E', symObjAddr: 0x3060, symBinAddr: 0x2F420, symSize: 0xB0 }
  - { offset: 0xE13F4, size: 0x8, addend: 0x0, symName: '__ZN9hashbrown3raw21RawTable$LT$T$C$A$GT$7reserve17hb4cc42627424e9a4E', symObjAddr: 0x3110, symBinAddr: 0x2F4D0, symSize: 0xB0 }
  - { offset: 0xE14CC, size: 0x8, addend: 0x0, symName: __ZN4pyo35impl_5panic9PanicTrap3new17h4f2226a4ddb9d1a6E, symObjAddr: 0x0, symBinAddr: 0x2F580, symSize: 0x18 }
  - { offset: 0xE155B, size: 0x8, addend: 0x0, symName: __ZN4pyo35impl_5panic9PanicTrap3new17h4f2226a4ddb9d1a6E, symObjAddr: 0x0, symBinAddr: 0x2F580, symSize: 0x18 }
  - { offset: 0xE157D, size: 0x8, addend: 0x0, symName: __ZN4pyo35impl_5panic9PanicTrap6disarm17h9121e62d00e7908aE, symObjAddr: 0x18, symBinAddr: 0x2F598, symSize: 0x28 }
  - { offset: 0xE15BD, size: 0x8, addend: 0x0, symName: '__ZN4core3ptr8non_null16NonNull$LT$T$GT$20offset_from_unsigned17h0a1a96be7ecd64caE', symObjAddr: 0x0, symBinAddr: 0x2F5C0, symSize: 0x7C }
  - { offset: 0xE1CA2, size: 0x8, addend: 0x0, symName: '__ZN4core3ptr8non_null16NonNull$LT$T$GT$20offset_from_unsigned17h0a1a96be7ecd64caE', symObjAddr: 0x0, symBinAddr: 0x2F5C0, symSize: 0x7C }
  - { offset: 0xE1DB3, size: 0x8, addend: 0x0, symName: '__ZN4core3ptr8non_null16NonNull$LT$T$GT$20offset_from_unsigned17h0f5a344b6a4d1061E', symObjAddr: 0x7C, symBinAddr: 0x2F63C, symSize: 0x7C }
  - { offset: 0xE1FF3, size: 0x8, addend: 0x0, symName: '__ZN4core3ptr8non_null16NonNull$LT$T$GT$20offset_from_unsigned17h3bf9118bb818f4e8E', symObjAddr: 0xF8, symBinAddr: 0x2F6B8, symSize: 0x7C }
  - { offset: 0xE20FD, size: 0x8, addend: 0x0, symName: '__ZN4core3ptr8non_null16NonNull$LT$T$GT$20offset_from_unsigned17hadfea551b09f6436E', symObjAddr: 0x174, symBinAddr: 0x2F734, symSize: 0x7C }
  - { offset: 0xE2256, size: 0x8, addend: 0x0, symName: '__ZN4core3ptr8non_null16NonNull$LT$T$GT$20offset_from_unsigned17hcb17ae5b9e989d66E', symObjAddr: 0x1F0, symBinAddr: 0x2F7B0, symSize: 0x7C }
  - { offset: 0xE2360, size: 0x8, addend: 0x0, symName: '__ZN4core3ptr8non_null16NonNull$LT$T$GT$20offset_from_unsigned17heefd38335e67798dE', symObjAddr: 0x26C, symBinAddr: 0x2F82C, symSize: 0x7C }
  - { offset: 0xE2452, size: 0x8, addend: 0x0, symName: '__ZN51_$LT$str$u20$as$u20$alloc..string..SpecToString$GT$14spec_to_string17hcb44e15c29c0c757E', symObjAddr: 0x0, symBinAddr: 0x2F8A8, symSize: 0x50 }
  - { offset: 0xE26DD, size: 0x8, addend: 0x0, symName: '__ZN51_$LT$str$u20$as$u20$alloc..string..SpecToString$GT$14spec_to_string17hcb44e15c29c0c757E', symObjAddr: 0x0, symBinAddr: 0x2F8A8, symSize: 0x50 }
  - { offset: 0xE2806, size: 0x8, addend: 0x0, symName: '__ZN65_$LT$alloc..string..String$u20$as$u20$core..ops..deref..Deref$GT$5deref17h179819f02e1db358E', symObjAddr: 0x114, symBinAddr: 0x2F9BC, symSize: 0x24 }
  - { offset: 0xE2A9C, size: 0x8, addend: 0x0, symName: __ZN5alloc6string6String3new17h0c364a3e8c443ed5E, symObjAddr: 0x50, symBinAddr: 0x2F8F8, symSize: 0x30 }
  - { offset: 0xE2AD2, size: 0x8, addend: 0x0, symName: __ZN5alloc6string6String5clear17h2329be101a04e380E, symObjAddr: 0x80, symBinAddr: 0x2F928, symSize: 0x24 }
  - { offset: 0xE2BE9, size: 0x8, addend: 0x0, symName: __ZN5alloc6string6String6as_str17h961b312a6e35e470E, symObjAddr: 0xA4, symBinAddr: 0x2F94C, symSize: 0x70 }
  - { offset: 0xE2D10, size: 0x8, addend: 0x0, symName: '__ZN114_$LT$core..iter..adapters..flatten..FlatMap$LT$I$C$U$C$F$GT$$u20$as$u20$core..iter..traits..iterator..Iterator$GT$4next17h444db02f7b0d0af5E', symObjAddr: 0x0, symBinAddr: 0x2F9E0, symSize: 0x24 }
  - { offset: 0xE2D36, size: 0x8, addend: 0x0, symName: '__ZN114_$LT$core..iter..adapters..flatten..FlatMap$LT$I$C$U$C$F$GT$$u20$as$u20$core..iter..traits..iterator..Iterator$GT$4next17h444db02f7b0d0af5E', symObjAddr: 0x0, symBinAddr: 0x2F9E0, symSize: 0x24 }
  - { offset: 0xE2D7D, size: 0x8, addend: 0x0, symName: '__ZN114_$LT$core..iter..adapters..flatten..FlatMap$LT$I$C$U$C$F$GT$$u20$as$u20$core..iter..traits..iterator..Iterator$GT$9size_hint17hfb624b94069915a8E', symObjAddr: 0x24, symBinAddr: 0x2FA04, symSize: 0x24 }
  - { offset: 0xE2DCA, size: 0x8, addend: 0x0, symName: '__ZN116_$LT$core..iter..adapters..flatten..FlattenCompat$LT$I$C$U$GT$$u20$as$u20$core..iter..traits..iterator..Iterator$GT$4next17h37fffd79c41a9befE', symObjAddr: 0x48, symBinAddr: 0x2FA28, symSize: 0x124 }
  - { offset: 0xE2E5D, size: 0x8, addend: 0x0, symName: '__ZN116_$LT$core..iter..adapters..flatten..FlattenCompat$LT$I$C$U$GT$$u20$as$u20$core..iter..traits..iterator..Iterator$GT$9size_hint17h3b1063d6bd9f3a40E', symObjAddr: 0x16C, symBinAddr: 0x2FB4C, symSize: 0x750 }
  - { offset: 0xE3662, size: 0x8, addend: 0x0, symName: __ZN4core4iter8adapters7flatten17and_then_or_clear17hf8d748571d81c8dfE, symObjAddr: 0x8D0, symBinAddr: 0x302B0, symSize: 0xF8 }
  - { offset: 0xE38B7, size: 0x8, addend: 0x0, symName: __ZN4core4iter6traits8iterator8Iterator7collect17h4807e02f9d43c02eE, symObjAddr: 0x8BC, symBinAddr: 0x3029C, symSize: 0x14 }
  - { offset: 0xE3904, size: 0x8, addend: 0x0, symName: '__ZN63_$LT$I$u20$as$u20$core..iter..traits..collect..IntoIterator$GT$9into_iter17h5c2e6d3359bc76ecE', symObjAddr: 0x9C8, symBinAddr: 0x303A8, symSize: 0x30 }
  - { offset: 0xE4521, size: 0x8, addend: 0x0, symName: '__ZN4pyo36pycell14PyRef$LT$T$GT$10try_borrow17h70a439d064456746E', symObjAddr: 0x0, symBinAddr: 0x303D8, symSize: 0x4C }
  - { offset: 0xE5D50, size: 0x8, addend: 0x0, symName: '__ZN50_$LT$T$u20$as$u20$core..convert..Into$LT$U$GT$$GT$4into17hab6a1647131d06f5E', symObjAddr: 0x1C0, symBinAddr: 0x30598, symSize: 0x1C }
  - { offset: 0xE5D90, size: 0x8, addend: 0x0, symName: '__ZN50_$LT$T$u20$as$u20$core..convert..Into$LT$U$GT$$GT$4into17hf7f8f334a0545af9E', symObjAddr: 0x1DC, symBinAddr: 0x305B4, symSize: 0x1C }
  - { offset: 0xE602B, size: 0x8, addend: 0x0, symName: '__ZN4pyo36pycell14PyRef$LT$T$GT$10try_borrow28_$u7b$$u7b$closure$u7d$$u7d$17h7986d3a65b7a01d9E', symObjAddr: 0x98, symBinAddr: 0x30470, symSize: 0x24 }
  - { offset: 0xE606F, size: 0x8, addend: 0x0, symName: '__ZN4pyo36pycell14PyRef$LT$T$GT$10try_borrow28_$u7b$$u7b$closure$u7d$$u7d$17h7fd79f3e63dedea0E', symObjAddr: 0xBC, symBinAddr: 0x30494, symSize: 0x24 }
  - { offset: 0xE614E, size: 0x8, addend: 0x0, symName: '__ZN4pyo36pycell17PyRefMut$LT$T$GT$10try_borrow28_$u7b$$u7b$closure$u7d$$u7d$17h3cc7f17b4bc4ce21E', symObjAddr: 0x178, symBinAddr: 0x30550, symSize: 0x24 }
  - { offset: 0xE6192, size: 0x8, addend: 0x0, symName: '__ZN4pyo36pycell17PyRefMut$LT$T$GT$10try_borrow28_$u7b$$u7b$closure$u7d$$u7d$17hb97119dbc5ed332dE', symObjAddr: 0x19C, symBinAddr: 0x30574, symSize: 0x24 }
  - { offset: 0xE61DD, size: 0x8, addend: 0x0, symName: '__ZN72_$LT$pyo3..pycell..PyRef$LT$T$GT$$u20$as$u20$core..ops..deref..Deref$GT$5deref17h3558bab43f265b5dE', symObjAddr: 0x2C8, symBinAddr: 0x306A0, symSize: 0x74 }
  - { offset: 0xE6214, size: 0x8, addend: 0x0, symName: '__ZN72_$LT$pyo3..pycell..PyRef$LT$T$GT$$u20$as$u20$core..ops..deref..Deref$GT$5deref17hdcedc5777d10547eE', symObjAddr: 0x33C, symBinAddr: 0x30714, symSize: 0x74 }
  - { offset: 0xE6251, size: 0x8, addend: 0x0, symName: '__ZN78_$LT$pyo3..pycell..PyRefMut$LT$T$GT$$u20$as$u20$core..ops..deref..DerefMut$GT$9deref_mut17h0aa0815d1c303b18E', symObjAddr: 0x3B0, symBinAddr: 0x30788, symSize: 0x74 }
  - { offset: 0xE6288, size: 0x8, addend: 0x0, symName: '__ZN78_$LT$pyo3..pycell..PyRefMut$LT$T$GT$$u20$as$u20$core..ops..deref..DerefMut$GT$9deref_mut17h9d878b883b2e414bE', symObjAddr: 0x424, symBinAddr: 0x307FC, symSize: 0x74 }
  - { offset: 0xE6645, size: 0x8, addend: 0x0, symName: '__ZN57_$LT$T$u20$as$u20$pyo3..conversion..FromPyObjectBound$GT$20from_py_object_bound17h34e62ed44c87151bE', symObjAddr: 0x1F8, symBinAddr: 0x305D0, symSize: 0x34 }
  - { offset: 0xE667C, size: 0x8, addend: 0x0, symName: '__ZN57_$LT$T$u20$as$u20$pyo3..conversion..FromPyObjectBound$GT$20from_py_object_bound17h7d3d0b122eaf4c50E', symObjAddr: 0x22C, symBinAddr: 0x30604, symSize: 0x34 }
  - { offset: 0xE66B3, size: 0x8, addend: 0x0, symName: '__ZN57_$LT$T$u20$as$u20$pyo3..conversion..FromPyObjectBound$GT$20from_py_object_bound17hc272121ec0064183E', symObjAddr: 0x260, symBinAddr: 0x30638, symSize: 0x34 }
  - { offset: 0xE66EA, size: 0x8, addend: 0x0, symName: '__ZN57_$LT$T$u20$as$u20$pyo3..conversion..FromPyObjectBound$GT$20from_py_object_bound17he616da8874c73ea4E', symObjAddr: 0x294, symBinAddr: 0x3066C, symSize: 0x34 }
  - { offset: 0xE6727, size: 0x8, addend: 0x0, symName: '__ZN79_$LT$pyo3..pycell..PyRef$LT$T$GT$$u20$as$u20$pyo3..conversion..FromPyObject$GT$13extract_bound17h24e912715c2c72d4E', symObjAddr: 0x498, symBinAddr: 0x30870, symSize: 0xA4 }
  - { offset: 0xE677D, size: 0x8, addend: 0x0, symName: '__ZN79_$LT$pyo3..pycell..PyRef$LT$T$GT$$u20$as$u20$pyo3..conversion..FromPyObject$GT$13extract_bound17hb52d47e6c83a8da4E', symObjAddr: 0x53C, symBinAddr: 0x30914, symSize: 0xA4 }
  - { offset: 0xE67D9, size: 0x8, addend: 0x0, symName: '__ZN82_$LT$pyo3..pycell..PyRefMut$LT$T$GT$$u20$as$u20$pyo3..conversion..FromPyObject$GT$13extract_bound17hb887dfafd9166739E', symObjAddr: 0x5E0, symBinAddr: 0x309B8, symSize: 0xA4 }
  - { offset: 0xE682F, size: 0x8, addend: 0x0, symName: '__ZN82_$LT$pyo3..pycell..PyRefMut$LT$T$GT$$u20$as$u20$pyo3..conversion..FromPyObject$GT$13extract_bound17hce0261fac32d1d87E', symObjAddr: 0x684, symBinAddr: 0x30A5C, symSize: 0xA4 }
  - { offset: 0xE74E8, size: 0x8, addend: 0x0, symName: '__ZN4pyo36pycell14PyRef$LT$T$GT$10try_borrow17h70a439d064456746E', symObjAddr: 0x0, symBinAddr: 0x303D8, symSize: 0x4C }
  - { offset: 0xE755D, size: 0x8, addend: 0x0, symName: '__ZN4pyo36pycell14PyRef$LT$T$GT$10try_borrow17ha9896e79deada40eE', symObjAddr: 0x4C, symBinAddr: 0x30424, symSize: 0x4C }
  - { offset: 0xE75A7, size: 0x8, addend: 0x0, symName: '__ZN4pyo36pycell17PyRefMut$LT$T$GT$10try_borrow17h908c97b2d4aa1da1E', symObjAddr: 0xE0, symBinAddr: 0x304B8, symSize: 0x4C }
  - { offset: 0xE75F1, size: 0x8, addend: 0x0, symName: '__ZN4pyo36pycell17PyRefMut$LT$T$GT$10try_borrow17h9816a17f6636d33aE', symObjAddr: 0x12C, symBinAddr: 0x30504, symSize: 0x4C }
  - { offset: 0xE77CB, size: 0x8, addend: 0x0, symName: __ZN11biospy_core2io15read_fasta_seqs17hcf907bfab6de88dcE, symObjAddr: 0x0, symBinAddr: 0x30B00, symSize: 0x394 }
  - { offset: 0xE7B46, size: 0x8, addend: 0x0, symName: __ZN11biospy_core2io15read_fasta_seqs17hcf907bfab6de88dcE, symObjAddr: 0x0, symBinAddr: 0x30B00, symSize: 0x394 }
  - { offset: 0xE7C57, size: 0x8, addend: 0x0, symName: __ZN11biospy_core2io15read_fastq_seqs17hce812046cf79c8a4E, symObjAddr: 0x394, symBinAddr: 0x30E94, symSize: 0x3D0 }
  - { offset: 0xE8430, size: 0x8, addend: 0x0, symName: __ZN3std4sync4once4Once12is_completed17h00306d9bf7ff1cd7E, symObjAddr: 0x0, symBinAddr: 0x31264, symSize: 0x38 }
  - { offset: 0xE85E2, size: 0x8, addend: 0x0, symName: __ZN3std4sync4once4Once12is_completed17h00306d9bf7ff1cd7E, symObjAddr: 0x0, symBinAddr: 0x31264, symSize: 0x38 }
  - { offset: 0xE8668, size: 0x8, addend: 0x0, symName: '__ZN102_$LT$core..iter..adapters..map..Map$LT$I$C$F$GT$$u20$as$u20$core..iter..traits..iterator..Iterator$GT$4fold17h5a21f9f65be69360E', symObjAddr: 0x0, symBinAddr: 0x3129C, symSize: 0x44 }
  - { offset: 0xE8EFC, size: 0x8, addend: 0x0, symName: '__ZN4core4iter8adapters3map8map_fold28_$u7b$$u7b$closure$u7d$$u7d$17h23c735525f1edd9dE', symObjAddr: 0xB18, symBinAddr: 0x31DB4, symSize: 0x98 }
  - { offset: 0xE8F83, size: 0x8, addend: 0x0, symName: '__ZN4core4iter8adapters3map8map_fold28_$u7b$$u7b$closure$u7d$$u7d$17h4734ca9acffe7af8E', symObjAddr: 0xBB0, symBinAddr: 0x31E4C, symSize: 0x7C }
  - { offset: 0xE9008, size: 0x8, addend: 0x0, symName: '__ZN4core4iter8adapters3map8map_fold28_$u7b$$u7b$closure$u7d$$u7d$17h7f000da90a0ae7b6E', symObjAddr: 0xC2C, symBinAddr: 0x31EC8, symSize: 0x8C }
  - { offset: 0xE908D, size: 0x8, addend: 0x0, symName: '__ZN4core4iter8adapters3map8map_fold28_$u7b$$u7b$closure$u7d$$u7d$17hbf669f6a182c89bfE', symObjAddr: 0xCB8, symBinAddr: 0x31F54, symSize: 0x98 }
  - { offset: 0xE911A, size: 0x8, addend: 0x0, symName: '__ZN102_$LT$core..iter..adapters..map..Map$LT$I$C$F$GT$$u20$as$u20$core..iter..traits..iterator..Iterator$GT$4fold17h5a21f9f65be69360E', symObjAddr: 0x0, symBinAddr: 0x3129C, symSize: 0x44 }
  - { offset: 0xE91B2, size: 0x8, addend: 0x0, symName: '__ZN102_$LT$core..iter..adapters..map..Map$LT$I$C$F$GT$$u20$as$u20$core..iter..traits..iterator..Iterator$GT$4fold17h8b073c1cb4eaa3feE', symObjAddr: 0x44, symBinAddr: 0x312E0, symSize: 0x4C }
  - { offset: 0xE924B, size: 0x8, addend: 0x0, symName: '__ZN102_$LT$core..iter..adapters..map..Map$LT$I$C$F$GT$$u20$as$u20$core..iter..traits..iterator..Iterator$GT$4next17h0b3150d56d8b1739E', symObjAddr: 0x90, symBinAddr: 0x3132C, symSize: 0xB0 }
  - { offset: 0xE92E7, size: 0x8, addend: 0x0, symName: '__ZN102_$LT$core..iter..adapters..map..Map$LT$I$C$F$GT$$u20$as$u20$core..iter..traits..iterator..Iterator$GT$4next17h115b6c21235c1f13E', symObjAddr: 0x140, symBinAddr: 0x313DC, symSize: 0x98 }
  - { offset: 0xE9383, size: 0x8, addend: 0x0, symName: '__ZN102_$LT$core..iter..adapters..map..Map$LT$I$C$F$GT$$u20$as$u20$core..iter..traits..iterator..Iterator$GT$4next17h26448be0f81fa6d6E', symObjAddr: 0x1D8, symBinAddr: 0x31474, symSize: 0xB0 }
  - { offset: 0xE941F, size: 0x8, addend: 0x0, symName: '__ZN102_$LT$core..iter..adapters..map..Map$LT$I$C$F$GT$$u20$as$u20$core..iter..traits..iterator..Iterator$GT$4next17h9a0cb4cbbd676defE', symObjAddr: 0x288, symBinAddr: 0x31524, symSize: 0x94 }
  - { offset: 0xE94BB, size: 0x8, addend: 0x0, symName: '__ZN102_$LT$core..iter..adapters..map..Map$LT$I$C$F$GT$$u20$as$u20$core..iter..traits..iterator..Iterator$GT$4next17had7a0fc31685f992E', symObjAddr: 0x31C, symBinAddr: 0x315B8, symSize: 0x9C }
  - { offset: 0xE9557, size: 0x8, addend: 0x0, symName: '__ZN102_$LT$core..iter..adapters..map..Map$LT$I$C$F$GT$$u20$as$u20$core..iter..traits..iterator..Iterator$GT$4next17hcfd8ddf28eb6ffe7E', symObjAddr: 0x3B8, symBinAddr: 0x31654, symSize: 0x94 }
  - { offset: 0xE95F3, size: 0x8, addend: 0x0, symName: '__ZN102_$LT$core..iter..adapters..map..Map$LT$I$C$F$GT$$u20$as$u20$core..iter..traits..iterator..Iterator$GT$8try_fold17h0bf6adb133d16263E', symObjAddr: 0x44C, symBinAddr: 0x316E8, symSize: 0x58 }
  - { offset: 0xE9696, size: 0x8, addend: 0x0, symName: '__ZN102_$LT$core..iter..adapters..map..Map$LT$I$C$F$GT$$u20$as$u20$core..iter..traits..iterator..Iterator$GT$8try_fold17h34482ecd6ef3acadE', symObjAddr: 0x4A4, symBinAddr: 0x31740, symSize: 0x58 }
  - { offset: 0xE9739, size: 0x8, addend: 0x0, symName: '__ZN102_$LT$core..iter..adapters..map..Map$LT$I$C$F$GT$$u20$as$u20$core..iter..traits..iterator..Iterator$GT$8try_fold17h74ff6155850f41a4E', symObjAddr: 0x4FC, symBinAddr: 0x31798, symSize: 0x58 }
  - { offset: 0xE97DC, size: 0x8, addend: 0x0, symName: '__ZN102_$LT$core..iter..adapters..map..Map$LT$I$C$F$GT$$u20$as$u20$core..iter..traits..iterator..Iterator$GT$8try_fold17hf5f776ee877efa41E', symObjAddr: 0x554, symBinAddr: 0x317F0, symSize: 0x58 }
  - { offset: 0xE987F, size: 0x8, addend: 0x0, symName: '__ZN102_$LT$core..iter..adapters..map..Map$LT$I$C$F$GT$$u20$as$u20$core..iter..traits..iterator..Iterator$GT$9size_hint17h4c32d76a9d80078fE', symObjAddr: 0x5AC, symBinAddr: 0x31848, symSize: 0x24 }
  - { offset: 0xE98C6, size: 0x8, addend: 0x0, symName: '__ZN102_$LT$core..iter..adapters..map..Map$LT$I$C$F$GT$$u20$as$u20$core..iter..traits..iterator..Iterator$GT$9size_hint17h5b2c2d187796dfa9E', symObjAddr: 0x5D0, symBinAddr: 0x3186C, symSize: 0x24 }
  - { offset: 0xE990D, size: 0x8, addend: 0x0, symName: '__ZN102_$LT$core..iter..adapters..map..Map$LT$I$C$F$GT$$u20$as$u20$core..iter..traits..iterator..Iterator$GT$9size_hint17h6443cbe350346080E', symObjAddr: 0x5F4, symBinAddr: 0x31890, symSize: 0x24 }
  - { offset: 0xE9954, size: 0x8, addend: 0x0, symName: '__ZN102_$LT$core..iter..adapters..map..Map$LT$I$C$F$GT$$u20$as$u20$core..iter..traits..iterator..Iterator$GT$9size_hint17h6b248c8407428a80E', symObjAddr: 0x618, symBinAddr: 0x318B4, symSize: 0x24 }
  - { offset: 0xE9ACA, size: 0x8, addend: 0x0, symName: '__ZN4core4iter8adapters3map12map_try_fold28_$u7b$$u7b$closure$u7d$$u7d$17h411cfa28e3dea893E', symObjAddr: 0x7F8, symBinAddr: 0x31A94, symSize: 0xD0 }
  - { offset: 0xE9B5D, size: 0x8, addend: 0x0, symName: '__ZN4core4iter8adapters3map12map_try_fold28_$u7b$$u7b$closure$u7d$$u7d$17h796accc2bd3a5f0cE', symObjAddr: 0x8C8, symBinAddr: 0x31B64, symSize: 0xD0 }
  - { offset: 0xE9BF0, size: 0x8, addend: 0x0, symName: '__ZN4core4iter8adapters3map12map_try_fold28_$u7b$$u7b$closure$u7d$$u7d$17ha11ce5819d7fb941E', symObjAddr: 0x998, symBinAddr: 0x31C34, symSize: 0xC8 }
  - { offset: 0xE9C82, size: 0x8, addend: 0x0, symName: '__ZN4core4iter8adapters3map12map_try_fold28_$u7b$$u7b$closure$u7d$$u7d$17hb8421008db0ba8e2E', symObjAddr: 0xA60, symBinAddr: 0x31CFC, symSize: 0xB8 }
  - { offset: 0xE9E31, size: 0x8, addend: 0x0, symName: '__ZN113_$LT$core..iter..adapters..map..Map$LT$I$C$F$GT$$u20$as$u20$core..iter..traits..exact_size..ExactSizeIterator$GT$3len17h09f2ea7896756169E', symObjAddr: 0x63C, symBinAddr: 0x318D8, symSize: 0x24 }
  - { offset: 0xE9E78, size: 0x8, addend: 0x0, symName: '__ZN113_$LT$core..iter..adapters..map..Map$LT$I$C$F$GT$$u20$as$u20$core..iter..traits..exact_size..ExactSizeIterator$GT$3len17h1d1b1980eeaea2c1E', symObjAddr: 0x660, symBinAddr: 0x318FC, symSize: 0x24 }
  - { offset: 0xE9EBF, size: 0x8, addend: 0x0, symName: '__ZN113_$LT$core..iter..adapters..map..Map$LT$I$C$F$GT$$u20$as$u20$core..iter..traits..exact_size..ExactSizeIterator$GT$3len17h91148b103b69ff7cE', symObjAddr: 0x684, symBinAddr: 0x31920, symSize: 0x24 }
  - { offset: 0xE9F06, size: 0x8, addend: 0x0, symName: '__ZN113_$LT$core..iter..adapters..map..Map$LT$I$C$F$GT$$u20$as$u20$core..iter..traits..exact_size..ExactSizeIterator$GT$3len17hea84287eaa42cadcE', symObjAddr: 0x6A8, symBinAddr: 0x31944, symSize: 0x24 }
  - { offset: 0xEA323, size: 0x8, addend: 0x0, symName: __ZN4core4iter6traits8iterator8Iterator4take17h2b68669b0d0ed659E, symObjAddr: 0x6CC, symBinAddr: 0x31968, symSize: 0x18 }
  - { offset: 0xEA369, size: 0x8, addend: 0x0, symName: __ZN4core4iter6traits8iterator8Iterator4take17h462fc6ae12041f9eE, symObjAddr: 0x6E4, symBinAddr: 0x31980, symSize: 0x18 }
  - { offset: 0xEA3AF, size: 0x8, addend: 0x0, symName: __ZN4core4iter6traits8iterator8Iterator4take17h4ef862f9c1b48d68E, symObjAddr: 0x6FC, symBinAddr: 0x31998, symSize: 0x18 }
  - { offset: 0xEA3F5, size: 0x8, addend: 0x0, symName: __ZN4core4iter6traits8iterator8Iterator4take17h7c87383711cf1dd8E, symObjAddr: 0x714, symBinAddr: 0x319B0, symSize: 0x18 }
  - { offset: 0xEA43B, size: 0x8, addend: 0x0, symName: __ZN4core4iter6traits8iterator8Iterator7collect17hb473f2ec22e6c8c8E, symObjAddr: 0x72C, symBinAddr: 0x319C8, symSize: 0x2C }
  - { offset: 0xEA47B, size: 0x8, addend: 0x0, symName: __ZN4core4iter6traits8iterator8Iterator7collect17hcc1df0021b896f2dE, symObjAddr: 0x758, symBinAddr: 0x319F4, symSize: 0x14 }
  - { offset: 0xEA4BC, size: 0x8, addend: 0x0, symName: __ZN4core4iter6traits8iterator8Iterator7collect17hd77aff6d5492080dE, symObjAddr: 0x76C, symBinAddr: 0x31A08, symSize: 0x14 }
  - { offset: 0xEA4FD, size: 0x8, addend: 0x0, symName: __ZN4core4iter6traits8iterator8Iterator8for_each17h8e8eeef7a6316053E, symObjAddr: 0x780, symBinAddr: 0x31A1C, symSize: 0x34 }
  - { offset: 0xEA569, size: 0x8, addend: 0x0, symName: __ZN4core4iter6traits8iterator8Iterator8for_each17hf606a9c4448e57faE, symObjAddr: 0x7B4, symBinAddr: 0x31A50, symSize: 0x44 }
  - { offset: 0xEA5DA, size: 0x8, addend: 0x0, symName: '__ZN72_$LT$$RF$mut$u20$I$u20$as$u20$core..iter..traits..iterator..Iterator$GT$4next17h25cfe34858043b3eE', symObjAddr: 0xDB4, symBinAddr: 0x32050, symSize: 0x28 }
  - { offset: 0xEA611, size: 0x8, addend: 0x0, symName: '__ZN72_$LT$$RF$mut$u20$I$u20$as$u20$core..iter..traits..iterator..Iterator$GT$4next17h2d4e448014de069eE', symObjAddr: 0xDDC, symBinAddr: 0x32078, symSize: 0x28 }
  - { offset: 0xEA648, size: 0x8, addend: 0x0, symName: '__ZN72_$LT$$RF$mut$u20$I$u20$as$u20$core..iter..traits..iterator..Iterator$GT$4next17h487e9fa95a22230dE', symObjAddr: 0xE04, symBinAddr: 0x320A0, symSize: 0x28 }
  - { offset: 0xEA67F, size: 0x8, addend: 0x0, symName: '__ZN72_$LT$$RF$mut$u20$I$u20$as$u20$core..iter..traits..iterator..Iterator$GT$4next17hf6b2c2539bdde802E', symObjAddr: 0xE2C, symBinAddr: 0x320C8, symSize: 0x28 }
  - { offset: 0xEA6B6, size: 0x8, addend: 0x0, symName: '__ZN72_$LT$$RF$mut$u20$I$u20$as$u20$core..iter..traits..iterator..Iterator$GT$8try_fold17h28e61df6d0024f82E', symObjAddr: 0xE54, symBinAddr: 0x320F0, symSize: 0x38 }
  - { offset: 0xEA726, size: 0x8, addend: 0x0, symName: '__ZN72_$LT$$RF$mut$u20$I$u20$as$u20$core..iter..traits..iterator..Iterator$GT$8try_fold17h2aa2ea062cc0f914E', symObjAddr: 0xE8C, symBinAddr: 0x32128, symSize: 0x38 }
  - { offset: 0xEA796, size: 0x8, addend: 0x0, symName: '__ZN72_$LT$$RF$mut$u20$I$u20$as$u20$core..iter..traits..iterator..Iterator$GT$8try_fold17h439623ff3a669b91E', symObjAddr: 0xEC4, symBinAddr: 0x32160, symSize: 0x38 }
  - { offset: 0xEA806, size: 0x8, addend: 0x0, symName: '__ZN72_$LT$$RF$mut$u20$I$u20$as$u20$core..iter..traits..iterator..Iterator$GT$8try_fold17hbf2fc70c9d41c60dE', symObjAddr: 0xEFC, symBinAddr: 0x32198, symSize: 0x38 }
  - { offset: 0xEA876, size: 0x8, addend: 0x0, symName: '__ZN72_$LT$$RF$mut$u20$I$u20$as$u20$core..iter..traits..iterator..Iterator$GT$8try_fold17hc12aaa7bed7b4262E', symObjAddr: 0xF34, symBinAddr: 0x321D0, symSize: 0x38 }
  - { offset: 0xEA8E6, size: 0x8, addend: 0x0, symName: '__ZN72_$LT$$RF$mut$u20$I$u20$as$u20$core..iter..traits..iterator..Iterator$GT$8try_fold17hcb09aa4f33f2fb26E', symObjAddr: 0xF6C, symBinAddr: 0x32208, symSize: 0x38 }
  - { offset: 0xEA956, size: 0x8, addend: 0x0, symName: '__ZN72_$LT$$RF$mut$u20$I$u20$as$u20$core..iter..traits..iterator..Iterator$GT$8try_fold17hd636110db049982fE', symObjAddr: 0xFA4, symBinAddr: 0x32240, symSize: 0x38 }
  - { offset: 0xEA9C6, size: 0x8, addend: 0x0, symName: '__ZN72_$LT$$RF$mut$u20$I$u20$as$u20$core..iter..traits..iterator..Iterator$GT$8try_fold17heac492ec7b2eaac3E', symObjAddr: 0xFDC, symBinAddr: 0x32278, symSize: 0x38 }
  - { offset: 0xEAA3C, size: 0x8, addend: 0x0, symName: '__ZN79_$LT$$RF$mut$u20$I$u20$as$u20$core..iter..traits..iterator..IteratorRefSpec$GT$13spec_try_fold17h3976558232ecf142E', symObjAddr: 0x1014, symBinAddr: 0x322B0, symSize: 0x3C }
  - { offset: 0xEAAAC, size: 0x8, addend: 0x0, symName: '__ZN79_$LT$$RF$mut$u20$I$u20$as$u20$core..iter..traits..iterator..IteratorRefSpec$GT$13spec_try_fold17h3a9d3c94828fc6fcE', symObjAddr: 0x1050, symBinAddr: 0x322EC, symSize: 0x3C }
  - { offset: 0xEAB1C, size: 0x8, addend: 0x0, symName: '__ZN79_$LT$$RF$mut$u20$I$u20$as$u20$core..iter..traits..iterator..IteratorRefSpec$GT$13spec_try_fold17h52c035d06eb738afE', symObjAddr: 0x108C, symBinAddr: 0x32328, symSize: 0x3C }
  - { offset: 0xEAB8C, size: 0x8, addend: 0x0, symName: '__ZN79_$LT$$RF$mut$u20$I$u20$as$u20$core..iter..traits..iterator..IteratorRefSpec$GT$13spec_try_fold17h5ea6364a40f3828eE', symObjAddr: 0x10C8, symBinAddr: 0x32364, symSize: 0x3C }
  - { offset: 0xEABFC, size: 0x8, addend: 0x0, symName: '__ZN79_$LT$$RF$mut$u20$I$u20$as$u20$core..iter..traits..iterator..IteratorRefSpec$GT$13spec_try_fold17h81c831300c66c8faE', symObjAddr: 0x1104, symBinAddr: 0x323A0, symSize: 0x3C }
  - { offset: 0xEAC6C, size: 0x8, addend: 0x0, symName: '__ZN79_$LT$$RF$mut$u20$I$u20$as$u20$core..iter..traits..iterator..IteratorRefSpec$GT$13spec_try_fold17hb500f54cc6eb492fE', symObjAddr: 0x1140, symBinAddr: 0x323DC, symSize: 0x3C }
  - { offset: 0xEACDC, size: 0x8, addend: 0x0, symName: '__ZN79_$LT$$RF$mut$u20$I$u20$as$u20$core..iter..traits..iterator..IteratorRefSpec$GT$13spec_try_fold17hd71937fd7d5a6991E', symObjAddr: 0x117C, symBinAddr: 0x32418, symSize: 0x3C }
  - { offset: 0xEAD4C, size: 0x8, addend: 0x0, symName: '__ZN79_$LT$$RF$mut$u20$I$u20$as$u20$core..iter..traits..iterator..IteratorRefSpec$GT$13spec_try_fold17hef32a48c096dafbeE', symObjAddr: 0x11B8, symBinAddr: 0x32454, symSize: 0x3C }
  - { offset: 0xEADC8, size: 0x8, addend: 0x0, symName: '__ZN63_$LT$I$u20$as$u20$core..iter..traits..collect..IntoIterator$GT$9into_iter17h106f76e0e8d5b1ccE', symObjAddr: 0xD50, symBinAddr: 0x31FEC, symSize: 0x30 }
  - { offset: 0xEAE00, size: 0x8, addend: 0x0, symName: '__ZN63_$LT$I$u20$as$u20$core..iter..traits..collect..IntoIterator$GT$9into_iter17hd26115afd937dd30E', symObjAddr: 0xD80, symBinAddr: 0x3201C, symSize: 0x1C }
  - { offset: 0xEAE37, size: 0x8, addend: 0x0, symName: '__ZN63_$LT$I$u20$as$u20$core..iter..traits..collect..IntoIterator$GT$9into_iter17hf7b20d582ca86a1dE', symObjAddr: 0xD9C, symBinAddr: 0x32038, symSize: 0x18 }
  - { offset: 0xEAE7A, size: 0x8, addend: 0x0, symName: '__ZN83_$LT$$RF$mut$u20$I$u20$as$u20$core..iter..traits..exact_size..ExactSizeIterator$GT$3len17h097e9473807530d3E', symObjAddr: 0x11F4, symBinAddr: 0x32490, symSize: 0x28 }
  - { offset: 0xEAEAF, size: 0x8, addend: 0x0, symName: '__ZN83_$LT$$RF$mut$u20$I$u20$as$u20$core..iter..traits..exact_size..ExactSizeIterator$GT$3len17h268aa56f7033cab9E', symObjAddr: 0x121C, symBinAddr: 0x324B8, symSize: 0x28 }
  - { offset: 0xEAEE4, size: 0x8, addend: 0x0, symName: '__ZN83_$LT$$RF$mut$u20$I$u20$as$u20$core..iter..traits..exact_size..ExactSizeIterator$GT$3len17h7e700a328e13d31eE', symObjAddr: 0x1244, symBinAddr: 0x324E0, symSize: 0x28 }
  - { offset: 0xEAF19, size: 0x8, addend: 0x0, symName: '__ZN83_$LT$$RF$mut$u20$I$u20$as$u20$core..iter..traits..exact_size..ExactSizeIterator$GT$3len17ha7066cd246bb5564E', symObjAddr: 0x126C, symBinAddr: 0x32508, symSize: 0x28 }
  - { offset: 0xEDA1C, size: 0x8, addend: 0x0, symName: '__ZN4core5tuple68_$LT$impl$u20$core..cmp..PartialEq$u20$for$u20$$LP$V$C$U$C$T$RP$$GT$2eq17hb57a4711ee94476aE', symObjAddr: 0x0, symBinAddr: 0x32530, symSize: 0x84 }
  - { offset: 0xEDA38, size: 0x8, addend: 0x0, symName: '__ZN4core5tuple68_$LT$impl$u20$core..cmp..PartialEq$u20$for$u20$$LP$V$C$U$C$T$RP$$GT$2eq17hb57a4711ee94476aE', symObjAddr: 0x0, symBinAddr: 0x32530, symSize: 0x84 }
  - { offset: 0xEDAF2, size: 0x8, addend: 0x0, symName: __ZN9hashbrown7control5group4neon5Group10match_full17hc48fddfdae30740aE, symObjAddr: 0x0, symBinAddr: 0x325B4, symSize: 0x68 }
  - { offset: 0xEDC0A, size: 0x8, addend: 0x0, symName: __ZN9hashbrown7control5group4neon5Group10match_full17hc48fddfdae30740aE, symObjAddr: 0x0, symBinAddr: 0x325B4, symSize: 0x68 }
  - { offset: 0xEDC42, size: 0x8, addend: 0x0, symName: __ZN9hashbrown7control5group4neon5Group22match_empty_or_deleted17ha58a95ffe4b56726E, symObjAddr: 0x68, symBinAddr: 0x3261C, symSize: 0x68 }
  - { offset: 0xEDC7A, size: 0x8, addend: 0x0, symName: __ZN9hashbrown7control5group4neon5Group44convert_special_to_empty_and_full_to_deleted17h5571b5abb66a5aabE, symObjAddr: 0xD0, symBinAddr: 0x32684, symSize: 0x88 }
  - { offset: 0xEDCB2, size: 0x8, addend: 0x0, symName: __ZN9hashbrown7control5group4neon5Group9match_tag17h3a5a01864dedf5faE, symObjAddr: 0x158, symBinAddr: 0x3270C, symSize: 0x7C }
  - { offset: 0xEDD1E, size: 0x8, addend: 0x0, symName: '__ZN104_$LT$core..str..pattern..MultiCharEqSearcher$LT$C$GT$$u20$as$u20$core..str..pattern..ReverseSearcher$GT$9next_back17hfdc0551ed782cd65E', symObjAddr: 0x0, symBinAddr: 0x32788, symSize: 0x128 }
  - { offset: 0xEDE83, size: 0x8, addend: 0x0, symName: '__ZN104_$LT$core..str..pattern..MultiCharEqSearcher$LT$C$GT$$u20$as$u20$core..str..pattern..ReverseSearcher$GT$9next_back17hfdc0551ed782cd65E', symObjAddr: 0x0, symBinAddr: 0x32788, symSize: 0x128 }
  - { offset: 0xEDFA7, size: 0x8, addend: 0x0, symName: '__ZN106_$LT$core..str..pattern..CharPredicateSearcher$LT$F$GT$$u20$as$u20$core..str..pattern..ReverseSearcher$GT$16next_reject_back17h5b844edd45bc6b1fE', symObjAddr: 0x128, symBinAddr: 0x328B0, symSize: 0x24 }
  - { offset: 0xEDFE4, size: 0x8, addend: 0x0, symName: __ZN4core3str7pattern15ReverseSearcher16next_reject_back17h194b0bf711300c40E, symObjAddr: 0x14C, symBinAddr: 0x328D4, symSize: 0x90 }
  - { offset: 0xEE04F, size: 0x8, addend: 0x0, symName: __ZN4core3str7pattern8Searcher11next_reject17h1653fb1daab8fe46E, symObjAddr: 0x1DC, symBinAddr: 0x32964, symSize: 0x90 }
  - { offset: 0xEE0B4, size: 0x8, addend: 0x0, symName: __ZN4core3str7pattern8Searcher11next_reject17h7cef78dea888d65fE, symObjAddr: 0x26C, symBinAddr: 0x329F4, symSize: 0x90 }
  - { offset: 0xEE11F, size: 0x8, addend: 0x0, symName: '__ZN95_$LT$core..str..pattern..MultiCharEqPattern$LT$C$GT$$u20$as$u20$core..str..pattern..Pattern$GT$13into_searcher17hc240c2bc82b20718E', symObjAddr: 0x2FC, symBinAddr: 0x32A84, symSize: 0x90 }
  - { offset: 0xEE181, size: 0x8, addend: 0x0, symName: '__ZN97_$LT$core..str..pattern..MultiCharEqSearcher$LT$C$GT$$u20$as$u20$core..str..pattern..Searcher$GT$4next17ha3a670dd6ca130fbE', symObjAddr: 0x38C, symBinAddr: 0x32B14, symSize: 0x128 }
  - { offset: 0xEE2A5, size: 0x8, addend: 0x0, symName: '__ZN99_$LT$core..str..pattern..CharPredicateSearcher$LT$F$GT$$u20$as$u20$core..str..pattern..Searcher$GT$11next_reject17h1bd07ea7ce6a9b68E', symObjAddr: 0x4B4, symBinAddr: 0x32C3C, symSize: 0x24 }
  - { offset: 0xEE602, size: 0x8, addend: 0x0, symName: '__ZN9hashbrown11rustc_entry62_$LT$impl$u20$hashbrown..map..HashMap$LT$K$C$V$C$S$C$A$GT$$GT$11rustc_entry28_$u7b$$u7b$closure$u7d$$u7d$17hb39447a95c9c4b79E', symObjAddr: 0x0, symBinAddr: 0x32C60, symSize: 0x38 }
  - { offset: 0xEE623, size: 0x8, addend: 0x0, symName: '__ZN9hashbrown11rustc_entry62_$LT$impl$u20$hashbrown..map..HashMap$LT$K$C$V$C$S$C$A$GT$$GT$11rustc_entry28_$u7b$$u7b$closure$u7d$$u7d$17hb39447a95c9c4b79E', symObjAddr: 0x0, symBinAddr: 0x32C60, symSize: 0x38 }
  - { offset: 0xEE73F, size: 0x8, addend: 0x0, symName: __ZN4pyo33err5PyErr10from_state17h935cf33cab90dc0eE, symObjAddr: 0x0, symBinAddr: 0x32C98, symSize: 0x30 }
  - { offset: 0xF03E3, size: 0x8, addend: 0x0, symName: __ZN4pyo33err5PyErr10from_state17h935cf33cab90dc0eE, symObjAddr: 0x0, symBinAddr: 0x32C98, symSize: 0x30 }
  - { offset: 0xF044C, size: 0x8, addend: 0x0, symName: __ZN4pyo33err5PyErr16write_unraisable17h3ddc8788c0dfcb9fE, symObjAddr: 0x30, symBinAddr: 0x32CC8, symSize: 0x58 }
  - { offset: 0xF049A, size: 0x8, addend: 0x0, symName: __ZN4pyo33err5PyErr7restore17h77de1516a56e594aE, symObjAddr: 0x88, symBinAddr: 0x32D20, symSize: 0x38 }
  - { offset: 0xF04F7, size: 0x8, addend: 0x0, symName: __ZN4core5error5Error11description17hc6f1a205d456e9a2E, symObjAddr: 0x0, symBinAddr: 0x32D58, symSize: 0x20 }
  - { offset: 0xF0513, size: 0x8, addend: 0x0, symName: __ZN4core5error5Error11description17hc6f1a205d456e9a2E, symObjAddr: 0x0, symBinAddr: 0x32D58, symSize: 0x20 }
  - { offset: 0xF0548, size: 0x8, addend: 0x0, symName: __ZN4core5error5Error5cause17h58b8b21db930024aE, symObjAddr: 0x20, symBinAddr: 0x32D78, symSize: 0x24 }
  - { offset: 0xF057D, size: 0x8, addend: 0x0, symName: __ZN4core5error5Error6source17h7e05542d7ab08512E, symObjAddr: 0x44, symBinAddr: 0x32D9C, symSize: 0x24 }
  - { offset: 0xF05B2, size: 0x8, addend: 0x0, symName: __ZN4core5error5Error7provide17h1079b8a7dbc39044E, symObjAddr: 0x68, symBinAddr: 0x32DC0, symSize: 0x18 }
  - { offset: 0xF05F1, size: 0x8, addend: 0x0, symName: __ZN4core5error5Error7type_id17h1cfcbcfb4304d7caE, symObjAddr: 0x80, symBinAddr: 0x32DD8, symSize: 0x20 }
  - { offset: 0xF0A5F, size: 0x8, addend: 0x0, symName: '__ZN45_$LT$T$u20$as$u20$alloc..string..ToString$GT$9to_string17h36b9f661084936f5E', symObjAddr: 0x75B0, symBinAddr: 0x34F24, symSize: 0x24 }
  - { offset: 0xF0A9C, size: 0x8, addend: 0x0, symName: '__ZN49_$LT$T$u20$as$u20$alloc..string..SpecToString$GT$14spec_to_string17h2eac645a6232bbc8E', symObjAddr: 0x7610, symBinAddr: 0x34F84, symSize: 0xF4 }
  - { offset: 0xF1B6E, size: 0x8, addend: 0x0, symName: '__ZN44_$LT$$RF$T$u20$as$u20$core..fmt..Display$GT$3fmt17hc193a919095f00b7E', symObjAddr: 0x74C0, symBinAddr: 0x34EC4, symSize: 0x30 }
  - { offset: 0xF1BB4, size: 0x8, addend: 0x0, symName: '__ZN44_$LT$$RF$T$u20$as$u20$core..fmt..Display$GT$3fmt17hee7309f0d408838cE', symObjAddr: 0x74F0, symBinAddr: 0x34EF4, symSize: 0x30 }
  - { offset: 0xF1DBA, size: 0x8, addend: 0x0, symName: '__ZN4core5array4iter94_$LT$impl$u20$core..iter..traits..collect..IntoIterator$u20$for$u20$$u5b$T$u3b$$u20$N$u5d$$GT$9into_iter17ha985f55d4fd9c9bdE', symObjAddr: 0x7704, symBinAddr: 0x35078, symSize: 0x48 }
  - { offset: 0xF1E17, size: 0x8, addend: 0x0, symName: '__ZN4core5array4iter94_$LT$impl$u20$core..iter..traits..collect..IntoIterator$u20$for$u20$$u5b$T$u3b$$u20$N$u5d$$GT$9into_iter17hd51e7bfb2d3549c5E', symObjAddr: 0x774C, symBinAddr: 0x350C0, symSize: 0x58 }
  - { offset: 0xF35C7, size: 0x8, addend: 0x0, symName: '__ZN50_$LT$T$u20$as$u20$core..convert..Into$LT$U$GT$$GT$4into17h5af9c5b255d55e1bE', symObjAddr: 0xDB90, symBinAddr: 0x37B68, symSize: 0x24 }
  - { offset: 0xF3607, size: 0x8, addend: 0x0, symName: '__ZN50_$LT$T$u20$as$u20$core..convert..Into$LT$U$GT$$GT$4into17h5cd6072cbdfc3e94E', symObjAddr: 0xDBB4, symBinAddr: 0x37B8C, symSize: 0x24 }
  - { offset: 0xF3647, size: 0x8, addend: 0x0, symName: '__ZN50_$LT$T$u20$as$u20$core..convert..Into$LT$U$GT$$GT$4into17h64e3665ca01ab238E', symObjAddr: 0xDBD8, symBinAddr: 0x37BB0, symSize: 0x24 }
  - { offset: 0xF3687, size: 0x8, addend: 0x0, symName: '__ZN50_$LT$T$u20$as$u20$core..convert..Into$LT$U$GT$$GT$4into17he86553cb98dc48e8E', symObjAddr: 0xDC8C, symBinAddr: 0x37BD4, symSize: 0x24 }
  - { offset: 0xF3F2A, size: 0x8, addend: 0x0, symName: '__ZN103_$LT$pyo3..instance..Bound$LT$pyo3..types..any..PyAny$GT$$u20$as$u20$pyo3..types..any..PyAnyMethods$GT$13downcast_into17h8b4f99795e66bfa2E', symObjAddr: 0x60C, symBinAddr: 0x32E14, symSize: 0xE8 }
  - { offset: 0xF3F61, size: 0x8, addend: 0x0, symName: '__ZN103_$LT$pyo3..instance..Bound$LT$pyo3..types..any..PyAny$GT$$u20$as$u20$pyo3..types..any..PyAnyMethods$GT$13downcast_into17h907c48d81e0a1220E', symObjAddr: 0x6F4, symBinAddr: 0x32EFC, symSize: 0xE8 }
  - { offset: 0xF3F98, size: 0x8, addend: 0x0, symName: '__ZN103_$LT$pyo3..instance..Bound$LT$pyo3..types..any..PyAny$GT$$u20$as$u20$pyo3..types..any..PyAnyMethods$GT$13downcast_into17ha2de37a0ee4967f7E', symObjAddr: 0x8C4, symBinAddr: 0x32FE4, symSize: 0xE8 }
  - { offset: 0xF3FCF, size: 0x8, addend: 0x0, symName: '__ZN103_$LT$pyo3..instance..Bound$LT$pyo3..types..any..PyAny$GT$$u20$as$u20$pyo3..types..any..PyAnyMethods$GT$18downcast_unchecked17h375471c61c00c869E', symObjAddr: 0xE44, symBinAddr: 0x330CC, symSize: 0x74 }
  - { offset: 0xF4006, size: 0x8, addend: 0x0, symName: '__ZN103_$LT$pyo3..instance..Bound$LT$pyo3..types..any..PyAny$GT$$u20$as$u20$pyo3..types..any..PyAnyMethods$GT$18downcast_unchecked17h9b2342e2c3ff14bcE', symObjAddr: 0xFA0, symBinAddr: 0x33140, symSize: 0x74 }
  - { offset: 0xF403D, size: 0x8, addend: 0x0, symName: '__ZN103_$LT$pyo3..instance..Bound$LT$pyo3..types..any..PyAny$GT$$u20$as$u20$pyo3..types..any..PyAnyMethods$GT$18downcast_unchecked17hf44a914f0df02d9dE', symObjAddr: 0x10FC, symBinAddr: 0x331B4, symSize: 0x74 }
  - { offset: 0xF4074, size: 0x8, addend: 0x0, symName: '__ZN103_$LT$pyo3..instance..Bound$LT$pyo3..types..any..PyAny$GT$$u20$as$u20$pyo3..types..any..PyAnyMethods$GT$23downcast_into_unchecked17h0a763150de39a4baE', symObjAddr: 0x1194, symBinAddr: 0x33228, symSize: 0x14 }
  - { offset: 0xF40AB, size: 0x8, addend: 0x0, symName: '__ZN103_$LT$pyo3..instance..Bound$LT$pyo3..types..any..PyAny$GT$$u20$as$u20$pyo3..types..any..PyAnyMethods$GT$23downcast_into_unchecked17h0e7aa91738c2ee59E', symObjAddr: 0x11A8, symBinAddr: 0x3323C, symSize: 0x14 }
  - { offset: 0xF40E2, size: 0x8, addend: 0x0, symName: '__ZN103_$LT$pyo3..instance..Bound$LT$pyo3..types..any..PyAny$GT$$u20$as$u20$pyo3..types..any..PyAnyMethods$GT$23downcast_into_unchecked17h1cb91966724ac604E', symObjAddr: 0x11E4, symBinAddr: 0x33250, symSize: 0x14 }
  - { offset: 0xF4119, size: 0x8, addend: 0x0, symName: '__ZN103_$LT$pyo3..instance..Bound$LT$pyo3..types..any..PyAny$GT$$u20$as$u20$pyo3..types..any..PyAnyMethods$GT$23downcast_into_unchecked17h2459884254736518E', symObjAddr: 0x120C, symBinAddr: 0x33264, symSize: 0x14 }
  - { offset: 0xF4150, size: 0x8, addend: 0x0, symName: '__ZN103_$LT$pyo3..instance..Bound$LT$pyo3..types..any..PyAny$GT$$u20$as$u20$pyo3..types..any..PyAnyMethods$GT$23downcast_into_unchecked17h33a8f46de6d5deb8E', symObjAddr: 0x125C, symBinAddr: 0x33278, symSize: 0x14 }
  - { offset: 0xF4187, size: 0x8, addend: 0x0, symName: '__ZN103_$LT$pyo3..instance..Bound$LT$pyo3..types..any..PyAny$GT$$u20$as$u20$pyo3..types..any..PyAnyMethods$GT$23downcast_into_unchecked17h3672ffee5bf803a4E', symObjAddr: 0x1270, symBinAddr: 0x3328C, symSize: 0x14 }
  - { offset: 0xF41BE, size: 0x8, addend: 0x0, symName: '__ZN103_$LT$pyo3..instance..Bound$LT$pyo3..types..any..PyAny$GT$$u20$as$u20$pyo3..types..any..PyAnyMethods$GT$23downcast_into_unchecked17h617980f47701325cE', symObjAddr: 0x12E8, symBinAddr: 0x332A0, symSize: 0x14 }
  - { offset: 0xF41F5, size: 0x8, addend: 0x0, symName: '__ZN103_$LT$pyo3..instance..Bound$LT$pyo3..types..any..PyAny$GT$$u20$as$u20$pyo3..types..any..PyAnyMethods$GT$23downcast_into_unchecked17h6ae86e8cd97539d4E', symObjAddr: 0x12FC, symBinAddr: 0x332B4, symSize: 0x14 }
  - { offset: 0xF422C, size: 0x8, addend: 0x0, symName: '__ZN103_$LT$pyo3..instance..Bound$LT$pyo3..types..any..PyAny$GT$$u20$as$u20$pyo3..types..any..PyAnyMethods$GT$23downcast_into_unchecked17h6c496b493cea5163E', symObjAddr: 0x1310, symBinAddr: 0x332C8, symSize: 0x14 }
  - { offset: 0xF4263, size: 0x8, addend: 0x0, symName: '__ZN103_$LT$pyo3..instance..Bound$LT$pyo3..types..any..PyAny$GT$$u20$as$u20$pyo3..types..any..PyAnyMethods$GT$23downcast_into_unchecked17h8a1f2c352326711aE', symObjAddr: 0x1360, symBinAddr: 0x332DC, symSize: 0x14 }
  - { offset: 0xF429A, size: 0x8, addend: 0x0, symName: '__ZN103_$LT$pyo3..instance..Bound$LT$pyo3..types..any..PyAny$GT$$u20$as$u20$pyo3..types..any..PyAnyMethods$GT$23downcast_into_unchecked17hf13baa05f10d54a2E', symObjAddr: 0x1400, symBinAddr: 0x332F0, symSize: 0x14 }
  - { offset: 0xF42D1, size: 0x8, addend: 0x0, symName: '__ZN103_$LT$pyo3..instance..Bound$LT$pyo3..types..any..PyAny$GT$$u20$as$u20$pyo3..types..any..PyAnyMethods$GT$23downcast_into_unchecked17hf769356da7ee3bfbE', symObjAddr: 0x1414, symBinAddr: 0x33304, symSize: 0x14 }
  - { offset: 0xF4308, size: 0x8, addend: 0x0, symName: '__ZN103_$LT$pyo3..instance..Bound$LT$pyo3..types..any..PyAny$GT$$u20$as$u20$pyo3..types..any..PyAnyMethods$GT$2is17hfb531094d3f1ac77E', symObjAddr: 0x1428, symBinAddr: 0x33318, symSize: 0x54 }
  - { offset: 0xF4374, size: 0x8, addend: 0x0, symName: '__ZN103_$LT$pyo3..instance..Bound$LT$pyo3..types..any..PyAny$GT$$u20$as$u20$pyo3..types..any..PyAnyMethods$GT$3str17h05017810cc0fb295E', symObjAddr: 0x1C98, symBinAddr: 0x3336C, symSize: 0x5C }
  - { offset: 0xF43A2, size: 0x8, addend: 0x0, symName: '__ZN103_$LT$pyo3..instance..Bound$LT$pyo3..types..any..PyAny$GT$$u20$as$u20$pyo3..types..any..PyAnyMethods$GT$4repr17h1cdd6756b4ca2001E', symObjAddr: 0x1F38, symBinAddr: 0x333C8, symSize: 0x5C }
  - { offset: 0xF43D0, size: 0x8, addend: 0x0, symName: '__ZN103_$LT$pyo3..instance..Bound$LT$pyo3..types..any..PyAny$GT$$u20$as$u20$pyo3..types..any..PyAnyMethods$GT$5call017hf312f8c29b3b8c27E', symObjAddr: 0x1F94, symBinAddr: 0x33424, symSize: 0x4C }
  - { offset: 0xF43FE, size: 0x8, addend: 0x0, symName: '__ZN103_$LT$pyo3..instance..Bound$LT$pyo3..types..any..PyAny$GT$$u20$as$u20$pyo3..types..any..PyAnyMethods$GT$7extract17h31a7b8761310d3f5E', symObjAddr: 0x2248, symBinAddr: 0x33470, symSize: 0x30 }
  - { offset: 0xF4435, size: 0x8, addend: 0x0, symName: '__ZN103_$LT$pyo3..instance..Bound$LT$pyo3..types..any..PyAny$GT$$u20$as$u20$pyo3..types..any..PyAnyMethods$GT$7extract17h6afd7f8d03762533E', symObjAddr: 0x2338, symBinAddr: 0x334A0, symSize: 0x30 }
  - { offset: 0xF446C, size: 0x8, addend: 0x0, symName: '__ZN103_$LT$pyo3..instance..Bound$LT$pyo3..types..any..PyAny$GT$$u20$as$u20$pyo3..types..any..PyAnyMethods$GT$7extract17hdeb08b9289c1efb2E', symObjAddr: 0x24B8, symBinAddr: 0x334D0, symSize: 0x30 }
  - { offset: 0xF44A3, size: 0x8, addend: 0x0, symName: '__ZN103_$LT$pyo3..instance..Bound$LT$pyo3..types..any..PyAny$GT$$u20$as$u20$pyo3..types..any..PyAnyMethods$GT$7getattr17h36aa4920a36b94b5E', symObjAddr: 0x2660, symBinAddr: 0x33500, symSize: 0x148 }
  - { offset: 0xF4529, size: 0x8, addend: 0x0, symName: '__ZN103_$LT$pyo3..instance..Bound$LT$pyo3..types..any..PyAny$GT$$u20$as$u20$pyo3..types..any..PyAnyMethods$GT$7setattr17h51f8bcd65dfd5e19E', symObjAddr: 0x295C, symBinAddr: 0x33648, symSize: 0x234 }
  - { offset: 0xF45F6, size: 0x8, addend: 0x0, symName: '__ZN103_$LT$pyo3..instance..Bound$LT$pyo3..types..any..PyAny$GT$$u20$as$u20$pyo3..types..any..PyAnyMethods$GT$7setattr17he7a169df1d8f3f63E', symObjAddr: 0x2B90, symBinAddr: 0x3387C, symSize: 0x234 }
  - { offset: 0xF46C3, size: 0x8, addend: 0x0, symName: '__ZN103_$LT$pyo3..instance..Bound$LT$pyo3..types..any..PyAny$GT$$u20$as$u20$pyo3..types..any..PyAnyMethods$GT$8downcast17h5dd5861052b4216aE', symObjAddr: 0x3018, symBinAddr: 0x33AB0, symSize: 0x84 }
  - { offset: 0xF46FA, size: 0x8, addend: 0x0, symName: '__ZN103_$LT$pyo3..instance..Bound$LT$pyo3..types..any..PyAny$GT$$u20$as$u20$pyo3..types..any..PyAnyMethods$GT$8downcast17heeea439b70882235E', symObjAddr: 0x3228, symBinAddr: 0x33B34, symSize: 0x84 }
  - { offset: 0xF4731, size: 0x8, addend: 0x0, symName: '__ZN103_$LT$pyo3..instance..Bound$LT$pyo3..types..any..PyAny$GT$$u20$as$u20$pyo3..types..any..PyAnyMethods$GT$8get_type17h18211fb6c52671e1E', symObjAddr: 0x340C, symBinAddr: 0x33BB8, symSize: 0x38 }
  - { offset: 0xF475F, size: 0x8, addend: 0x0, symName: '__ZN103_$LT$pyo3..instance..Bound$LT$pyo3..types..any..PyAny$GT$$u20$as$u20$pyo3..types..any..PyAnyMethods$GT$8try_iter17hf6a357c396075828E', symObjAddr: 0x34F8, symBinAddr: 0x33BF0, symSize: 0x24 }
  - { offset: 0xF47FC, size: 0x8, addend: 0x0, symName: '__ZN107_$LT$pyo3..instance..Bound$LT$pyo3..types..list..PyList$GT$$u20$as$u20$pyo3..types..list..PyListMethods$GT$6append17hc00f3e3472b0f10aE', symObjAddr: 0x3B70, symBinAddr: 0x33C80, symSize: 0x14C }
  - { offset: 0xF4893, size: 0x8, addend: 0x0, symName: '__ZN111_$LT$pyo3..instance..Bound$LT$pyo3..types..bytes..PyBytes$GT$$u20$as$u20$pyo3..types..bytes..PyBytesMethods$GT$8as_bytes17he2fe893ab4f898acE', symObjAddr: 0x3E5C, symBinAddr: 0x33DCC, symSize: 0x28 }
  - { offset: 0xF48FB, size: 0x8, addend: 0x0, symName: '__ZN111_$LT$pyo3..instance..Bound$LT$pyo3..types..tuple..PyTuple$GT$$u20$as$u20$pyo3..types..tuple..PyTupleMethods$GT$3len17he19a802e7bf05f06E', symObjAddr: 0x40D0, symBinAddr: 0x33DF4, symSize: 0x2C }
  - { offset: 0xF4975, size: 0x8, addend: 0x0, symName: '__ZN115_$LT$pyo3..instance..Bound$LT$pyo3..types..module..PyModule$GT$$u20$as$u20$pyo3..types..module..PyModuleMethods$GT$12add_function17h9d91ed0859de9052E', symObjAddr: 0x4498, symBinAddr: 0x33E44, symSize: 0x21C }
  - { offset: 0xF4A28, size: 0x8, addend: 0x0, symName: '__ZN115_$LT$pyo3..instance..Bound$LT$pyo3..types..module..PyModule$GT$$u20$as$u20$pyo3..types..module..PyModuleMethods$GT$3add17hec576915465891adE', symObjAddr: 0x4CAC, symBinAddr: 0x34060, symSize: 0x280 }
  - { offset: 0xF4AF5, size: 0x8, addend: 0x0, symName: '__ZN115_$LT$pyo3..instance..Bound$LT$pyo3..types..module..PyModule$GT$$u20$as$u20$pyo3..types..module..PyModuleMethods$GT$4name17hdc512f163b1337e0E', symObjAddr: 0x4F80, symBinAddr: 0x342E0, symSize: 0x5C }
  - { offset: 0xF4B23, size: 0x8, addend: 0x0, symName: '__ZN115_$LT$pyo3..instance..Bound$LT$pyo3..types..module..PyModule$GT$$u20$as$u20$pyo3..types..module..PyModuleMethods$GT$5index17hc89748e17901a4b7E', symObjAddr: 0x4FDC, symBinAddr: 0x3433C, symSize: 0x25C }
  - { offset: 0xF4BF6, size: 0x8, addend: 0x0, symName: '__ZN115_$LT$pyo3..instance..Bound$LT$pyo3..types..string..PyString$GT$$u20$as$u20$pyo3..types..string..PyStringMethods$GT$15to_string_lossy17h5d98cf38c76e4e7dE', symObjAddr: 0x5308, symBinAddr: 0x34598, symSize: 0x30 }
  - { offset: 0xF4C24, size: 0x8, addend: 0x0, symName: '__ZN115_$LT$pyo3..instance..Bound$LT$pyo3..types..string..PyString$GT$$u20$as$u20$pyo3..types..string..PyStringMethods$GT$6to_cow17h727ed33a50a5cd35E', symObjAddr: 0x5368, symBinAddr: 0x345C8, symSize: 0x30 }
  - { offset: 0xF4CF2, size: 0x8, addend: 0x0, symName: '__ZN119_$LT$pyo3..instance..Bound$LT$pyo3..types..typeobject..PyType$GT$$u20$as$u20$pyo3..types..typeobject..PyTypeMethods$GT$11as_type_ptr17h9fe036b7408db9e7E', symObjAddr: 0x5B6C, symBinAddr: 0x345F8, symSize: 0x24 }
  - { offset: 0xF4D1E, size: 0x8, addend: 0x0, symName: '__ZN119_$LT$pyo3..instance..Bound$LT$pyo3..types..typeobject..PyType$GT$$u20$as$u20$pyo3..types..typeobject..PyTypeMethods$GT$4name17h542de9c663850859E', symObjAddr: 0x6230, symBinAddr: 0x3461C, symSize: 0xE0 }
  - { offset: 0xF4D87, size: 0x8, addend: 0x0, symName: '__ZN119_$LT$pyo3..instance..Bound$LT$pyo3..types..typeobject..PyType$GT$$u20$as$u20$pyo3..types..typeobject..PyTypeMethods$GT$8qualname17hf529ab507ebbc7f6E', symObjAddr: 0x64FC, symBinAddr: 0x346FC, symSize: 0xE0 }
  - { offset: 0xF4E47, size: 0x8, addend: 0x0, symName: '__ZN127_$LT$pyo3..instance..Bound$LT$pyo3..types..traceback..PyTraceback$GT$$u20$as$u20$pyo3..types..traceback..PyTracebackMethods$GT$6format17h93ebe665fae95cc0E', symObjAddr: 0x6964, symBinAddr: 0x347DC, symSize: 0x67C }
  - { offset: 0xF50B8, size: 0x8, addend: 0x0, symName: '__ZN105_$LT$pyo3..instance..Py$LT$T$GT$$u20$as$u20$core..convert..From$LT$pyo3..instance..Bound$LT$T$GT$$GT$$GT$4from17h75b8e6033a877340E', symObjAddr: 0x36B4, symBinAddr: 0x33C14, symSize: 0x24 }
  - { offset: 0xF50EF, size: 0x8, addend: 0x0, symName: '__ZN105_$LT$pyo3..instance..Py$LT$T$GT$$u20$as$u20$core..convert..From$LT$pyo3..instance..Bound$LT$T$GT$$GT$$GT$4from17haf8e919bee5bc9caE', symObjAddr: 0x36D8, symBinAddr: 0x33C38, symSize: 0x24 }
  - { offset: 0xF5126, size: 0x8, addend: 0x0, symName: '__ZN105_$LT$pyo3..instance..Py$LT$T$GT$$u20$as$u20$core..convert..From$LT$pyo3..instance..Bound$LT$T$GT$$GT$$GT$4from17hefa8ba9a9d8794b3E', symObjAddr: 0x36FC, symBinAddr: 0x33C5C, symSize: 0x24 }
  - { offset: 0xF5163, size: 0x8, addend: 0x0, symName: '__ZN115_$LT$pyo3..instance..Borrowed$LT$T$GT$$u20$as$u20$core..convert..From$LT$$RF$pyo3..instance..Bound$LT$T$GT$$GT$$GT$4from17ha47301c96e39ef21E', symObjAddr: 0x4474, symBinAddr: 0x33E20, symSize: 0x24 }
  - { offset: 0xF51A0, size: 0x8, addend: 0x0, symName: '__ZN127_$LT$pyo3..instance..Py$LT$pyo3..types..any..PyAny$GT$$u20$as$u20$core..convert..From$LT$pyo3..instance..Bound$LT$T$GT$$GT$$GT$4from17hff1e020db4bdc5abE', symObjAddr: 0x7058, symBinAddr: 0x34E58, symSize: 0x28 }
  - { offset: 0xF65D9, size: 0x8, addend: 0x0, symName: '__ZN4pyo38instance11Py$LT$T$GT$21from_owned_ptr_or_opt28_$u7b$$u7b$closure$u7d$$u7d$17he143df23fee5ad7bE', symObjAddr: 0xA018, symBinAddr: 0x35A5C, symSize: 0x14 }
  - { offset: 0xF69D3, size: 0x8, addend: 0x0, symName: __ZN4pyo38instance13python_format17h1144b3ed19a812d8E, symObjAddr: 0xB8E8, symBinAddr: 0x3659C, symSize: 0x2F8 }
  - { offset: 0xF726E, size: 0x8, addend: 0x0, symName: '__ZN4pyo38instance36Bound$LT$pyo3..types..any..PyAny$GT$21from_owned_ptr_or_err28_$u7b$$u7b$closure$u7d$$u7d$17h159aaa416aaed884E', symObjAddr: 0xD740, symBinAddr: 0x37890, symSize: 0x28 }
  - { offset: 0xF72CC, size: 0x8, addend: 0x0, symName: '__ZN4pyo38instance36Bound$LT$pyo3..types..any..PyAny$GT$21from_owned_ptr_or_opt28_$u7b$$u7b$closure$u7d$$u7d$17h2f27519ed0d1a0c6E', symObjAddr: 0xD794, symBinAddr: 0x378E4, symSize: 0x28 }
  - { offset: 0xF7330, size: 0x8, addend: 0x0, symName: '__ZN4pyo38instance39Borrowed$LT$pyo3..types..any..PyAny$GT$8from_ptr28_$u7b$$u7b$closure$u7d$$u7d$17hc26f71ff21cf447aE', symObjAddr: 0xDAF4, symBinAddr: 0x37ACC, symSize: 0x1C }
  - { offset: 0xF7384, size: 0x8, addend: 0x0, symName: '__ZN67_$LT$pyo3..instance..Bound$LT$T$GT$$u20$as$u20$core..fmt..Debug$GT$3fmt17h3a2ab3eae8a3894cE', symObjAddr: 0xDCD4, symBinAddr: 0x37BF8, symSize: 0x54 }
  - { offset: 0xF73E8, size: 0x8, addend: 0x0, symName: '__ZN67_$LT$pyo3..instance..Bound$LT$T$GT$$u20$as$u20$core..fmt..Debug$GT$3fmt17h3eeed757b0301365E', symObjAddr: 0xDD28, symBinAddr: 0x37C4C, symSize: 0x54 }
  - { offset: 0xF744C, size: 0x8, addend: 0x0, symName: '__ZN67_$LT$pyo3..instance..Bound$LT$T$GT$$u20$as$u20$core..fmt..Debug$GT$3fmt17hef7b1cc154315866E', symObjAddr: 0xDD7C, symBinAddr: 0x37CA0, symSize: 0x54 }
  - { offset: 0xF74B6, size: 0x8, addend: 0x0, symName: '__ZN69_$LT$pyo3..instance..Bound$LT$T$GT$$u20$as$u20$core..clone..Clone$GT$5clone17h48f1494323509b41E', symObjAddr: 0xDE38, symBinAddr: 0x37CF4, symSize: 0x34 }
  - { offset: 0xF74ED, size: 0x8, addend: 0x0, symName: '__ZN69_$LT$pyo3..instance..Bound$LT$T$GT$$u20$as$u20$core..clone..Clone$GT$5clone17ha24fe5503ad8e3d1E', symObjAddr: 0xDF3C, symBinAddr: 0x37D28, symSize: 0x34 }
  - { offset: 0xF7524, size: 0x8, addend: 0x0, symName: '__ZN69_$LT$pyo3..instance..Bound$LT$T$GT$$u20$as$u20$core..clone..Clone$GT$5clone17hd83d8db5040b9f1aE', symObjAddr: 0xDFD8, symBinAddr: 0x37D5C, symSize: 0x34 }
  - { offset: 0xF7561, size: 0x8, addend: 0x0, symName: '__ZN69_$LT$pyo3..instance..Bound$LT$T$GT$$u20$as$u20$core..fmt..Display$GT$3fmt17h372cf67a45c5dfa9E', symObjAddr: 0xE040, symBinAddr: 0x37D90, symSize: 0x54 }
  - { offset: 0xF75C5, size: 0x8, addend: 0x0, symName: '__ZN69_$LT$pyo3..instance..Bound$LT$T$GT$$u20$as$u20$core..fmt..Display$GT$3fmt17h6bb1ab2911d9f169E', symObjAddr: 0xE094, symBinAddr: 0x37DE4, symSize: 0x54 }
  - { offset: 0xF7629, size: 0x8, addend: 0x0, symName: '__ZN69_$LT$pyo3..instance..Bound$LT$T$GT$$u20$as$u20$core..fmt..Display$GT$3fmt17h6ce7357fe68f94ffE', symObjAddr: 0xE0E8, symBinAddr: 0x37E38, symSize: 0x54 }
  - { offset: 0xF7693, size: 0x8, addend: 0x0, symName: '__ZN69_$LT$pyo3..instance..Py$LT$T$GT$$u20$as$u20$core..ops..drop..Drop$GT$4drop17h24033790bb544d69E', symObjAddr: 0xE190, symBinAddr: 0x37E8C, symSize: 0x28 }
  - { offset: 0xF76C6, size: 0x8, addend: 0x0, symName: '__ZN69_$LT$pyo3..instance..Py$LT$T$GT$$u20$as$u20$core..ops..drop..Drop$GT$4drop17h4706925b44ac3584E', symObjAddr: 0xE1B8, symBinAddr: 0x37EB4, symSize: 0x28 }
  - { offset: 0xF76F9, size: 0x8, addend: 0x0, symName: '__ZN69_$LT$pyo3..instance..Py$LT$T$GT$$u20$as$u20$core..ops..drop..Drop$GT$4drop17hc014cf0cfd49b089E', symObjAddr: 0xE1E0, symBinAddr: 0x37EDC, symSize: 0x28 }
  - { offset: 0xF772C, size: 0x8, addend: 0x0, symName: '__ZN69_$LT$pyo3..instance..Py$LT$T$GT$$u20$as$u20$core..ops..drop..Drop$GT$4drop17hda8e3fc9636ea395E', symObjAddr: 0xE208, symBinAddr: 0x37F04, symSize: 0x28 }
  - { offset: 0xF775F, size: 0x8, addend: 0x0, symName: '__ZN69_$LT$pyo3..instance..Py$LT$T$GT$$u20$as$u20$core..ops..drop..Drop$GT$4drop17he44f5e989ddbeebdE', symObjAddr: 0xE230, symBinAddr: 0x37F2C, symSize: 0x28 }
  - { offset: 0xF7798, size: 0x8, addend: 0x0, symName: '__ZN72_$LT$pyo3..instance..Bound$LT$T$GT$$u20$as$u20$core..ops..drop..Drop$GT$4drop17h1567b6b1a26a7188E', symObjAddr: 0xE280, symBinAddr: 0x37F54, symSize: 0x1A0 }
  - { offset: 0xF7807, size: 0x8, addend: 0x0, symName: '__ZN72_$LT$pyo3..instance..Bound$LT$T$GT$$u20$as$u20$core..ops..drop..Drop$GT$4drop17h33d3a96f9a004bdeE', symObjAddr: 0xE420, symBinAddr: 0x380F4, symSize: 0x1A0 }
  - { offset: 0xF7876, size: 0x8, addend: 0x0, symName: '__ZN72_$LT$pyo3..instance..Bound$LT$T$GT$$u20$as$u20$core..ops..drop..Drop$GT$4drop17h4f4d17487a5f0c83E', symObjAddr: 0xE760, symBinAddr: 0x38294, symSize: 0x1A0 }
  - { offset: 0xF78E5, size: 0x8, addend: 0x0, symName: '__ZN72_$LT$pyo3..instance..Bound$LT$T$GT$$u20$as$u20$core..ops..drop..Drop$GT$4drop17h50ff883bfa646cb8E', symObjAddr: 0xE900, symBinAddr: 0x38434, symSize: 0x1A0 }
  - { offset: 0xF7954, size: 0x8, addend: 0x0, symName: '__ZN72_$LT$pyo3..instance..Bound$LT$T$GT$$u20$as$u20$core..ops..drop..Drop$GT$4drop17h618439eecac05bd2E', symObjAddr: 0xEAA0, symBinAddr: 0x385D4, symSize: 0x1A0 }
  - { offset: 0xF79C3, size: 0x8, addend: 0x0, symName: '__ZN72_$LT$pyo3..instance..Bound$LT$T$GT$$u20$as$u20$core..ops..drop..Drop$GT$4drop17h6e351cec71fa7d91E', symObjAddr: 0xEC40, symBinAddr: 0x38774, symSize: 0x1A0 }
  - { offset: 0xF7A32, size: 0x8, addend: 0x0, symName: '__ZN72_$LT$pyo3..instance..Bound$LT$T$GT$$u20$as$u20$core..ops..drop..Drop$GT$4drop17h89cf32db54ca41feE', symObjAddr: 0xF120, symBinAddr: 0x38914, symSize: 0x1A0 }
  - { offset: 0xF7AA1, size: 0x8, addend: 0x0, symName: '__ZN72_$LT$pyo3..instance..Bound$LT$T$GT$$u20$as$u20$core..ops..drop..Drop$GT$4drop17haa539c48e3d6e694E', symObjAddr: 0xF460, symBinAddr: 0x38AB4, symSize: 0x1A0 }
  - { offset: 0xF7B10, size: 0x8, addend: 0x0, symName: '__ZN72_$LT$pyo3..instance..Bound$LT$T$GT$$u20$as$u20$core..ops..drop..Drop$GT$4drop17hbca313cc32935e8aE', symObjAddr: 0xF7A0, symBinAddr: 0x38C54, symSize: 0x1A0 }
  - { offset: 0xF7B7F, size: 0x8, addend: 0x0, symName: '__ZN72_$LT$pyo3..instance..Bound$LT$T$GT$$u20$as$u20$core..ops..drop..Drop$GT$4drop17hc4c0b70d61a35c8eE', symObjAddr: 0xFAE0, symBinAddr: 0x38DF4, symSize: 0x1A0 }
  - { offset: 0xF7BEE, size: 0x8, addend: 0x0, symName: '__ZN72_$LT$pyo3..instance..Bound$LT$T$GT$$u20$as$u20$core..ops..drop..Drop$GT$4drop17hdbcb7e1b3396fd05E', symObjAddr: 0xFE20, symBinAddr: 0x38F94, symSize: 0x1A0 }
  - { offset: 0xF7C63, size: 0x8, addend: 0x0, symName: '__ZN74_$LT$pyo3..instance..Bound$LT$T$GT$$u20$as$u20$core..ops..deref..Deref$GT$5deref17h20eba7ea1a5597e0E', symObjAddr: 0xFFC0, symBinAddr: 0x39134, symSize: 0x24 }
  - { offset: 0xF7C9A, size: 0x8, addend: 0x0, symName: '__ZN74_$LT$pyo3..instance..Bound$LT$T$GT$$u20$as$u20$core..ops..deref..Deref$GT$5deref17h2a84d2619dd85878E', symObjAddr: 0xFFE4, symBinAddr: 0x39158, symSize: 0x24 }
  - { offset: 0xF7CD1, size: 0x8, addend: 0x0, symName: '__ZN74_$LT$pyo3..instance..Bound$LT$T$GT$$u20$as$u20$core..ops..deref..Deref$GT$5deref17h3e179ce798344af5E', symObjAddr: 0x10008, symBinAddr: 0x3917C, symSize: 0x24 }
  - { offset: 0xF7D08, size: 0x8, addend: 0x0, symName: '__ZN74_$LT$pyo3..instance..Bound$LT$T$GT$$u20$as$u20$core..ops..deref..Deref$GT$5deref17h4e0172406e564b6fE', symObjAddr: 0x1002C, symBinAddr: 0x391A0, symSize: 0x24 }
  - { offset: 0xF7D3F, size: 0x8, addend: 0x0, symName: '__ZN74_$LT$pyo3..instance..Bound$LT$T$GT$$u20$as$u20$core..ops..deref..Deref$GT$5deref17h507572494f55a665E', symObjAddr: 0x10050, symBinAddr: 0x391C4, symSize: 0x24 }
  - { offset: 0xF7D76, size: 0x8, addend: 0x0, symName: '__ZN74_$LT$pyo3..instance..Bound$LT$T$GT$$u20$as$u20$core..ops..deref..Deref$GT$5deref17h9903894dfa5d9a39E', symObjAddr: 0x10128, symBinAddr: 0x391E8, symSize: 0x24 }
  - { offset: 0xF7DB3, size: 0x8, addend: 0x0, symName: '__ZN77_$LT$pyo3..instance..Borrowed$LT$T$GT$$u20$as$u20$core..ops..deref..Deref$GT$5deref17h0b437c4afae9e6eaE', symObjAddr: 0x10198, symBinAddr: 0x3920C, symSize: 0x74 }
  - { offset: 0xF7DEA, size: 0x8, addend: 0x0, symName: '__ZN77_$LT$pyo3..instance..Borrowed$LT$T$GT$$u20$as$u20$core..ops..deref..Deref$GT$5deref17h2356e03740bd9a19E', symObjAddr: 0x1020C, symBinAddr: 0x39280, symSize: 0x74 }
  - { offset: 0xF7E21, size: 0x8, addend: 0x0, symName: '__ZN77_$LT$pyo3..instance..Borrowed$LT$T$GT$$u20$as$u20$core..ops..deref..Deref$GT$5deref17h3ca8c8884b086344E', symObjAddr: 0x10280, symBinAddr: 0x392F4, symSize: 0x74 }
  - { offset: 0xF7E58, size: 0x8, addend: 0x0, symName: '__ZN77_$LT$pyo3..instance..Borrowed$LT$T$GT$$u20$as$u20$core..ops..deref..Deref$GT$5deref17h609c85c1271c1860E', symObjAddr: 0x102F4, symBinAddr: 0x39368, symSize: 0x74 }
  - { offset: 0xF7E8F, size: 0x8, addend: 0x0, symName: '__ZN77_$LT$pyo3..instance..Borrowed$LT$T$GT$$u20$as$u20$core..ops..deref..Deref$GT$5deref17h87a7813b9eb6e04eE', symObjAddr: 0x10368, symBinAddr: 0x393DC, symSize: 0x74 }
  - { offset: 0xF7EC6, size: 0x8, addend: 0x0, symName: '__ZN77_$LT$pyo3..instance..Borrowed$LT$T$GT$$u20$as$u20$core..ops..deref..Deref$GT$5deref17hca979f406ae70f26E', symObjAddr: 0x104C4, symBinAddr: 0x39450, symSize: 0x74 }
  - { offset: 0xF7EFD, size: 0x8, addend: 0x0, symName: '__ZN77_$LT$pyo3..instance..Borrowed$LT$T$GT$$u20$as$u20$core..ops..deref..Deref$GT$5deref17he8fc53e5afa1d850E', symObjAddr: 0x105AC, symBinAddr: 0x394C4, symSize: 0x74 }
  - { offset: 0xF7F3A, size: 0x8, addend: 0x0, symName: '__ZN80_$LT$pyo3..instance..Bound$LT$T$GT$$u20$as$u20$pyo3..conversion..AsPyPointer$GT$6as_ptr17h5467d202f2b70783E', symObjAddr: 0x10644, symBinAddr: 0x3955C, symSize: 0x2C }
  - { offset: 0xF7F77, size: 0x8, addend: 0x0, symName: '__ZN87_$LT$pyo3..instance..Bound$LT$T$GT$$u20$as$u20$pyo3..instance..BoundObject$LT$T$GT$$GT$10into_bound17hfaa99b5e1f192f81E', symObjAddr: 0x1081C, symBinAddr: 0x39644, symSize: 0x14 }
  - { offset: 0xF7FAE, size: 0x8, addend: 0x0, symName: '__ZN87_$LT$pyo3..instance..Bound$LT$T$GT$$u20$as$u20$pyo3..instance..BoundObject$LT$T$GT$$GT$11as_borrowed17h12ea40b474963098E', symObjAddr: 0x10830, symBinAddr: 0x39658, symSize: 0x24 }
  - { offset: 0xF7FE5, size: 0x8, addend: 0x0, symName: '__ZN87_$LT$pyo3..instance..Bound$LT$T$GT$$u20$as$u20$pyo3..instance..BoundObject$LT$T$GT$$GT$11as_borrowed17ha3c16337d9c099d8E', symObjAddr: 0x10854, symBinAddr: 0x3967C, symSize: 0x24 }
  - { offset: 0xF801C, size: 0x8, addend: 0x0, symName: '__ZN87_$LT$pyo3..instance..Bound$LT$T$GT$$u20$as$u20$pyo3..instance..BoundObject$LT$T$GT$$GT$6unbind17h86b4d65d75b66428E', symObjAddr: 0x1089C, symBinAddr: 0x396A0, symSize: 0x24 }
  - { offset: 0xF8053, size: 0x8, addend: 0x0, symName: '__ZN87_$LT$pyo3..instance..Bound$LT$T$GT$$u20$as$u20$pyo3..instance..BoundObject$LT$T$GT$$GT$8into_any17h63610718f86ac7a1E', symObjAddr: 0x108C0, symBinAddr: 0x396C4, symSize: 0x24 }
  - { offset: 0xF808A, size: 0x8, addend: 0x0, symName: '__ZN87_$LT$pyo3..instance..Bound$LT$T$GT$$u20$as$u20$pyo3..instance..BoundObject$LT$T$GT$$GT$8into_any17h750160f35703c363E', symObjAddr: 0x108E4, symBinAddr: 0x396E8, symSize: 0x24 }
  - { offset: 0xF80C1, size: 0x8, addend: 0x0, symName: '__ZN87_$LT$pyo3..instance..Bound$LT$T$GT$$u20$as$u20$pyo3..instance..BoundObject$LT$T$GT$$GT$8into_any17h851b1c5314962516E', symObjAddr: 0x10908, symBinAddr: 0x3970C, symSize: 0x24 }
  - { offset: 0xF80F8, size: 0x8, addend: 0x0, symName: '__ZN87_$LT$pyo3..instance..Bound$LT$T$GT$$u20$as$u20$pyo3..instance..BoundObject$LT$T$GT$$GT$8into_any17h8f34332df8ea191dE', symObjAddr: 0x1092C, symBinAddr: 0x39730, symSize: 0x24 }
  - { offset: 0xF812F, size: 0x8, addend: 0x0, symName: '__ZN87_$LT$pyo3..instance..Bound$LT$T$GT$$u20$as$u20$pyo3..instance..BoundObject$LT$T$GT$$GT$8into_any17h917044a07ea0cdbeE', symObjAddr: 0x10950, symBinAddr: 0x39754, symSize: 0x24 }
  - { offset: 0xF8166, size: 0x8, addend: 0x0, symName: '__ZN87_$LT$pyo3..instance..Bound$LT$T$GT$$u20$as$u20$pyo3..instance..BoundObject$LT$T$GT$$GT$8into_any17hc9b8e8332cd6f163E', symObjAddr: 0x10998, symBinAddr: 0x39778, symSize: 0x24 }
  - { offset: 0xF81A3, size: 0x8, addend: 0x0, symName: '__ZN90_$LT$pyo3..instance..Borrowed$LT$T$GT$$u20$as$u20$pyo3..instance..BoundObject$LT$T$GT$$GT$11as_borrowed17h7fd3694df25ed646E', symObjAddr: 0x109E8, symBinAddr: 0x3979C, symSize: 0x18 }
  - { offset: 0xF81DA, size: 0x8, addend: 0x0, symName: '__ZN90_$LT$pyo3..instance..Borrowed$LT$T$GT$$u20$as$u20$pyo3..instance..BoundObject$LT$T$GT$$GT$11as_borrowed17ha913ba5181142af4E', symObjAddr: 0x10A00, symBinAddr: 0x397B4, symSize: 0x18 }
  - { offset: 0xF8211, size: 0x8, addend: 0x0, symName: '__ZN90_$LT$pyo3..instance..Borrowed$LT$T$GT$$u20$as$u20$pyo3..instance..BoundObject$LT$T$GT$$GT$6as_ptr17h27b9302882920075E', symObjAddr: 0x10A18, symBinAddr: 0x397CC, symSize: 0x28 }
  - { offset: 0xF8248, size: 0x8, addend: 0x0, symName: '__ZN90_$LT$pyo3..instance..Borrowed$LT$T$GT$$u20$as$u20$pyo3..instance..BoundObject$LT$T$GT$$GT$8into_any17h942a94e4d880fb83E', symObjAddr: 0x10AAC, symBinAddr: 0x397F4, symSize: 0x24 }
  - { offset: 0xF827F, size: 0x8, addend: 0x0, symName: '__ZN90_$LT$pyo3..instance..Borrowed$LT$T$GT$$u20$as$u20$pyo3..instance..BoundObject$LT$T$GT$$GT$8into_any17had14c9a7a7271641E', symObjAddr: 0x10AD0, symBinAddr: 0x39818, symSize: 0x24 }
  - { offset: 0xF82B6, size: 0x8, addend: 0x0, symName: '__ZN90_$LT$pyo3..instance..Borrowed$LT$T$GT$$u20$as$u20$pyo3..instance..BoundObject$LT$T$GT$$GT$8into_any17hc471af1c9a02e945E', symObjAddr: 0x10AF4, symBinAddr: 0x3983C, symSize: 0x24 }
  - { offset: 0xF82ED, size: 0x8, addend: 0x0, symName: '__ZN90_$LT$pyo3..instance..Borrowed$LT$T$GT$$u20$as$u20$pyo3..instance..BoundObject$LT$T$GT$$GT$8into_any17hd5baf60edac35e5bE', symObjAddr: 0x10B18, symBinAddr: 0x39860, symSize: 0x24 }
  - { offset: 0xF8335, size: 0x8, addend: 0x0, symName: '__ZN196_$LT$$RF$pyo3..instance..Bound$LT$pyo3..types..module..PyModule$GT$$u20$as$u20$pyo3..impl_..pyfunction..WrapPyFunctionArg$LT$pyo3..instance..Bound$LT$pyo3..types..function..PyCFunction$GT$$GT$$GT$15wrap_pyfunction17hc1760c19eaeafa4cE', symObjAddr: 0x742C, symBinAddr: 0x34E80, symSize: 0x44 }
  - { offset: 0xF8455, size: 0x8, addend: 0x0, symName: '__ZN47_$LT$T$u20$as$u20$pyo3..err..PyErrArguments$GT$9arguments17hbf33184d5891dba7E', symObjAddr: 0x75D4, symBinAddr: 0x34F48, symSize: 0x3C }
  - { offset: 0xF8635, size: 0x8, addend: 0x0, symName: __ZN4pyo310conversion15IntoPyObjectExt22into_pyobject_or_pyerr17h37002fc38c2ac9dbE, symObjAddr: 0x78E4, symBinAddr: 0x35118, symSize: 0x48 }
  - { offset: 0xF86A5, size: 0x8, addend: 0x0, symName: __ZN4pyo310conversion15IntoPyObjectExt22into_pyobject_or_pyerr17h3cbd7f75473de389E, symObjAddr: 0x792C, symBinAddr: 0x35160, symSize: 0x48 }
  - { offset: 0xF8715, size: 0x8, addend: 0x0, symName: __ZN4pyo310conversion15IntoPyObjectExt22into_pyobject_or_pyerr17h477fa9e9559429e3E, symObjAddr: 0x7974, symBinAddr: 0x351A8, symSize: 0x48 }
  - { offset: 0xF8785, size: 0x8, addend: 0x0, symName: __ZN4pyo310conversion15IntoPyObjectExt22into_pyobject_or_pyerr17h66bd1c8ec6a73e76E, symObjAddr: 0x79BC, symBinAddr: 0x351F0, symSize: 0x48 }
  - { offset: 0xF87F5, size: 0x8, addend: 0x0, symName: __ZN4pyo310conversion15IntoPyObjectExt22into_pyobject_or_pyerr17h73db088f0e69aa3cE, symObjAddr: 0x7A04, symBinAddr: 0x35238, symSize: 0x48 }
  - { offset: 0xF8865, size: 0x8, addend: 0x0, symName: __ZN4pyo310conversion15IntoPyObjectExt22into_pyobject_or_pyerr17hac970ca3e831778cE, symObjAddr: 0x7A94, symBinAddr: 0x35280, symSize: 0x48 }
  - { offset: 0xF88DB, size: 0x8, addend: 0x0, symName: '__ZN78_$LT$pyo3..instance..Py$LT$T$GT$$u20$as$u20$pyo3..conversion..IntoPyObject$GT$13into_pyobject17h9b75f8deccd3556cE', symObjAddr: 0x10620, symBinAddr: 0x39538, symSize: 0x24 }
  - { offset: 0xF8933, size: 0x8, addend: 0x0, symName: '__ZN81_$LT$pyo3..instance..Bound$LT$T$GT$$u20$as$u20$pyo3..conversion..IntoPyObject$GT$13into_pyobject17h6b0cdebfb0b60975E', symObjAddr: 0x10684, symBinAddr: 0x39588, symSize: 0x14 }
  - { offset: 0xF8985, size: 0x8, addend: 0x0, symName: '__ZN81_$LT$pyo3..instance..Bound$LT$T$GT$$u20$as$u20$pyo3..conversion..IntoPyObject$GT$13into_pyobject17hfdc836f10c33aafbE', symObjAddr: 0x106AC, symBinAddr: 0x3959C, symSize: 0x14 }
  - { offset: 0xF89DD, size: 0x8, addend: 0x0, symName: '__ZN84_$LT$pyo3..instance..Borrowed$LT$T$GT$$u20$as$u20$pyo3..conversion..IntoPyObject$GT$13into_pyobject17h3a458563ca2ddf7fE', symObjAddr: 0x106E4, symBinAddr: 0x395B0, symSize: 0x14 }
  - { offset: 0xF8A2F, size: 0x8, addend: 0x0, symName: '__ZN84_$LT$pyo3..instance..Borrowed$LT$T$GT$$u20$as$u20$pyo3..conversion..IntoPyObject$GT$13into_pyobject17h83643207939645a4E', symObjAddr: 0x1070C, symBinAddr: 0x395C4, symSize: 0x14 }
  - { offset: 0xF8A87, size: 0x8, addend: 0x0, symName: '__ZN85_$LT$$RF$pyo3..instance..Bound$LT$T$GT$$u20$as$u20$pyo3..conversion..IntoPyObject$GT$13into_pyobject17hb6d63015814f870fE', symObjAddr: 0x107B0, symBinAddr: 0x395D8, symSize: 0x24 }
  - { offset: 0xF8AD9, size: 0x8, addend: 0x0, symName: '__ZN85_$LT$$RF$pyo3..instance..Bound$LT$T$GT$$u20$as$u20$pyo3..conversion..IntoPyObject$GT$13into_pyobject17hd70b86b50229eb80E', symObjAddr: 0x107D4, symBinAddr: 0x395FC, symSize: 0x24 }
  - { offset: 0xF8B2B, size: 0x8, addend: 0x0, symName: '__ZN85_$LT$$RF$pyo3..instance..Bound$LT$T$GT$$u20$as$u20$pyo3..conversion..IntoPyObject$GT$13into_pyobject17hd9fcd8d78e428467E', symObjAddr: 0x107F8, symBinAddr: 0x39620, symSize: 0x24 }
  - { offset: 0xF913F, size: 0x8, addend: 0x0, symName: '__ZN4pyo35types4dict75_$LT$impl$u20$pyo3..instance..Borrowed$LT$pyo3..types..dict..PyDict$GT$$GT$13iter_borrowed17h8a533873e0b9c5f7E', symObjAddr: 0x7CB0, symBinAddr: 0x352C8, symSize: 0x24 }
  - { offset: 0xF9196, size: 0x8, addend: 0x0, symName: '__ZN4pyo35types5bytes77_$LT$impl$u20$pyo3..instance..Borrowed$LT$pyo3..types..bytes..PyBytes$GT$$GT$8as_bytes17h8f584df27fc78422E', symObjAddr: 0x7D44, symBinAddr: 0x352EC, symSize: 0x90 }
  - { offset: 0xF91EF, size: 0x8, addend: 0x0, symName: '__ZN4pyo35types5tuple77_$LT$impl$u20$pyo3..instance..Borrowed$LT$pyo3..types..tuple..PyTuple$GT$$GT$13iter_borrowed17h99521ef3f0b31af9E', symObjAddr: 0x8594, symBinAddr: 0x3537C, symSize: 0x24 }
  - { offset: 0xF940C, size: 0x8, addend: 0x0, symName: '__ZN4pyo35types5tuple77_$LT$impl$u20$pyo3..instance..Borrowed$LT$pyo3..types..tuple..PyTuple$GT$$GT$27get_borrowed_item_unchecked17h6c21c73251359b41E', symObjAddr: 0x8618, symBinAddr: 0x353A0, symSize: 0x60 }
  - { offset: 0xF9469, size: 0x8, addend: 0x0, symName: '__ZN4pyo35types6string79_$LT$impl$u20$pyo3..instance..Borrowed$LT$pyo3..types..string..PyString$GT$$GT$15to_string_lossy17h64bfd62709f33997E', symObjAddr: 0x8814, symBinAddr: 0x35400, symSize: 0x174 }
  - { offset: 0xF9533, size: 0x8, addend: 0x0, symName: '__ZN4pyo35types6string79_$LT$impl$u20$pyo3..instance..Borrowed$LT$pyo3..types..string..PyString$GT$$GT$6to_cow17h8cd4b3165b4c67f4E', symObjAddr: 0x8AF4, symBinAddr: 0x35574, symSize: 0x3C }
  - { offset: 0xF9556, size: 0x8, addend: 0x0, symName: '__ZN4pyo35types6string79_$LT$impl$u20$pyo3..instance..Borrowed$LT$pyo3..types..string..PyString$GT$$GT$6to_str17ha0430ebe13eef62dE', symObjAddr: 0x8B30, symBinAddr: 0x355B0, symSize: 0xD0 }
  - { offset: 0xF95C2, size: 0x8, addend: 0x0, symName: '__ZN4pyo35types8iterator83_$LT$impl$u20$pyo3..instance..Borrowed$LT$pyo3..types..iterator..PyIterator$GT$$GT$4next17h112d8d83ca8a39c1E', symObjAddr: 0x998C, symBinAddr: 0x35680, symSize: 0x9C }
  - { offset: 0xF9663, size: 0x8, addend: 0x0, symName: '__ZN4pyo38instance11Py$LT$T$GT$10into_bound17hdfd2525bad12c7f3E', symObjAddr: 0x9B8C, symBinAddr: 0x3571C, symSize: 0x1C }
  - { offset: 0xF96AA, size: 0x8, addend: 0x0, symName: '__ZN4pyo38instance11Py$LT$T$GT$13from_non_null17h06ad020b01663ccfE', symObjAddr: 0x9BF0, symBinAddr: 0x35738, symSize: 0x14 }
  - { offset: 0xF96D6, size: 0x8, addend: 0x0, symName: '__ZN4pyo38instance11Py$LT$T$GT$13from_non_null17h2b07ee366364308aE', symObjAddr: 0x9C18, symBinAddr: 0x3574C, symSize: 0x14 }
  - { offset: 0xF9702, size: 0x8, addend: 0x0, symName: '__ZN4pyo38instance11Py$LT$T$GT$13from_non_null17h46b98f7eeb12a65bE', symObjAddr: 0x9C54, symBinAddr: 0x35760, symSize: 0x14 }
  - { offset: 0xF972E, size: 0x8, addend: 0x0, symName: '__ZN4pyo38instance11Py$LT$T$GT$13from_non_null17h4da61b3f7634023bE', symObjAddr: 0x9C68, symBinAddr: 0x35774, symSize: 0x14 }
  - { offset: 0xF975A, size: 0x8, addend: 0x0, symName: '__ZN4pyo38instance11Py$LT$T$GT$13from_non_null17h50cd1d7e97dde1f5E', symObjAddr: 0x9C7C, symBinAddr: 0x35788, symSize: 0x14 }
  - { offset: 0xF9786, size: 0x8, addend: 0x0, symName: '__ZN4pyo38instance11Py$LT$T$GT$13from_non_null17h574f99fa9f6e088bE', symObjAddr: 0x9C90, symBinAddr: 0x3579C, symSize: 0x14 }
  - { offset: 0xF97B2, size: 0x8, addend: 0x0, symName: '__ZN4pyo38instance11Py$LT$T$GT$13from_non_null17h6b09db9509a3c363E', symObjAddr: 0x9CB8, symBinAddr: 0x357B0, symSize: 0x14 }
  - { offset: 0xF97DE, size: 0x8, addend: 0x0, symName: '__ZN4pyo38instance11Py$LT$T$GT$13from_non_null17h6c8375e4446073a4E', symObjAddr: 0x9CE0, symBinAddr: 0x357C4, symSize: 0x14 }
  - { offset: 0xF980A, size: 0x8, addend: 0x0, symName: '__ZN4pyo38instance11Py$LT$T$GT$13from_non_null17h6d09a211d9cbe80aE', symObjAddr: 0x9CF4, symBinAddr: 0x357D8, symSize: 0x14 }
  - { offset: 0xF9836, size: 0x8, addend: 0x0, symName: '__ZN4pyo38instance11Py$LT$T$GT$13from_non_null17h71142feae59bda3bE', symObjAddr: 0x9D08, symBinAddr: 0x357EC, symSize: 0x14 }
  - { offset: 0xF9862, size: 0x8, addend: 0x0, symName: '__ZN4pyo38instance11Py$LT$T$GT$13from_non_null17h8d57220551004d80E', symObjAddr: 0x9D44, symBinAddr: 0x35800, symSize: 0x14 }
  - { offset: 0xF988E, size: 0x8, addend: 0x0, symName: '__ZN4pyo38instance11Py$LT$T$GT$13from_non_null17ha4f95622848b5454E', symObjAddr: 0x9D58, symBinAddr: 0x35814, symSize: 0x14 }
  - { offset: 0xF98E5, size: 0x8, addend: 0x0, symName: '__ZN4pyo38instance11Py$LT$T$GT$14from_owned_ptr17h0d3cea2f119e4b65E', symObjAddr: 0x9D94, symBinAddr: 0x35828, symSize: 0x50 }
  - { offset: 0xF992C, size: 0x8, addend: 0x0, symName: '__ZN4pyo38instance11Py$LT$T$GT$21from_owned_ptr_or_err17h0429adb60e5e076aE', symObjAddr: 0x9E34, symBinAddr: 0x35878, symSize: 0x94 }
  - { offset: 0xF9991, size: 0x8, addend: 0x0, symName: '__ZN4pyo38instance11Py$LT$T$GT$21from_owned_ptr_or_err17hab1a09c9026667c2E', symObjAddr: 0x9EC8, symBinAddr: 0x3590C, symSize: 0x94 }
  - { offset: 0xF99F6, size: 0x8, addend: 0x0, symName: '__ZN4pyo38instance11Py$LT$T$GT$21from_owned_ptr_or_err17hd223f843fe64fb25E', symObjAddr: 0x9F5C, symBinAddr: 0x359A0, symSize: 0x94 }
  - { offset: 0xF9A5B, size: 0x8, addend: 0x0, symName: '__ZN4pyo38instance11Py$LT$T$GT$21from_owned_ptr_or_opt17hcceaa254f904fa26E', symObjAddr: 0x9FF0, symBinAddr: 0x35A34, symSize: 0x28 }
  - { offset: 0xF9AC9, size: 0x8, addend: 0x0, symName: '__ZN4pyo38instance11Py$LT$T$GT$4bind17h377ee717475a17f5E', symObjAddr: 0xA0CC, symBinAddr: 0x35A70, symSize: 0x74 }
  - { offset: 0xF9B2A, size: 0x8, addend: 0x0, symName: '__ZN4pyo38instance11Py$LT$T$GT$4bind17h51148c3964bc4cf7E', symObjAddr: 0xA140, symBinAddr: 0x35AE4, symSize: 0x74 }
  - { offset: 0xF9B7E, size: 0x8, addend: 0x0, symName: '__ZN4pyo38instance11Py$LT$T$GT$4bind17h55fe6fafd6c2baffE', symObjAddr: 0xA1B4, symBinAddr: 0x35B58, symSize: 0x74 }
  - { offset: 0xF9BEC, size: 0x8, addend: 0x0, symName: '__ZN4pyo38instance11Py$LT$T$GT$4bind17hffb23f30648c502eE', symObjAddr: 0xA29C, symBinAddr: 0x35BCC, symSize: 0x74 }
  - { offset: 0xF9C33, size: 0x8, addend: 0x0, symName: '__ZN4pyo38instance11Py$LT$T$GT$6as_ptr17h0016b3e7f18d440dE', symObjAddr: 0xA384, symBinAddr: 0x35C40, symSize: 0x1C }
  - { offset: 0xF9C5F, size: 0x8, addend: 0x0, symName: '__ZN4pyo38instance11Py$LT$T$GT$6as_ptr17h2bb2ac8908c0fe14E', symObjAddr: 0xA410, symBinAddr: 0x35C5C, symSize: 0x1C }
  - { offset: 0xF9C8B, size: 0x8, addend: 0x0, symName: '__ZN4pyo38instance11Py$LT$T$GT$6as_ptr17h2ce8303f4b1f1d1eE', symObjAddr: 0xA42C, symBinAddr: 0x35C78, symSize: 0x1C }
  - { offset: 0xF9CB7, size: 0x8, addend: 0x0, symName: '__ZN4pyo38instance11Py$LT$T$GT$6as_ptr17h55d17bb961b0a34bE', symObjAddr: 0xA480, symBinAddr: 0x35C94, symSize: 0x1C }
  - { offset: 0xF9CF0, size: 0x8, addend: 0x0, symName: '__ZN4pyo38instance11Py$LT$T$GT$6as_ptr17h66b90dab1abef175E', symObjAddr: 0xA4B8, symBinAddr: 0x35CB0, symSize: 0x1C }
  - { offset: 0xF9D29, size: 0x8, addend: 0x0, symName: '__ZN4pyo38instance11Py$LT$T$GT$6as_ptr17h6e39b6223fb3b6e8E', symObjAddr: 0xA4F0, symBinAddr: 0x35CCC, symSize: 0x1C }
  - { offset: 0xF9D55, size: 0x8, addend: 0x0, symName: '__ZN4pyo38instance11Py$LT$T$GT$6as_ptr17h7be612765a311b6cE', symObjAddr: 0xA50C, symBinAddr: 0x35CE8, symSize: 0x1C }
  - { offset: 0xF9D81, size: 0x8, addend: 0x0, symName: '__ZN4pyo38instance11Py$LT$T$GT$6as_ptr17ha3045e87f47a07a3E', symObjAddr: 0xA544, symBinAddr: 0x35D04, symSize: 0x1C }
  - { offset: 0xF9DBA, size: 0x8, addend: 0x0, symName: '__ZN4pyo38instance11Py$LT$T$GT$6as_ptr17haafb845b3496c7c1E', symObjAddr: 0xA560, symBinAddr: 0x35D20, symSize: 0x1C }
  - { offset: 0xF9DE6, size: 0x8, addend: 0x0, symName: '__ZN4pyo38instance11Py$LT$T$GT$6as_ptr17hd464112ddaadc2faE', symObjAddr: 0xA624, symBinAddr: 0x35D3C, symSize: 0x1C }
  - { offset: 0xF9E1F, size: 0x8, addend: 0x0, symName: '__ZN4pyo38instance11Py$LT$T$GT$6as_ptr17he80aa2e220006a8bE', symObjAddr: 0xA678, symBinAddr: 0x35D58, symSize: 0x1C }
  - { offset: 0xF9E58, size: 0x8, addend: 0x0, symName: '__ZN4pyo38instance11Py$LT$T$GT$6as_ptr17hef3f396e6385c28aE', symObjAddr: 0xA694, symBinAddr: 0x35D74, symSize: 0x1C }
  - { offset: 0xF9E91, size: 0x8, addend: 0x0, symName: '__ZN4pyo38instance11Py$LT$T$GT$6as_ptr17hf8c5e7caf2dd0dafE', symObjAddr: 0xA6B0, symBinAddr: 0x35D90, symSize: 0x1C }
  - { offset: 0xF9ECA, size: 0x8, addend: 0x0, symName: '__ZN4pyo38instance11Py$LT$T$GT$6as_ptr17hfea77e1cdea52597E', symObjAddr: 0xA6CC, symBinAddr: 0x35DAC, symSize: 0x1C }
  - { offset: 0xF9EF6, size: 0x8, addend: 0x0, symName: '__ZN4pyo38instance11Py$LT$T$GT$6as_ptr17hfeeb78950296f3aaE', symObjAddr: 0xA6E8, symBinAddr: 0x35DC8, symSize: 0x1C }
  - { offset: 0xF9F22, size: 0x8, addend: 0x0, symName: '__ZN4pyo38instance11Py$LT$T$GT$8into_any17h0473aa86d84f0dedE', symObjAddr: 0xA704, symBinAddr: 0x35DE4, symSize: 0x3C }
  - { offset: 0xF9F4E, size: 0x8, addend: 0x0, symName: '__ZN4pyo38instance11Py$LT$T$GT$8into_any17h09be5e68cbf3b911E', symObjAddr: 0xA740, symBinAddr: 0x35E20, symSize: 0x3C }
  - { offset: 0xF9F7A, size: 0x8, addend: 0x0, symName: '__ZN4pyo38instance11Py$LT$T$GT$8into_any17h3af8562b640730feE', symObjAddr: 0xA7B8, symBinAddr: 0x35E5C, symSize: 0x3C }
  - { offset: 0xF9FA6, size: 0x8, addend: 0x0, symName: '__ZN4pyo38instance11Py$LT$T$GT$8into_any17h5bbcde022c4ea9f7E', symObjAddr: 0xA7F4, symBinAddr: 0x35E98, symSize: 0x3C }
  - { offset: 0xF9FD2, size: 0x8, addend: 0x0, symName: '__ZN4pyo38instance11Py$LT$T$GT$8into_any17h6066e9d9f504cae4E', symObjAddr: 0xA830, symBinAddr: 0x35ED4, symSize: 0x3C }
  - { offset: 0xF9FFE, size: 0x8, addend: 0x0, symName: '__ZN4pyo38instance11Py$LT$T$GT$8into_any17h6d5d9adf511e7d87E', symObjAddr: 0xA8A8, symBinAddr: 0x35F10, symSize: 0x3C }
  - { offset: 0xFA02A, size: 0x8, addend: 0x0, symName: '__ZN4pyo38instance11Py$LT$T$GT$8into_any17h7026f17da5ac321bE', symObjAddr: 0xA8E4, symBinAddr: 0x35F4C, symSize: 0x3C }
  - { offset: 0xFA056, size: 0x8, addend: 0x0, symName: '__ZN4pyo38instance11Py$LT$T$GT$8into_any17h92d5ff1622f0a79bE', symObjAddr: 0xA95C, symBinAddr: 0x35F88, symSize: 0x3C }
  - { offset: 0xFA082, size: 0x8, addend: 0x0, symName: '__ZN4pyo38instance11Py$LT$T$GT$8into_any17hd6dcc9d0682f4a5bE', symObjAddr: 0xA998, symBinAddr: 0x35FC4, symSize: 0x3C }
  - { offset: 0xFA0AE, size: 0x8, addend: 0x0, symName: '__ZN4pyo38instance11Py$LT$T$GT$8into_any17he23aeb42715856d2E', symObjAddr: 0xA9D4, symBinAddr: 0x36000, symSize: 0x3C }
  - { offset: 0xFA0DA, size: 0x8, addend: 0x0, symName: '__ZN4pyo38instance11Py$LT$T$GT$8into_ptr17h1322873f62fc1bbaE', symObjAddr: 0xAA88, symBinAddr: 0x3603C, symSize: 0x30 }
  - { offset: 0xFA106, size: 0x8, addend: 0x0, symName: '__ZN4pyo38instance11Py$LT$T$GT$8into_ptr17h958ce9bd9cbe4dc9E', symObjAddr: 0xAAB8, symBinAddr: 0x3606C, symSize: 0x30 }
  - { offset: 0xFA132, size: 0x8, addend: 0x0, symName: '__ZN4pyo38instance11Py$LT$T$GT$9clone_ref17h0064550a85e889feE', symObjAddr: 0xAAE8, symBinAddr: 0x3609C, symSize: 0x100 }
  - { offset: 0xFA1E1, size: 0x8, addend: 0x0, symName: '__ZN4pyo38instance11Py$LT$T$GT$9clone_ref17h057c8018efa88ac4E', symObjAddr: 0xABE8, symBinAddr: 0x3619C, symSize: 0x100 }
  - { offset: 0xFA290, size: 0x8, addend: 0x0, symName: '__ZN4pyo38instance11Py$LT$T$GT$9clone_ref17h5474b34af9d37244E', symObjAddr: 0xACE8, symBinAddr: 0x3629C, symSize: 0x100 }
  - { offset: 0xFA33F, size: 0x8, addend: 0x0, symName: '__ZN4pyo38instance11Py$LT$T$GT$9clone_ref17h607ff8c5d921cdbdE', symObjAddr: 0xADE8, symBinAddr: 0x3639C, symSize: 0x100 }
  - { offset: 0xFA3EE, size: 0x8, addend: 0x0, symName: '__ZN4pyo38instance11Py$LT$T$GT$9clone_ref17hc47b13134ee2debcE', symObjAddr: 0xB0E8, symBinAddr: 0x3649C, symSize: 0x100 }
  - { offset: 0xFA4AA, size: 0x8, addend: 0x0, symName: '__ZN4pyo38instance14Bound$LT$T$GT$11as_borrowed17h4aabcfc028bf7ce7E', symObjAddr: 0xBC28, symBinAddr: 0x36894, symSize: 0x48 }
  - { offset: 0xFA4E3, size: 0x8, addend: 0x0, symName: '__ZN4pyo38instance14Bound$LT$T$GT$11as_borrowed17h577b2249786b0cdaE', symObjAddr: 0xBC70, symBinAddr: 0x368DC, symSize: 0x48 }
  - { offset: 0xFA51C, size: 0x8, addend: 0x0, symName: '__ZN4pyo38instance14Bound$LT$T$GT$11as_borrowed17h8632734119b73fe1E', symObjAddr: 0xBD00, symBinAddr: 0x36924, symSize: 0x48 }
  - { offset: 0xFA548, size: 0x8, addend: 0x0, symName: '__ZN4pyo38instance14Bound$LT$T$GT$11as_borrowed17hb176a80edbb90c21E', symObjAddr: 0xBD48, symBinAddr: 0x3696C, symSize: 0x48 }
  - { offset: 0xFA574, size: 0x8, addend: 0x0, symName: '__ZN4pyo38instance14Bound$LT$T$GT$11as_borrowed17he57619a3dacdd7f0E', symObjAddr: 0xBE20, symBinAddr: 0x369B4, symSize: 0x48 }
  - { offset: 0xFA5A0, size: 0x8, addend: 0x0, symName: '__ZN4pyo38instance14Bound$LT$T$GT$11as_borrowed17hf2a4878c1d1f6581E', symObjAddr: 0xBE68, symBinAddr: 0x369FC, symSize: 0x48 }
  - { offset: 0xFA5CC, size: 0x8, addend: 0x0, symName: '__ZN4pyo38instance14Bound$LT$T$GT$2py17h0ebc6cd03108fd3eE', symObjAddr: 0xBEF8, symBinAddr: 0x36A44, symSize: 0x10 }
  - { offset: 0xFA5F8, size: 0x8, addend: 0x0, symName: '__ZN4pyo38instance14Bound$LT$T$GT$2py17h17a089dd062cb122E', symObjAddr: 0xBF08, symBinAddr: 0x36A54, symSize: 0x10 }
  - { offset: 0xFA631, size: 0x8, addend: 0x0, symName: '__ZN4pyo38instance14Bound$LT$T$GT$2py17h1cbba36201ef3a01E', symObjAddr: 0xBF28, symBinAddr: 0x36A64, symSize: 0x10 }
  - { offset: 0xFA65D, size: 0x8, addend: 0x0, symName: '__ZN4pyo38instance14Bound$LT$T$GT$2py17h3c0036ca49b566ddE', symObjAddr: 0xBF58, symBinAddr: 0x36A74, symSize: 0x10 }
  - { offset: 0xFA689, size: 0x8, addend: 0x0, symName: '__ZN4pyo38instance14Bound$LT$T$GT$2py17h548f499fd8b1b942E', symObjAddr: 0xBF78, symBinAddr: 0x36A84, symSize: 0x10 }
  - { offset: 0xFA6C2, size: 0x8, addend: 0x0, symName: '__ZN4pyo38instance14Bound$LT$T$GT$2py17h8976235292e9e573E', symObjAddr: 0xBF98, symBinAddr: 0x36A94, symSize: 0x10 }
  - { offset: 0xFA6EE, size: 0x8, addend: 0x0, symName: '__ZN4pyo38instance14Bound$LT$T$GT$2py17ha6f6e968ccaa20daE', symObjAddr: 0xBFB8, symBinAddr: 0x36AA4, symSize: 0x10 }
  - { offset: 0xFA727, size: 0x8, addend: 0x0, symName: '__ZN4pyo38instance14Bound$LT$T$GT$2py17had4749bd0e91b19aE', symObjAddr: 0xBFC8, symBinAddr: 0x36AB4, symSize: 0x10 }
  - { offset: 0xFA753, size: 0x8, addend: 0x0, symName: '__ZN4pyo38instance14Bound$LT$T$GT$2py17hc03d5019fe914d98E', symObjAddr: 0xBFD8, symBinAddr: 0x36AC4, symSize: 0x10 }
  - { offset: 0xFA77F, size: 0x8, addend: 0x0, symName: '__ZN4pyo38instance14Bound$LT$T$GT$2py17hca0e055cc146b58eE', symObjAddr: 0xBFF8, symBinAddr: 0x36AD4, symSize: 0x10 }
  - { offset: 0xFA7AB, size: 0x8, addend: 0x0, symName: '__ZN4pyo38instance14Bound$LT$T$GT$2py17hdbce98a29d8a0607E', symObjAddr: 0xC028, symBinAddr: 0x36AE4, symSize: 0x10 }
  - { offset: 0xFA7D7, size: 0x8, addend: 0x0, symName: '__ZN4pyo38instance14Bound$LT$T$GT$6as_any17h1e47f6b00ac1f013E', symObjAddr: 0xC0DC, symBinAddr: 0x36AF4, symSize: 0x74 }
  - { offset: 0xFA803, size: 0x8, addend: 0x0, symName: '__ZN4pyo38instance14Bound$LT$T$GT$6as_any17h233ae89e3d6f83b8E', symObjAddr: 0xC150, symBinAddr: 0x36B68, symSize: 0x74 }
  - { offset: 0xFA82F, size: 0x8, addend: 0x0, symName: '__ZN4pyo38instance14Bound$LT$T$GT$6as_any17h39782484a7bf1b13E', symObjAddr: 0xC238, symBinAddr: 0x36BDC, symSize: 0x74 }
  - { offset: 0xFA85B, size: 0x8, addend: 0x0, symName: '__ZN4pyo38instance14Bound$LT$T$GT$6as_any17h52b4474c508eba2dE', symObjAddr: 0xC320, symBinAddr: 0x36C50, symSize: 0x74 }
  - { offset: 0xFA887, size: 0x8, addend: 0x0, symName: '__ZN4pyo38instance14Bound$LT$T$GT$6as_any17h865eec8264b9f1beE', symObjAddr: 0xC408, symBinAddr: 0x36CC4, symSize: 0x74 }
  - { offset: 0xFA8B3, size: 0x8, addend: 0x0, symName: '__ZN4pyo38instance14Bound$LT$T$GT$6as_any17h87164805ff55c1b4E', symObjAddr: 0xC47C, symBinAddr: 0x36D38, symSize: 0x74 }
  - { offset: 0xFA8DF, size: 0x8, addend: 0x0, symName: '__ZN4pyo38instance14Bound$LT$T$GT$6as_any17h8d3081c4b0f99f54E', symObjAddr: 0xC4F0, symBinAddr: 0x36DAC, symSize: 0x74 }
  - { offset: 0xFA918, size: 0x8, addend: 0x0, symName: '__ZN4pyo38instance14Bound$LT$T$GT$6as_any17hfc558ea7ff2511f1E', symObjAddr: 0xC6C0, symBinAddr: 0x36E20, symSize: 0x74 }
  - { offset: 0xFA951, size: 0x8, addend: 0x0, symName: '__ZN4pyo38instance14Bound$LT$T$GT$6as_ptr17h0e2f2ad4cb4d8968E', symObjAddr: 0xC760, symBinAddr: 0x36E94, symSize: 0x2C }
  - { offset: 0xFA97D, size: 0x8, addend: 0x0, symName: '__ZN4pyo38instance14Bound$LT$T$GT$6as_ptr17h0e35e0d22ef45d3aE', symObjAddr: 0xC78C, symBinAddr: 0x36EC0, symSize: 0x2C }
  - { offset: 0xFA9A9, size: 0x8, addend: 0x0, symName: '__ZN4pyo38instance14Bound$LT$T$GT$6as_ptr17h2e8bf58280efe100E', symObjAddr: 0xC7B8, symBinAddr: 0x36EEC, symSize: 0x2C }
  - { offset: 0xFA9D5, size: 0x8, addend: 0x0, symName: '__ZN4pyo38instance14Bound$LT$T$GT$6as_ptr17h38ff739da820055eE', symObjAddr: 0xC810, symBinAddr: 0x36F18, symSize: 0x2C }
  - { offset: 0xFAA01, size: 0x8, addend: 0x0, symName: '__ZN4pyo38instance14Bound$LT$T$GT$6as_ptr17h53f141d3c2e31891E', symObjAddr: 0xC868, symBinAddr: 0x36F44, symSize: 0x2C }
  - { offset: 0xFAA2D, size: 0x8, addend: 0x0, symName: '__ZN4pyo38instance14Bound$LT$T$GT$6as_ptr17h58f0f0e480c48137E', symObjAddr: 0xC894, symBinAddr: 0x36F70, symSize: 0x2C }
  - { offset: 0xFAA66, size: 0x8, addend: 0x0, symName: '__ZN4pyo38instance14Bound$LT$T$GT$6as_ptr17h5c14af3ddeaf013fE', symObjAddr: 0xC8EC, symBinAddr: 0x36F9C, symSize: 0x2C }
  - { offset: 0xFAA92, size: 0x8, addend: 0x0, symName: '__ZN4pyo38instance14Bound$LT$T$GT$6as_ptr17h860962c4563f80a0E', symObjAddr: 0xC99C, symBinAddr: 0x36FC8, symSize: 0x2C }
  - { offset: 0xFAABE, size: 0x8, addend: 0x0, symName: '__ZN4pyo38instance14Bound$LT$T$GT$6as_ptr17h97f0aa826a058b41E', symObjAddr: 0xC9F4, symBinAddr: 0x36FF4, symSize: 0x2C }
  - { offset: 0xFAAEA, size: 0x8, addend: 0x0, symName: '__ZN4pyo38instance14Bound$LT$T$GT$6as_ptr17ha9a2aab2bb02a5b3E', symObjAddr: 0xCA78, symBinAddr: 0x37020, symSize: 0x2C }
  - { offset: 0xFAB16, size: 0x8, addend: 0x0, symName: '__ZN4pyo38instance14Bound$LT$T$GT$6as_ptr17hb13c525180f6e12fE', symObjAddr: 0xCB28, symBinAddr: 0x3704C, symSize: 0x2C }
  - { offset: 0xFAB42, size: 0x8, addend: 0x0, symName: '__ZN4pyo38instance14Bound$LT$T$GT$6as_ptr17hb7c82922a28269b7E', symObjAddr: 0xCB54, symBinAddr: 0x37078, symSize: 0x2C }
  - { offset: 0xFAB6E, size: 0x8, addend: 0x0, symName: '__ZN4pyo38instance14Bound$LT$T$GT$6as_ptr17hcbc7a8963fb9be57E', symObjAddr: 0xCBD8, symBinAddr: 0x370A4, symSize: 0x2C }
  - { offset: 0xFAB9A, size: 0x8, addend: 0x0, symName: '__ZN4pyo38instance14Bound$LT$T$GT$6as_ptr17hdb725510667e744fE', symObjAddr: 0xCC04, symBinAddr: 0x370D0, symSize: 0x2C }
  - { offset: 0xFABC6, size: 0x8, addend: 0x0, symName: '__ZN4pyo38instance14Bound$LT$T$GT$6unbind17h07d4b9a072a03ffeE', symObjAddr: 0xCCD0, symBinAddr: 0x370FC, symSize: 0x48 }
  - { offset: 0xFAC10, size: 0x8, addend: 0x0, symName: '__ZN4pyo38instance14Bound$LT$T$GT$6unbind17h0e1e5bec72327560E', symObjAddr: 0xCD18, symBinAddr: 0x37144, symSize: 0x48 }
  - { offset: 0xFAC5A, size: 0x8, addend: 0x0, symName: '__ZN4pyo38instance14Bound$LT$T$GT$6unbind17h0f4f45199ccdfeddE', symObjAddr: 0xCD60, symBinAddr: 0x3718C, symSize: 0x48 }
  - { offset: 0xFACA4, size: 0x8, addend: 0x0, symName: '__ZN4pyo38instance14Bound$LT$T$GT$6unbind17h19dcdff1989b2dffE', symObjAddr: 0xCDA8, symBinAddr: 0x371D4, symSize: 0x48 }
  - { offset: 0xFACEE, size: 0x8, addend: 0x0, symName: '__ZN4pyo38instance14Bound$LT$T$GT$6unbind17h1a6dcd5ae9097c01E', symObjAddr: 0xCDF0, symBinAddr: 0x3721C, symSize: 0x48 }
  - { offset: 0xFAD38, size: 0x8, addend: 0x0, symName: '__ZN4pyo38instance14Bound$LT$T$GT$6unbind17h6834fc22af1b93a1E', symObjAddr: 0xCE38, symBinAddr: 0x37264, symSize: 0x48 }
  - { offset: 0xFAD82, size: 0x8, addend: 0x0, symName: '__ZN4pyo38instance14Bound$LT$T$GT$6unbind17h7a17e65a86883493E', symObjAddr: 0xCEC8, symBinAddr: 0x372AC, symSize: 0x48 }
  - { offset: 0xFADCC, size: 0x8, addend: 0x0, symName: '__ZN4pyo38instance14Bound$LT$T$GT$6unbind17h7e2a7f5e2781db77E', symObjAddr: 0xCF10, symBinAddr: 0x372F4, symSize: 0x48 }
  - { offset: 0xFAE16, size: 0x8, addend: 0x0, symName: '__ZN4pyo38instance14Bound$LT$T$GT$6unbind17h84f481aa7edbdfbfE', symObjAddr: 0xCF58, symBinAddr: 0x3733C, symSize: 0x48 }
  - { offset: 0xFAE60, size: 0x8, addend: 0x0, symName: '__ZN4pyo38instance14Bound$LT$T$GT$6unbind17h9450e4f935a807b4E', symObjAddr: 0xCFE8, symBinAddr: 0x37384, symSize: 0x48 }
  - { offset: 0xFAEAA, size: 0x8, addend: 0x0, symName: '__ZN4pyo38instance14Bound$LT$T$GT$6unbind17ha8a371a2b0c9f3eeE', symObjAddr: 0xD030, symBinAddr: 0x373CC, symSize: 0x48 }
  - { offset: 0xFAEF4, size: 0x8, addend: 0x0, symName: '__ZN4pyo38instance14Bound$LT$T$GT$8into_any17h1dc7f9e7b65a98c1E', symObjAddr: 0xD168, symBinAddr: 0x37414, symSize: 0x30 }
  - { offset: 0xFAF20, size: 0x8, addend: 0x0, symName: '__ZN4pyo38instance14Bound$LT$T$GT$8into_any17h3a8f4d9b6d856e4eE', symObjAddr: 0xD1C8, symBinAddr: 0x37444, symSize: 0x30 }
  - { offset: 0xFAF4C, size: 0x8, addend: 0x0, symName: '__ZN4pyo38instance14Bound$LT$T$GT$8into_any17h649820b3775c30a8E', symObjAddr: 0xD1F8, symBinAddr: 0x37474, symSize: 0x30 }
  - { offset: 0xFAF78, size: 0x8, addend: 0x0, symName: '__ZN4pyo38instance14Bound$LT$T$GT$8into_any17h75d37f81453b5ba8E', symObjAddr: 0xD228, symBinAddr: 0x374A4, symSize: 0x30 }
  - { offset: 0xFAFA4, size: 0x8, addend: 0x0, symName: '__ZN4pyo38instance14Bound$LT$T$GT$8into_any17h88434c6e8e2366b6E', symObjAddr: 0xD258, symBinAddr: 0x374D4, symSize: 0x30 }
  - { offset: 0xFAFD0, size: 0x8, addend: 0x0, symName: '__ZN4pyo38instance14Bound$LT$T$GT$8into_any17ha838299527923274E', symObjAddr: 0xD2B8, symBinAddr: 0x37504, symSize: 0x30 }
  - { offset: 0xFAFFC, size: 0x8, addend: 0x0, symName: '__ZN4pyo38instance14Bound$LT$T$GT$8into_any17hb41ff3a8e0aba092E', symObjAddr: 0xD2E8, symBinAddr: 0x37534, symSize: 0x30 }
  - { offset: 0xFB028, size: 0x8, addend: 0x0, symName: '__ZN4pyo38instance14Bound$LT$T$GT$8into_any17hba6310ce8d640a04E', symObjAddr: 0xD318, symBinAddr: 0x37564, symSize: 0x30 }
  - { offset: 0xFB054, size: 0x8, addend: 0x0, symName: '__ZN4pyo38instance14Bound$LT$T$GT$8into_any17hc2a0d8ce3045c165E', symObjAddr: 0xD348, symBinAddr: 0x37594, symSize: 0x30 }
  - { offset: 0xFB080, size: 0x8, addend: 0x0, symName: '__ZN4pyo38instance14Bound$LT$T$GT$8into_any17hc7b32d1643e74940E', symObjAddr: 0xD378, symBinAddr: 0x375C4, symSize: 0x30 }
  - { offset: 0xFB0AC, size: 0x8, addend: 0x0, symName: '__ZN4pyo38instance14Bound$LT$T$GT$8into_ptr17he95067b4c2c61f16E', symObjAddr: 0xD3D8, symBinAddr: 0x375F4, symSize: 0x40 }
  - { offset: 0xFB0D8, size: 0x8, addend: 0x0, symName: '__ZN4pyo38instance17Borrowed$LT$T$GT$6as_ptr17h3f01885e1415e65eE', symObjAddr: 0xD418, symBinAddr: 0x37634, symSize: 0x1C }
  - { offset: 0xFB104, size: 0x8, addend: 0x0, symName: '__ZN4pyo38instance17Borrowed$LT$T$GT$6as_ptr17h57c50ed79fb46aaaE', symObjAddr: 0xD434, symBinAddr: 0x37650, symSize: 0x1C }
  - { offset: 0xFB130, size: 0x8, addend: 0x0, symName: '__ZN4pyo38instance17Borrowed$LT$T$GT$6as_ptr17hcbd71565e0be74afE', symObjAddr: 0xD46C, symBinAddr: 0x3766C, symSize: 0x1C }
  - { offset: 0xFB15C, size: 0x8, addend: 0x0, symName: '__ZN4pyo38instance17Borrowed$LT$T$GT$6as_ptr17hefde7ed4cefc9363E', symObjAddr: 0xD488, symBinAddr: 0x37688, symSize: 0x1C }
  - { offset: 0xFB188, size: 0x8, addend: 0x0, symName: '__ZN4pyo38instance17Borrowed$LT$T$GT$6as_ptr17hf63653cbdf83bf51E', symObjAddr: 0xD4A4, symBinAddr: 0x376A4, symSize: 0x1C }
  - { offset: 0xFB1B4, size: 0x8, addend: 0x0, symName: '__ZN4pyo38instance17Borrowed$LT$T$GT$6as_ptr17hf661c4c36874cd21E', symObjAddr: 0xD4C0, symBinAddr: 0x376C0, symSize: 0x1C }
  - { offset: 0xFB1E0, size: 0x8, addend: 0x0, symName: '__ZN4pyo38instance17Borrowed$LT$T$GT$6to_any17h31288e56b72f49c3E', symObjAddr: 0xD4F0, symBinAddr: 0x376DC, symSize: 0x14 }
  - { offset: 0xFB20C, size: 0x8, addend: 0x0, symName: '__ZN4pyo38instance17Borrowed$LT$T$GT$6to_any17h387057a1e18e4d22E', symObjAddr: 0xD504, symBinAddr: 0x376F0, symSize: 0x14 }
  - { offset: 0xFB238, size: 0x8, addend: 0x0, symName: '__ZN4pyo38instance17Borrowed$LT$T$GT$6to_any17h7797c71ca7a7d6b4E', symObjAddr: 0xD52C, symBinAddr: 0x37704, symSize: 0x14 }
  - { offset: 0xFB264, size: 0x8, addend: 0x0, symName: '__ZN4pyo38instance17Borrowed$LT$T$GT$6to_any17hdfc9089ef1913d68E', symObjAddr: 0xD554, symBinAddr: 0x37718, symSize: 0x14 }
  - { offset: 0xFB290, size: 0x8, addend: 0x0, symName: '__ZN4pyo38instance17Borrowed$LT$T$GT$8to_owned17h1f358a27b6142adcE', symObjAddr: 0xD568, symBinAddr: 0x3772C, symSize: 0x2C }
  - { offset: 0xFB2BC, size: 0x8, addend: 0x0, symName: '__ZN4pyo38instance17Borrowed$LT$T$GT$8to_owned17h5b9e9beb03275ec0E', symObjAddr: 0xD594, symBinAddr: 0x37758, symSize: 0x2C }
  - { offset: 0xFB2E8, size: 0x8, addend: 0x0, symName: '__ZN4pyo38instance17Borrowed$LT$T$GT$8to_owned17h6581fd5a32abf81dE', symObjAddr: 0xD5C0, symBinAddr: 0x37784, symSize: 0x2C }
  - { offset: 0xFB321, size: 0x8, addend: 0x0, symName: '__ZN4pyo38instance36Bound$LT$pyo3..types..any..PyAny$GT$12ref_from_ptr17h5948319ce7fbfdfdE', symObjAddr: 0xD5EC, symBinAddr: 0x377B0, symSize: 0x74 }
  - { offset: 0xFB35C, size: 0x8, addend: 0x0, symName: '__ZN4pyo38instance36Bound$LT$pyo3..types..any..PyAny$GT$14from_owned_ptr17h2b44da5ebff071a2E', symObjAddr: 0xD660, symBinAddr: 0x37824, symSize: 0x2C }
  - { offset: 0xFB3A4, size: 0x8, addend: 0x0, symName: '__ZN4pyo38instance36Bound$LT$pyo3..types..any..PyAny$GT$21from_owned_ptr_or_err17h52f0183bb6ed9db3E', symObjAddr: 0xD700, symBinAddr: 0x37850, symSize: 0x40 }
  - { offset: 0xFB3DF, size: 0x8, addend: 0x0, symName: '__ZN4pyo38instance36Bound$LT$pyo3..types..any..PyAny$GT$21from_owned_ptr_or_opt17h5b4508b25a4b5486E', symObjAddr: 0xD768, symBinAddr: 0x378B8, symSize: 0x2C }
  - { offset: 0xFB41A, size: 0x8, addend: 0x0, symName: '__ZN4pyo38instance39Borrowed$LT$pyo3..types..any..PyAny$GT$18downcast_unchecked17h27566ef570e856d6E', symObjAddr: 0xD898, symBinAddr: 0x3790C, symSize: 0x14 }
  - { offset: 0xFB446, size: 0x8, addend: 0x0, symName: '__ZN4pyo38instance39Borrowed$LT$pyo3..types..any..PyAny$GT$18downcast_unchecked17h348efbdd53f74ce5E', symObjAddr: 0xD8C0, symBinAddr: 0x37920, symSize: 0x14 }
  - { offset: 0xFB472, size: 0x8, addend: 0x0, symName: '__ZN4pyo38instance39Borrowed$LT$pyo3..types..any..PyAny$GT$18downcast_unchecked17h5655ac30b1d0c087E', symObjAddr: 0xD8D4, symBinAddr: 0x37934, symSize: 0x14 }
  - { offset: 0xFB49E, size: 0x8, addend: 0x0, symName: '__ZN4pyo38instance39Borrowed$LT$pyo3..types..any..PyAny$GT$18downcast_unchecked17h98205c15eb2ff5c1E', symObjAddr: 0xD8E8, symBinAddr: 0x37948, symSize: 0x14 }
  - { offset: 0xFB4CA, size: 0x8, addend: 0x0, symName: '__ZN4pyo38instance39Borrowed$LT$pyo3..types..any..PyAny$GT$18from_ptr_unchecked17he5b323f5d4d82d90E', symObjAddr: 0xD8FC, symBinAddr: 0x3795C, symSize: 0x2C }
  - { offset: 0xFB508, size: 0x8, addend: 0x0, symName: '__ZN4pyo38instance39Borrowed$LT$pyo3..types..any..PyAny$GT$8downcast17h7a2490f55b9bebbcE', symObjAddr: 0xD9B0, symBinAddr: 0x37988, symSize: 0x88 }
  - { offset: 0xFB534, size: 0x8, addend: 0x0, symName: '__ZN4pyo38instance39Borrowed$LT$pyo3..types..any..PyAny$GT$8downcast17hdaee711632b8823aE', symObjAddr: 0xDA38, symBinAddr: 0x37A10, symSize: 0x88 }
  - { offset: 0xFB560, size: 0x8, addend: 0x0, symName: '__ZN4pyo38instance39Borrowed$LT$pyo3..types..any..PyAny$GT$8from_ptr17h6a87bd9724d24364E', symObjAddr: 0xDAC0, symBinAddr: 0x37A98, symSize: 0x34 }
  - { offset: 0xFB59E, size: 0x8, addend: 0x0, symName: '__ZN4pyo38internal8get_slot78_$LT$impl$u20$pyo3..instance..Bound$LT$pyo3..types..typeobject..PyType$GT$$GT$8get_slot17h0c77562ae3490d49E', symObjAddr: 0xDB10, symBinAddr: 0x37AE8, symSize: 0x28 }
  - { offset: 0xFB5D9, size: 0x8, addend: 0x0, symName: '__ZN4pyo38internal8get_slot78_$LT$impl$u20$pyo3..instance..Bound$LT$pyo3..types..typeobject..PyType$GT$$GT$8get_slot17he016051f8005ca04E', symObjAddr: 0xDB38, symBinAddr: 0x37B10, symSize: 0x28 }
  - { offset: 0xFB614, size: 0x8, addend: 0x0, symName: '__ZN4pyo38internal8get_slot81_$LT$impl$u20$pyo3..instance..Borrowed$LT$pyo3..types..typeobject..PyType$GT$$GT$8get_slot17h902c96ead1ff1ad4E', symObjAddr: 0xDB60, symBinAddr: 0x37B38, symSize: 0x30 }
  - { offset: 0xFC613, size: 0x8, addend: 0x0, symName: '__ZN152_$LT$core..result..Result$LT$pyo3..instance..Bound$LT$pyo3..types..any..PyAny$GT$$C$pyo3..err..PyErr$GT$$u20$as$u20$pyo3..py_result_ext..PyResultExt$GT$23downcast_into_unchecked17h3e304be9b2200546E', symObjAddr: 0x240, symBinAddr: 0x39884, symSize: 0x40 }
  - { offset: 0xFC649, size: 0x8, addend: 0x0, symName: '__ZN152_$LT$core..result..Result$LT$pyo3..instance..Bound$LT$pyo3..types..any..PyAny$GT$$C$pyo3..err..PyErr$GT$$u20$as$u20$pyo3..py_result_ext..PyResultExt$GT$23downcast_into_unchecked17h546d8bf109f07885E', symObjAddr: 0x2C0, symBinAddr: 0x398C4, symSize: 0x40 }
  - { offset: 0xFC67F, size: 0x8, addend: 0x0, symName: '__ZN152_$LT$core..result..Result$LT$pyo3..instance..Bound$LT$pyo3..types..any..PyAny$GT$$C$pyo3..err..PyErr$GT$$u20$as$u20$pyo3..py_result_ext..PyResultExt$GT$23downcast_into_unchecked17h5a86439c9d949d16E', symObjAddr: 0x300, symBinAddr: 0x39904, symSize: 0x40 }
  - { offset: 0xFC6B5, size: 0x8, addend: 0x0, symName: '__ZN152_$LT$core..result..Result$LT$pyo3..instance..Bound$LT$pyo3..types..any..PyAny$GT$$C$pyo3..err..PyErr$GT$$u20$as$u20$pyo3..py_result_ext..PyResultExt$GT$23downcast_into_unchecked17h87c44a0c4418424fE', symObjAddr: 0x3C0, symBinAddr: 0x39944, symSize: 0x40 }
  - { offset: 0xFDB35, size: 0x8, addend: 0x0, symName: '__ZN153_$LT$core..result..Result$LT$T$C$F$GT$$u20$as$u20$core..ops..try_trait..FromResidual$LT$core..result..Result$LT$core..convert..Infallible$C$E$GT$$GT$$GT$13from_residual17h20cc939adf692f8fE', symObjAddr: 0x910, symBinAddr: 0x39984, symSize: 0x6C }
  - { offset: 0xFDBBB, size: 0x8, addend: 0x0, symName: '__ZN153_$LT$core..result..Result$LT$T$C$F$GT$$u20$as$u20$core..ops..try_trait..FromResidual$LT$core..result..Result$LT$core..convert..Infallible$C$E$GT$$GT$$GT$13from_residual17h25ca598ff96807a8E', symObjAddr: 0xA44, symBinAddr: 0x399F0, symSize: 0x6C }
  - { offset: 0xFDC41, size: 0x8, addend: 0x0, symName: '__ZN153_$LT$core..result..Result$LT$T$C$F$GT$$u20$as$u20$core..ops..try_trait..FromResidual$LT$core..result..Result$LT$core..convert..Infallible$C$E$GT$$GT$$GT$13from_residual17h27c58f3cf79e478eE', symObjAddr: 0xB14, symBinAddr: 0x39A5C, symSize: 0x6C }
  - { offset: 0xFDCC7, size: 0x8, addend: 0x0, symName: '__ZN153_$LT$core..result..Result$LT$T$C$F$GT$$u20$as$u20$core..ops..try_trait..FromResidual$LT$core..result..Result$LT$core..convert..Infallible$C$E$GT$$GT$$GT$13from_residual17h2f0e240d31f9a3f0E', symObjAddr: 0xB80, symBinAddr: 0x39AC8, symSize: 0x6C }
  - { offset: 0xFDD4D, size: 0x8, addend: 0x0, symName: '__ZN153_$LT$core..result..Result$LT$T$C$F$GT$$u20$as$u20$core..ops..try_trait..FromResidual$LT$core..result..Result$LT$core..convert..Infallible$C$E$GT$$GT$$GT$13from_residual17h3d2df091799827ebE', symObjAddr: 0xD30, symBinAddr: 0x39B34, symSize: 0x6C }
  - { offset: 0xFDDD3, size: 0x8, addend: 0x0, symName: '__ZN153_$LT$core..result..Result$LT$T$C$F$GT$$u20$as$u20$core..ops..try_trait..FromResidual$LT$core..result..Result$LT$core..convert..Infallible$C$E$GT$$GT$$GT$13from_residual17h44a48d466d98205aE', symObjAddr: 0xE08, symBinAddr: 0x39BA0, symSize: 0x6C }
  - { offset: 0xFDE59, size: 0x8, addend: 0x0, symName: '__ZN153_$LT$core..result..Result$LT$T$C$F$GT$$u20$as$u20$core..ops..try_trait..FromResidual$LT$core..result..Result$LT$core..convert..Infallible$C$E$GT$$GT$$GT$13from_residual17h6b030c334554a6abE', symObjAddr: 0x11CC, symBinAddr: 0x39C0C, symSize: 0x6C }
  - { offset: 0xFDEDF, size: 0x8, addend: 0x0, symName: '__ZN153_$LT$core..result..Result$LT$T$C$F$GT$$u20$as$u20$core..ops..try_trait..FromResidual$LT$core..result..Result$LT$core..convert..Infallible$C$E$GT$$GT$$GT$13from_residual17h6e86bc5a62591173E', symObjAddr: 0x1238, symBinAddr: 0x39C78, symSize: 0x14 }
  - { offset: 0xFDF28, size: 0x8, addend: 0x0, symName: '__ZN153_$LT$core..result..Result$LT$T$C$F$GT$$u20$as$u20$core..ops..try_trait..FromResidual$LT$core..result..Result$LT$core..convert..Infallible$C$E$GT$$GT$$GT$13from_residual17h713324482a16e0d4E', symObjAddr: 0x124C, symBinAddr: 0x39C8C, symSize: 0x64 }
  - { offset: 0xFDF90, size: 0x8, addend: 0x0, symName: '__ZN153_$LT$core..result..Result$LT$T$C$F$GT$$u20$as$u20$core..ops..try_trait..FromResidual$LT$core..result..Result$LT$core..convert..Infallible$C$E$GT$$GT$$GT$13from_residual17h721963f4eaa652caE', symObjAddr: 0x12B0, symBinAddr: 0x39CF0, symSize: 0x6C }
  - { offset: 0xFE016, size: 0x8, addend: 0x0, symName: '__ZN153_$LT$core..result..Result$LT$T$C$F$GT$$u20$as$u20$core..ops..try_trait..FromResidual$LT$core..result..Result$LT$core..convert..Infallible$C$E$GT$$GT$$GT$13from_residual17h7819ac4d7967d542E', symObjAddr: 0x1388, symBinAddr: 0x39D5C, symSize: 0x6C }
  - { offset: 0xFE09C, size: 0x8, addend: 0x0, symName: '__ZN153_$LT$core..result..Result$LT$T$C$F$GT$$u20$as$u20$core..ops..try_trait..FromResidual$LT$core..result..Result$LT$core..convert..Infallible$C$E$GT$$GT$$GT$13from_residual17h781ca041c07f26d3E', symObjAddr: 0x13F4, symBinAddr: 0x39DC8, symSize: 0x6C }
  - { offset: 0xFE122, size: 0x8, addend: 0x0, symName: '__ZN153_$LT$core..result..Result$LT$T$C$F$GT$$u20$as$u20$core..ops..try_trait..FromResidual$LT$core..result..Result$LT$core..convert..Infallible$C$E$GT$$GT$$GT$13from_residual17h7b58099509408115E', symObjAddr: 0x1538, symBinAddr: 0x39E34, symSize: 0x64 }
  - { offset: 0xFE18A, size: 0x8, addend: 0x0, symName: '__ZN153_$LT$core..result..Result$LT$T$C$F$GT$$u20$as$u20$core..ops..try_trait..FromResidual$LT$core..result..Result$LT$core..convert..Infallible$C$E$GT$$GT$$GT$13from_residual17h817779036191fa5eE', symObjAddr: 0x1674, symBinAddr: 0x39E98, symSize: 0x64 }
  - { offset: 0xFE1F2, size: 0x8, addend: 0x0, symName: '__ZN153_$LT$core..result..Result$LT$T$C$F$GT$$u20$as$u20$core..ops..try_trait..FromResidual$LT$core..result..Result$LT$core..convert..Infallible$C$E$GT$$GT$$GT$13from_residual17h81e85d53eac45740E', symObjAddr: 0x16D8, symBinAddr: 0x39EFC, symSize: 0x6C }
  - { offset: 0xFE278, size: 0x8, addend: 0x0, symName: '__ZN153_$LT$core..result..Result$LT$T$C$F$GT$$u20$as$u20$core..ops..try_trait..FromResidual$LT$core..result..Result$LT$core..convert..Infallible$C$E$GT$$GT$$GT$13from_residual17h949685992caf5528E', symObjAddr: 0x1960, symBinAddr: 0x39F68, symSize: 0x6C }
  - { offset: 0xFE2FE, size: 0x8, addend: 0x0, symName: '__ZN153_$LT$core..result..Result$LT$T$C$F$GT$$u20$as$u20$core..ops..try_trait..FromResidual$LT$core..result..Result$LT$core..convert..Infallible$C$E$GT$$GT$$GT$13from_residual17ha5bfb50b5665995eE', symObjAddr: 0x1B7C, symBinAddr: 0x39FD4, symSize: 0x6C }
  - { offset: 0xFE384, size: 0x8, addend: 0x0, symName: '__ZN153_$LT$core..result..Result$LT$T$C$F$GT$$u20$as$u20$core..ops..try_trait..FromResidual$LT$core..result..Result$LT$core..convert..Infallible$C$E$GT$$GT$$GT$13from_residual17ha7997b21fb4e68c2E', symObjAddr: 0x1BE8, symBinAddr: 0x3A040, symSize: 0x6C }
  - { offset: 0xFE40A, size: 0x8, addend: 0x0, symName: '__ZN153_$LT$core..result..Result$LT$T$C$F$GT$$u20$as$u20$core..ops..try_trait..FromResidual$LT$core..result..Result$LT$core..convert..Infallible$C$E$GT$$GT$$GT$13from_residual17hadd5e9c13f09292cE', symObjAddr: 0x1C54, symBinAddr: 0x3A0AC, symSize: 0x6C }
  - { offset: 0xFE490, size: 0x8, addend: 0x0, symName: '__ZN153_$LT$core..result..Result$LT$T$C$F$GT$$u20$as$u20$core..ops..try_trait..FromResidual$LT$core..result..Result$LT$core..convert..Infallible$C$E$GT$$GT$$GT$13from_residual17hc48f53b9c86d3af1E', symObjAddr: 0x1D98, symBinAddr: 0x3A118, symSize: 0x6C }
  - { offset: 0xFE516, size: 0x8, addend: 0x0, symName: '__ZN153_$LT$core..result..Result$LT$T$C$F$GT$$u20$as$u20$core..ops..try_trait..FromResidual$LT$core..result..Result$LT$core..convert..Infallible$C$E$GT$$GT$$GT$13from_residual17hca7f330795107e2aE', symObjAddr: 0x1E04, symBinAddr: 0x3A184, symSize: 0x6C }
  - { offset: 0xFE59C, size: 0x8, addend: 0x0, symName: '__ZN153_$LT$core..result..Result$LT$T$C$F$GT$$u20$as$u20$core..ops..try_trait..FromResidual$LT$core..result..Result$LT$core..convert..Infallible$C$E$GT$$GT$$GT$13from_residual17hde95d5d6644f243cE', symObjAddr: 0x21C8, symBinAddr: 0x3A1F0, symSize: 0x64 }
  - { offset: 0xFE604, size: 0x8, addend: 0x0, symName: '__ZN153_$LT$core..result..Result$LT$T$C$F$GT$$u20$as$u20$core..ops..try_trait..FromResidual$LT$core..result..Result$LT$core..convert..Infallible$C$E$GT$$GT$$GT$13from_residual17he06a4b30e5ae8e15E', symObjAddr: 0x22E4, symBinAddr: 0x3A254, symSize: 0x6C }
  - { offset: 0xFE68A, size: 0x8, addend: 0x0, symName: '__ZN153_$LT$core..result..Result$LT$T$C$F$GT$$u20$as$u20$core..ops..try_trait..FromResidual$LT$core..result..Result$LT$core..convert..Infallible$C$E$GT$$GT$$GT$13from_residual17he8bbfc75e8289a7aE', symObjAddr: 0x2428, symBinAddr: 0x3A2C0, symSize: 0x64 }
  - { offset: 0xFE6F2, size: 0x8, addend: 0x0, symName: '__ZN153_$LT$core..result..Result$LT$T$C$F$GT$$u20$as$u20$core..ops..try_trait..FromResidual$LT$core..result..Result$LT$core..convert..Infallible$C$E$GT$$GT$$GT$13from_residual17hea6ca61f831ead82E', symObjAddr: 0x24F8, symBinAddr: 0x3A324, symSize: 0x6C }
  - { offset: 0xFE778, size: 0x8, addend: 0x0, symName: '__ZN153_$LT$core..result..Result$LT$T$C$F$GT$$u20$as$u20$core..ops..try_trait..FromResidual$LT$core..result..Result$LT$core..convert..Infallible$C$E$GT$$GT$$GT$13from_residual17hfa01e45e4b1e00a9E', symObjAddr: 0x2680, symBinAddr: 0x3A390, symSize: 0x6C }
  - { offset: 0x101038, size: 0x8, addend: 0x0, symName: __ZN4core6result6Result3Err17h0d921cffb1697324E, symObjAddr: 0x5CA0, symBinAddr: 0x3B214, symSize: 0x3C }
  - { offset: 0x10107C, size: 0x8, addend: 0x0, symName: '__ZN79_$LT$core..result..Result$LT$T$C$E$GT$$u20$as$u20$core..ops..try_trait..Try$GT$6branch17h01dadc06a98447f1E', symObjAddr: 0x5D90, symBinAddr: 0x3B250, symSize: 0x90 }
  - { offset: 0x1010F9, size: 0x8, addend: 0x0, symName: '__ZN79_$LT$core..result..Result$LT$T$C$E$GT$$u20$as$u20$core..ops..try_trait..Try$GT$6branch17h05e5ba3d5f331816E', symObjAddr: 0x5E20, symBinAddr: 0x3B2E0, symSize: 0x94 }
  - { offset: 0x101177, size: 0x8, addend: 0x0, symName: '__ZN79_$LT$core..result..Result$LT$T$C$E$GT$$u20$as$u20$core..ops..try_trait..Try$GT$6branch17h0867e7f32c933a75E', symObjAddr: 0x5EB4, symBinAddr: 0x3B374, symSize: 0xA0 }
  - { offset: 0x1011F4, size: 0x8, addend: 0x0, symName: '__ZN79_$LT$core..result..Result$LT$T$C$E$GT$$u20$as$u20$core..ops..try_trait..Try$GT$6branch17h0c42fa7a4234ded6E', symObjAddr: 0x5F54, symBinAddr: 0x3B414, symSize: 0xA0 }
  - { offset: 0x101271, size: 0x8, addend: 0x0, symName: '__ZN79_$LT$core..result..Result$LT$T$C$E$GT$$u20$as$u20$core..ops..try_trait..Try$GT$6branch17h13c856bcbf940d21E', symObjAddr: 0x5FF4, symBinAddr: 0x3B4B4, symSize: 0x88 }
  - { offset: 0x1012EF, size: 0x8, addend: 0x0, symName: '__ZN79_$LT$core..result..Result$LT$T$C$E$GT$$u20$as$u20$core..ops..try_trait..Try$GT$6branch17h1fd6f118fefbc9b7E', symObjAddr: 0x6244, symBinAddr: 0x3B53C, symSize: 0xA0 }
  - { offset: 0x10136C, size: 0x8, addend: 0x0, symName: '__ZN79_$LT$core..result..Result$LT$T$C$E$GT$$u20$as$u20$core..ops..try_trait..Try$GT$6branch17h40928fa329153c4cE', symObjAddr: 0x6660, symBinAddr: 0x3B5DC, symSize: 0xA0 }
  - { offset: 0x1013E9, size: 0x8, addend: 0x0, symName: '__ZN79_$LT$core..result..Result$LT$T$C$E$GT$$u20$as$u20$core..ops..try_trait..Try$GT$6branch17h44d7336cd5fc1b8eE', symObjAddr: 0x67A8, symBinAddr: 0x3B67C, symSize: 0x28 }
  - { offset: 0x101447, size: 0x8, addend: 0x0, symName: '__ZN79_$LT$core..result..Result$LT$T$C$E$GT$$u20$as$u20$core..ops..try_trait..Try$GT$6branch17h510f29a722197c26E', symObjAddr: 0x67D0, symBinAddr: 0x3B6A4, symSize: 0xA0 }
  - { offset: 0x1014C4, size: 0x8, addend: 0x0, symName: '__ZN79_$LT$core..result..Result$LT$T$C$E$GT$$u20$as$u20$core..ops..try_trait..Try$GT$6branch17h578017e3d9240368E', symObjAddr: 0x6870, symBinAddr: 0x3B744, symSize: 0xA0 }
  - { offset: 0x101541, size: 0x8, addend: 0x0, symName: '__ZN79_$LT$core..result..Result$LT$T$C$E$GT$$u20$as$u20$core..ops..try_trait..Try$GT$6branch17h7019e17cba52e731E', symObjAddr: 0x6A44, symBinAddr: 0x3B7E4, symSize: 0x38 }
  - { offset: 0x1015BD, size: 0x8, addend: 0x0, symName: '__ZN79_$LT$core..result..Result$LT$T$C$E$GT$$u20$as$u20$core..ops..try_trait..Try$GT$6branch17h75da79aa92e617beE', symObjAddr: 0x6A7C, symBinAddr: 0x3B81C, symSize: 0xA0 }
  - { offset: 0x10163A, size: 0x8, addend: 0x0, symName: '__ZN79_$LT$core..result..Result$LT$T$C$E$GT$$u20$as$u20$core..ops..try_trait..Try$GT$6branch17h77af08599e5f1636E', symObjAddr: 0x6B1C, symBinAddr: 0x3B8BC, symSize: 0x14 }
  - { offset: 0x101676, size: 0x8, addend: 0x0, symName: '__ZN79_$LT$core..result..Result$LT$T$C$E$GT$$u20$as$u20$core..ops..try_trait..Try$GT$6branch17h7ab2f094c448419cE', symObjAddr: 0x6B30, symBinAddr: 0x3B8D0, symSize: 0xB4 }
  - { offset: 0x1016F4, size: 0x8, addend: 0x0, symName: '__ZN79_$LT$core..result..Result$LT$T$C$E$GT$$u20$as$u20$core..ops..try_trait..Try$GT$6branch17h861e176afce82d90E', symObjAddr: 0x6D24, symBinAddr: 0x3B984, symSize: 0x28 }
  - { offset: 0x101752, size: 0x8, addend: 0x0, symName: '__ZN79_$LT$core..result..Result$LT$T$C$E$GT$$u20$as$u20$core..ops..try_trait..Try$GT$6branch17h8d7d8ee9c2130d27E', symObjAddr: 0x6E9C, symBinAddr: 0x3B9AC, symSize: 0xA0 }
  - { offset: 0x1017CF, size: 0x8, addend: 0x0, symName: '__ZN79_$LT$core..result..Result$LT$T$C$E$GT$$u20$as$u20$core..ops..try_trait..Try$GT$6branch17h9957eb4ef64634d6E', symObjAddr: 0x6FDC, symBinAddr: 0x3BA4C, symSize: 0xA0 }
  - { offset: 0x10184C, size: 0x8, addend: 0x0, symName: '__ZN79_$LT$core..result..Result$LT$T$C$E$GT$$u20$as$u20$core..ops..try_trait..Try$GT$6branch17ha0dc79b539fa8172E', symObjAddr: 0x711C, symBinAddr: 0x3BAEC, symSize: 0x88 }
  - { offset: 0x1018CA, size: 0x8, addend: 0x0, symName: '__ZN79_$LT$core..result..Result$LT$T$C$E$GT$$u20$as$u20$core..ops..try_trait..Try$GT$6branch17ha81b5c6ba3606061E', symObjAddr: 0x722C, symBinAddr: 0x3BB74, symSize: 0xB4 }
  - { offset: 0x101948, size: 0x8, addend: 0x0, symName: '__ZN79_$LT$core..result..Result$LT$T$C$E$GT$$u20$as$u20$core..ops..try_trait..Try$GT$6branch17ha8d8747f4e10301bE', symObjAddr: 0x72E0, symBinAddr: 0x3BC28, symSize: 0x88 }
  - { offset: 0x1019C6, size: 0x8, addend: 0x0, symName: '__ZN79_$LT$core..result..Result$LT$T$C$E$GT$$u20$as$u20$core..ops..try_trait..Try$GT$6branch17hb2d36b248aa18039E', symObjAddr: 0x7368, symBinAddr: 0x3BCB0, symSize: 0xA0 }
  - { offset: 0x101A43, size: 0x8, addend: 0x0, symName: '__ZN79_$LT$core..result..Result$LT$T$C$E$GT$$u20$as$u20$core..ops..try_trait..Try$GT$6branch17hbbc14191e9f34680E', symObjAddr: 0x74A8, symBinAddr: 0x3BD50, symSize: 0xA0 }
  - { offset: 0x101AC0, size: 0x8, addend: 0x0, symName: '__ZN79_$LT$core..result..Result$LT$T$C$E$GT$$u20$as$u20$core..ops..try_trait..Try$GT$6branch17hc1c528709d7eddc6E', symObjAddr: 0x7548, symBinAddr: 0x3BDF0, symSize: 0xA0 }
  - { offset: 0x101B3D, size: 0x8, addend: 0x0, symName: '__ZN79_$LT$core..result..Result$LT$T$C$E$GT$$u20$as$u20$core..ops..try_trait..Try$GT$6branch17hc6150e33d4fe23ddE', symObjAddr: 0x7638, symBinAddr: 0x3BE90, symSize: 0xAC }
  - { offset: 0x101BBA, size: 0x8, addend: 0x0, symName: '__ZN79_$LT$core..result..Result$LT$T$C$E$GT$$u20$as$u20$core..ops..try_trait..Try$GT$6branch17hc7171b3c49661cf1E', symObjAddr: 0x76E4, symBinAddr: 0x3BF3C, symSize: 0xA0 }
  - { offset: 0x101C37, size: 0x8, addend: 0x0, symName: '__ZN79_$LT$core..result..Result$LT$T$C$E$GT$$u20$as$u20$core..ops..try_trait..Try$GT$6branch17hce9d68995425500fE', symObjAddr: 0x7784, symBinAddr: 0x3BFDC, symSize: 0xA0 }
  - { offset: 0x101CB4, size: 0x8, addend: 0x0, symName: '__ZN79_$LT$core..result..Result$LT$T$C$E$GT$$u20$as$u20$core..ops..try_trait..Try$GT$6branch17hd0e93be5d38b9e2dE', symObjAddr: 0x78D8, symBinAddr: 0x3C07C, symSize: 0xA0 }
  - { offset: 0x101D31, size: 0x8, addend: 0x0, symName: '__ZN79_$LT$core..result..Result$LT$T$C$E$GT$$u20$as$u20$core..ops..try_trait..Try$GT$6branch17hd4a768d76e98acc8E', symObjAddr: 0x7978, symBinAddr: 0x3C11C, symSize: 0xAC }
  - { offset: 0x101DAE, size: 0x8, addend: 0x0, symName: '__ZN79_$LT$core..result..Result$LT$T$C$E$GT$$u20$as$u20$core..ops..try_trait..Try$GT$6branch17hd88ea727740ac8bdE', symObjAddr: 0x7B64, symBinAddr: 0x3C1C8, symSize: 0x44 }
  - { offset: 0x101E2A, size: 0x8, addend: 0x0, symName: '__ZN79_$LT$core..result..Result$LT$T$C$E$GT$$u20$as$u20$core..ops..try_trait..Try$GT$6branch17he7dfe82d91e5f300E', symObjAddr: 0x7CB0, symBinAddr: 0x3C20C, symSize: 0x88 }
  - { offset: 0x101EA8, size: 0x8, addend: 0x0, symName: '__ZN79_$LT$core..result..Result$LT$T$C$E$GT$$u20$as$u20$core..ops..try_trait..Try$GT$6branch17hecafc21d3980afcbE', symObjAddr: 0x7D38, symBinAddr: 0x3C294, symSize: 0xA0 }
  - { offset: 0x101F25, size: 0x8, addend: 0x0, symName: '__ZN79_$LT$core..result..Result$LT$T$C$E$GT$$u20$as$u20$core..ops..try_trait..Try$GT$6branch17hf1c64c5c6e7c9a47E', symObjAddr: 0x7E78, symBinAddr: 0x3C334, symSize: 0xA0 }
  - { offset: 0x101FA2, size: 0x8, addend: 0x0, symName: '__ZN79_$LT$core..result..Result$LT$T$C$E$GT$$u20$as$u20$core..ops..try_trait..Try$GT$6branch17hf89b59a416db14c3E', symObjAddr: 0x806C, symBinAddr: 0x3C3D4, symSize: 0xA0 }
  - { offset: 0x104CB7, size: 0x8, addend: 0x0, symName: '__ZN4core6result19Result$LT$T$C$E$GT$11map_or_else17h64573c5c6472d514E', symObjAddr: 0x2758, symBinAddr: 0x3A3FC, symSize: 0xDC }
  - { offset: 0x104DCE, size: 0x8, addend: 0x0, symName: '__ZN4core6result19Result$LT$T$C$E$GT$14unwrap_or_else17hcd8a90ff4be08c6eE', symObjAddr: 0x28C0, symBinAddr: 0x3A4D8, symSize: 0x8C }
  - { offset: 0x104E6C, size: 0x8, addend: 0x0, symName: '__ZN4core6result19Result$LT$T$C$E$GT$3map17h50596b57e353f472E', symObjAddr: 0x2F30, symBinAddr: 0x3A564, symSize: 0x9C }
  - { offset: 0x104F17, size: 0x8, addend: 0x0, symName: '__ZN4core6result19Result$LT$T$C$E$GT$3map17h771a6db46bf29264E', symObjAddr: 0x3218, symBinAddr: 0x3A600, symSize: 0xA8 }
  - { offset: 0x104FAB, size: 0x8, addend: 0x0, symName: '__ZN4core6result19Result$LT$T$C$E$GT$3map17h81a2d96dfb4125d5E', symObjAddr: 0x32C0, symBinAddr: 0x3A6A8, symSize: 0x90 }
  - { offset: 0x10504B, size: 0x8, addend: 0x0, symName: '__ZN4core6result19Result$LT$T$C$E$GT$3map17h8c47149c3234b2bfE', symObjAddr: 0x33E0, symBinAddr: 0x3A738, symSize: 0x9C }
  - { offset: 0x1050DE, size: 0x8, addend: 0x0, symName: '__ZN4core6result19Result$LT$T$C$E$GT$3map17h943d30c82db090c6E', symObjAddr: 0x3508, symBinAddr: 0x3A7D4, symSize: 0x90 }
  - { offset: 0x105171, size: 0x8, addend: 0x0, symName: '__ZN4core6result19Result$LT$T$C$E$GT$3map17ha8faba0131cad335E', symObjAddr: 0x3628, symBinAddr: 0x3A864, symSize: 0x90 }
  - { offset: 0x10520B, size: 0x8, addend: 0x0, symName: '__ZN4core6result19Result$LT$T$C$E$GT$3map17hcfb1cb236bd27fd4E', symObjAddr: 0x3868, symBinAddr: 0x3A8F4, symSize: 0xA0 }
  - { offset: 0x10529E, size: 0x8, addend: 0x0, symName: '__ZN4core6result19Result$LT$T$C$E$GT$3map17headecb43c4efb4d2E', symObjAddr: 0x3908, symBinAddr: 0x3A994, symSize: 0x90 }
  - { offset: 0x105349, size: 0x8, addend: 0x0, symName: '__ZN4core6result19Result$LT$T$C$E$GT$6expect17h459caabc0d86a890E', symObjAddr: 0x3D8C, symBinAddr: 0x3AA24, symSize: 0xB0 }
  - { offset: 0x1053AC, size: 0x8, addend: 0x0, symName: '__ZN4core6result19Result$LT$T$C$E$GT$6expect17h52bee17a1cb9f35eE', symObjAddr: 0x3E3C, symBinAddr: 0x3AAD4, symSize: 0x78 }
  - { offset: 0x10540E, size: 0x8, addend: 0x0, symName: '__ZN4core6result19Result$LT$T$C$E$GT$6expect17h662aa7eec580c111E', symObjAddr: 0x3EB4, symBinAddr: 0x3AB4C, symSize: 0xA4 }
  - { offset: 0x105471, size: 0x8, addend: 0x0, symName: '__ZN4core6result19Result$LT$T$C$E$GT$6expect17h9cb1d08ec62c20bfE', symObjAddr: 0x3F58, symBinAddr: 0x3ABF0, symSize: 0x84 }
  - { offset: 0x1054DA, size: 0x8, addend: 0x0, symName: '__ZN4core6result19Result$LT$T$C$E$GT$6expect17hca14263cde57f041E', symObjAddr: 0x408C, symBinAddr: 0x3AC74, symSize: 0x84 }
  - { offset: 0x10559E, size: 0x8, addend: 0x0, symName: '__ZN4core6result19Result$LT$T$C$E$GT$7map_err17h4be7280020709187E', symObjAddr: 0x4914, symBinAddr: 0x3ACF8, symSize: 0xBC }
  - { offset: 0x105631, size: 0x8, addend: 0x0, symName: '__ZN4core6result19Result$LT$T$C$E$GT$7map_err17h52bff2abc790f442E', symObjAddr: 0x49D0, symBinAddr: 0x3ADB4, symSize: 0x84 }
  - { offset: 0x1056D8, size: 0x8, addend: 0x0, symName: '__ZN4core6result19Result$LT$T$C$E$GT$7map_err17h69902d6a3123b5bbE', symObjAddr: 0x4C04, symBinAddr: 0x3AE38, symSize: 0x30 }
  - { offset: 0x10574E, size: 0x8, addend: 0x0, symName: '__ZN4core6result19Result$LT$T$C$E$GT$7map_err17h7244f3f4ed4ad069E', symObjAddr: 0x4C34, symBinAddr: 0x3AE68, symSize: 0x7C }
  - { offset: 0x1057E0, size: 0x8, addend: 0x0, symName: '__ZN4core6result19Result$LT$T$C$E$GT$7map_err17h7882a3ad060a38d5E', symObjAddr: 0x4CB0, symBinAddr: 0x3AEE4, symSize: 0x7C }
  - { offset: 0x105879, size: 0x8, addend: 0x0, symName: '__ZN4core6result19Result$LT$T$C$E$GT$7map_err17hceb7c27592a89fb6E', symObjAddr: 0x51CC, symBinAddr: 0x3AF60, symSize: 0xB0 }
  - { offset: 0x10590C, size: 0x8, addend: 0x0, symName: '__ZN4core6result19Result$LT$T$C$E$GT$7map_err17hd143a6f9afa89469E', symObjAddr: 0x527C, symBinAddr: 0x3B010, symSize: 0xD0 }
  - { offset: 0x1059A7, size: 0x8, addend: 0x0, symName: '__ZN4core6result19Result$LT$T$C$E$GT$9unwrap_or17h0b89000e27c825d2E', symObjAddr: 0x5B6C, symBinAddr: 0x3B0E0, symSize: 0xC4 }
  - { offset: 0x1059ED, size: 0x8, addend: 0x0, symName: '__ZN4core6result19Result$LT$T$C$E$GT$9unwrap_or17h79eed6b1ea987408E', symObjAddr: 0x5C30, symBinAddr: 0x3B1A4, symSize: 0x70 }
  - { offset: 0x105B2F, size: 0x8, addend: 0x0, symName: '__ZN105_$LT$std..collections..hash..map..Iter$LT$K$C$V$GT$$u20$as$u20$core..iter..traits..iterator..Iterator$GT$4next17h26f5c56045e48663E', symObjAddr: 0x0, symBinAddr: 0x3C474, symSize: 0x24 }
  - { offset: 0x105C0D, size: 0x8, addend: 0x0, symName: __ZN8pyo3_ffi6object12PyType_Check17h8baf80acaaaaf6d7E, symObjAddr: 0x43EC, symBinAddr: 0x3EB18, symSize: 0x30 }
  - { offset: 0x105C3B, size: 0x8, addend: 0x0, symName: __ZN8pyo3_ffi6object17PyType_HasFeature17hfb1539d693d8e987E, symObjAddr: 0x441C, symBinAddr: 0x3EB48, symSize: 0x8C }
  - { offset: 0x105C96, size: 0x8, addend: 0x0, symName: __ZN8pyo3_ffi6object19PyType_FastSubclass17hdebe2dbacf108e7fE, symObjAddr: 0x4524, symBinAddr: 0x3EBD4, symSize: 0x28 }
  - { offset: 0x105CD3, size: 0x8, addend: 0x0, symName: __ZN8pyo3_ffi6object7Py_None17h649a655161bc024cE, symObjAddr: 0x454C, symBinAddr: 0x3EBFC, symSize: 0xC }
  - { offset: 0x105CF1, size: 0x8, addend: 0x0, symName: __ZN8pyo3_ffi6object7Py_SIZE17h2d78d2e90d2845b1E, symObjAddr: 0x4558, symBinAddr: 0x3EC08, symSize: 0x1D4 }
  - { offset: 0x105D9F, size: 0x8, addend: 0x0, symName: __ZN8pyo3_ffi6object7Py_TYPE17h6d14fa7501418a31E, symObjAddr: 0x472C, symBinAddr: 0x3EDDC, symSize: 0x74 }
  - { offset: 0x106594, size: 0x8, addend: 0x0, symName: '__ZN59_$LT$core..ffi..c_str..CStr$u20$as$u20$core..hash..Hash$GT$4hash17h868b24b504fdf43eE', symObjAddr: 0x2DE8, symBinAddr: 0x3DD88, symSize: 0x30 }
  - { offset: 0x1065D9, size: 0x8, addend: 0x0, symName: '__ZN63_$LT$core..ffi..c_str..CStr$u20$as$u20$core..cmp..PartialEq$GT$2eq17ha779e7cd052f95ccE', symObjAddr: 0x3A08, symBinAddr: 0x3E7B4, symSize: 0x4C }
  - { offset: 0x1070F6, size: 0x8, addend: 0x0, symName: '__ZN4core3ptr7mut_ptr31_$LT$impl$u20$$BP$mut$u20$T$GT$7is_null17h40ee05dad615d5f2E', symObjAddr: 0x11B8, symBinAddr: 0x3D35C, symSize: 0x18 }
  - { offset: 0x108D86, size: 0x8, addend: 0x0, symName: '__ZN31_$LT$dyn$u20$core..any..Any$GT$12downcast_ref17h07d7db98bfe10924E', symObjAddr: 0x50, symBinAddr: 0x3C4C4, symSize: 0xA4 }
  - { offset: 0x108E77, size: 0x8, addend: 0x0, symName: '__ZN31_$LT$dyn$u20$core..any..Any$GT$12downcast_ref17hf50dbd6880113ccdE', symObjAddr: 0xF4, symBinAddr: 0x3C568, symSize: 0xA4 }
  - { offset: 0x108FE2, size: 0x8, addend: 0x0, symName: '__ZN54_$LT$dyn$u20$core..any..Any$u2b$core..marker..Send$GT$12downcast_ref17h2b548b81701f7695E', symObjAddr: 0x2D90, symBinAddr: 0x3DD30, symSize: 0x2C }
  - { offset: 0x109019, size: 0x8, addend: 0x0, symName: '__ZN54_$LT$dyn$u20$core..any..Any$u2b$core..marker..Send$GT$12downcast_ref17hc66ccb1613a1aee6E', symObjAddr: 0x2DBC, symBinAddr: 0x3DD5C, symSize: 0x2C }
  - { offset: 0x109274, size: 0x8, addend: 0x0, symName: '__ZN4core3cmp5impls69_$LT$impl$u20$core..cmp..PartialEq$LT$$RF$B$GT$$u20$for$u20$$RF$A$GT$2eq17he19cabecd2dea577E', symObjAddr: 0x106C, symBinAddr: 0x3D28C, symSize: 0x44 }
  - { offset: 0x109300, size: 0x8, addend: 0x0, symName: __ZN4core5slice3raw14from_raw_parts17h21efdf16b408e968E, symObjAddr: 0x14B0, symBinAddr: 0x3D458, symSize: 0x58 }
  - { offset: 0x109348, size: 0x8, addend: 0x0, symName: __ZN4core5slice3raw14from_raw_parts18precondition_check17haf755144323b4b87E, symObjAddr: 0x1610, symBinAddr: 0x3D4B0, symSize: 0x10C }
  - { offset: 0x109464, size: 0x8, addend: 0x0, symName: __ZN4core5slice3raw18from_raw_parts_mut18precondition_check17hf5dcdcf090d1b441E, symObjAddr: 0x1774, symBinAddr: 0x3D5BC, symSize: 0x10C }
  - { offset: 0x1095A8, size: 0x8, addend: 0x0, symName: '__ZN4core5slice29_$LT$impl$u20$$u5b$T$u5d$$GT$4iter17hacbf4404455583a9E', symObjAddr: 0x1488, symBinAddr: 0x3D430, symSize: 0x28 }
  - { offset: 0x109665, size: 0x8, addend: 0x0, symName: '__ZN4core5slice4iter87_$LT$impl$u20$core..iter..traits..collect..IntoIterator$u20$for$u20$$RF$$u5b$T$u5d$$GT$9into_iter17h0deea9ceac2331a7E', symObjAddr: 0x1880, symBinAddr: 0x3D6C8, symSize: 0x50 }
  - { offset: 0x10982F, size: 0x8, addend: 0x0, symName: '__ZN4core4hash5impls52_$LT$impl$u20$core..hash..Hash$u20$for$u20$$RF$T$GT$4hash17h0f2052538061a057E', symObjAddr: 0x1298, symBinAddr: 0x3D374, symSize: 0x3C }
  - { offset: 0x10987A, size: 0x8, addend: 0x0, symName: '__ZN4core4hash5impls52_$LT$impl$u20$core..hash..Hash$u20$for$u20$$RF$T$GT$4hash17hee900d54bd54819eE', symObjAddr: 0x12D4, symBinAddr: 0x3D3B0, symSize: 0x30 }
  - { offset: 0x109A09, size: 0x8, addend: 0x0, symName: __ZN4core4iter6traits8iterator8Iterator3map17hff4f3b3ebd7d42eeE, symObjAddr: 0x1304, symBinAddr: 0x3D3E0, symSize: 0x50 }
  - { offset: 0x10A12D, size: 0x8, addend: 0x0, symName: '__ZN3std2io5error14repr_bitpacked4Repr4data28_$u7b$$u7b$closure$u7d$$u7d$17hb509a1ac46074d9fE', symObjAddr: 0xEEC, symBinAddr: 0x3D184, symSize: 0x14 }
  - { offset: 0x10A165, size: 0x8, addend: 0x0, symName: __ZN3std2io5error14repr_bitpacked11decode_repr17h4cbba029cd0ce0a2E, symObjAddr: 0x4A8, symBinAddr: 0x3C91C, symSize: 0x1DC }
  - { offset: 0x10A3BB, size: 0x8, addend: 0x0, symName: '__ZN78_$LT$std..io..error..repr_bitpacked..Repr$u20$as$u20$core..ops..drop..Drop$GT$4drop28_$u7b$$u7b$closure$u7d$$u7d$17h78a74e59665099d9E', symObjAddr: 0x3D68, symBinAddr: 0x3EA08, symSize: 0x3C }
  - { offset: 0x10A470, size: 0x8, addend: 0x0, symName: '__ZN78_$LT$std..io..error..repr_bitpacked..Repr$u20$as$u20$core..ops..drop..Drop$GT$4drop17h2806d0eb8ff52fffE', symObjAddr: 0x3D30, symBinAddr: 0x3E9D0, symSize: 0x38 }
  - { offset: 0x10A499, size: 0x8, addend: 0x0, symName: __ZN3std2io5error14repr_bitpacked11decode_repr17h76afd58123df82f3E, symObjAddr: 0x684, symBinAddr: 0x3CAF8, symSize: 0x1DC }
  - { offset: 0x10A6DE, size: 0x8, addend: 0x0, symName: __ZN3std2io5error14repr_bitpacked14kind_from_prim17hd7d0990d9d284d50E, symObjAddr: 0xA3C, symBinAddr: 0x3CCD4, symSize: 0x4B0 }
  - { offset: 0x10AFDE, size: 0x8, addend: 0x0, symName: '__ZN105_$LT$std..collections..hash..map..Iter$LT$K$C$V$GT$$u20$as$u20$core..iter..traits..iterator..Iterator$GT$4next17h26f5c56045e48663E', symObjAddr: 0x0, symBinAddr: 0x3C474, symSize: 0x24 }
  - { offset: 0x10B01E, size: 0x8, addend: 0x0, symName: '__ZN105_$LT$std..collections..hash..map..Iter$LT$K$C$V$GT$$u20$as$u20$core..iter..traits..iterator..Iterator$GT$9size_hint17h41a113bf92773ec3E', symObjAddr: 0x24, symBinAddr: 0x3C498, symSize: 0x2C }
  - { offset: 0x10B467, size: 0x8, addend: 0x0, symName: '__ZN3std3sys4sync5mutex7pthread5Mutex3get28_$u7b$$u7b$closure$u7d$$u7d$17h27664a6f4a571c5bE', symObjAddr: 0xF3C, symBinAddr: 0x3D198, symSize: 0xF4 }
  - { offset: 0x10BFB0, size: 0x8, addend: 0x0, symName: __ZN4pyo311conversions3std3num20err_if_invalid_value17hc0c441c0c95e2c7eE, symObjAddr: 0x1980, symBinAddr: 0x3D718, symSize: 0xD8 }
  - { offset: 0x10C030, size: 0x8, addend: 0x0, symName: __ZN4pyo311conversions3std3num20err_if_invalid_value17hdf1e81b347bac3e3E, symObjAddr: 0x1A58, symBinAddr: 0x3D7F0, symSize: 0xD8 }
  - { offset: 0x10C0B5, size: 0x8, addend: 0x0, symName: '__ZN4pyo311conversions3std3num63_$LT$impl$u20$pyo3..conversion..FromPyObject$u20$for$u20$u8$GT$13extract_bound17hf787a76206ee123aE', symObjAddr: 0x1C3C, symBinAddr: 0x3D8C8, symSize: 0xD4 }
  - { offset: 0x10C127, size: 0x8, addend: 0x0, symName: '__ZN4pyo311conversions3std3num63_$LT$impl$u20$pyo3..conversion..FromPyObject$u20$for$u20$u8$GT$13extract_bound28_$u7b$$u7b$closure$u7d$$u7d$17h8cdc2c5df07a7391E', symObjAddr: 0x1D10, symBinAddr: 0x3D99C, symSize: 0x38 }
  - { offset: 0x10C17A, size: 0x8, addend: 0x0, symName: '__ZN4pyo311conversions3std3num64_$LT$impl$u20$pyo3..conversion..FromPyObject$u20$for$u20$u64$GT$13extract_bound17h40f7720196149bd3E', symObjAddr: 0x22E0, symBinAddr: 0x3D9D4, symSize: 0x1E8 }
  - { offset: 0x10C215, size: 0x8, addend: 0x0, symName: '__ZN4pyo311conversions3std3num64_$LT$impl$u20$pyo3..conversion..IntoPyObject$u20$for$u20$u32$GT$13into_pyobject17h12d205f5c83cd3afE', symObjAddr: 0x25A0, symBinAddr: 0x3DBBC, symSize: 0x38 }
  - { offset: 0x10C260, size: 0x8, addend: 0x0, symName: '__ZN4pyo311conversions3std3num64_$LT$impl$u20$pyo3..conversion..IntoPyObject$u20$for$u20$u64$GT$13into_pyobject17h1f4ff48dbf1dccdbE', symObjAddr: 0x25D8, symBinAddr: 0x3DBF4, symSize: 0x30 }
  - { offset: 0x10C2AB, size: 0x8, addend: 0x0, symName: '__ZN4pyo311conversions3std3num66_$LT$impl$u20$pyo3..conversion..FromPyObject$u20$for$u20$usize$GT$13extract_bound17hd8f6d6a338078a19E', symObjAddr: 0x2710, symBinAddr: 0x3DC24, symSize: 0xB4 }
  - { offset: 0x10C319, size: 0x8, addend: 0x0, symName: '__ZN4pyo311conversions3std3num66_$LT$impl$u20$pyo3..conversion..FromPyObject$u20$for$u20$usize$GT$13extract_bound28_$u7b$$u7b$closure$u7d$$u7d$17h99a7630b80e1e828E', symObjAddr: 0x27C4, symBinAddr: 0x3DCD8, symSize: 0x38 }
  - { offset: 0x10C368, size: 0x8, addend: 0x0, symName: '__ZN4pyo311conversions3std3num66_$LT$impl$u20$pyo3..conversion..IntoPyObject$u20$for$u20$usize$GT$13into_pyobject17h6b91e91402726f08E', symObjAddr: 0x282C, symBinAddr: 0x3DD10, symSize: 0x20 }
  - { offset: 0x10C3BB, size: 0x8, addend: 0x0, symName: '__ZN87_$LT$$BP$mut$u20$pyo3_ffi..object..PyObject$u20$as$u20$pyo3..ffi_ptr_ext..FfiPtrExt$GT$12assume_owned17hadd753ee0715cc33E', symObjAddr: 0x418C, symBinAddr: 0x3EA64, symSize: 0x24 }
  - { offset: 0x10C400, size: 0x8, addend: 0x0, symName: '__ZN87_$LT$$BP$mut$u20$pyo3_ffi..object..PyObject$u20$as$u20$pyo3..ffi_ptr_ext..FfiPtrExt$GT$15assume_borrowed17h937adae8851d2caeE', symObjAddr: 0x41B0, symBinAddr: 0x3EA88, symSize: 0x24 }
  - { offset: 0x10C445, size: 0x8, addend: 0x0, symName: '__ZN87_$LT$$BP$mut$u20$pyo3_ffi..object..PyObject$u20$as$u20$pyo3..ffi_ptr_ext..FfiPtrExt$GT$19assume_owned_or_err17h98c38b969746e477E', symObjAddr: 0x41D4, symBinAddr: 0x3EAAC, symSize: 0x24 }
  - { offset: 0x10C48A, size: 0x8, addend: 0x0, symName: '__ZN87_$LT$$BP$mut$u20$pyo3_ffi..object..PyObject$u20$as$u20$pyo3..ffi_ptr_ext..FfiPtrExt$GT$19assume_owned_or_opt17h77d155fccb8aaa79E', symObjAddr: 0x41F8, symBinAddr: 0x3EAD0, symSize: 0x24 }
  - { offset: 0x10C4CF, size: 0x8, addend: 0x0, symName: '__ZN87_$LT$$BP$mut$u20$pyo3_ffi..object..PyObject$u20$as$u20$pyo3..ffi_ptr_ext..FfiPtrExt$GT$25assume_borrowed_unchecked17h73a5464537d4b637E', symObjAddr: 0x4264, symBinAddr: 0x3EAF4, symSize: 0x24 }
  - { offset: 0x10CB39, size: 0x8, addend: 0x0, symName: '__ZN83_$LT$alloc..vec..set_len_on_drop..SetLenOnDrop$u20$as$u20$core..ops..drop..Drop$GT$4drop17h8f925e4e9d3decddE', symObjAddr: 0x416C, symBinAddr: 0x3EA44, symSize: 0x20 }
  - { offset: 0x10D270, size: 0x8, addend: 0x0, symName: '__ZN77_$LT$alloc..raw_vec..RawVec$LT$T$C$A$GT$$u20$as$u20$core..ops..drop..Drop$GT$4drop17h0debdf319efaef84E', symObjAddr: 0x3AFC, symBinAddr: 0x3E800, symSize: 0x34 }
  - { offset: 0x10D2AC, size: 0x8, addend: 0x0, symName: '__ZN77_$LT$alloc..raw_vec..RawVec$LT$T$C$A$GT$$u20$as$u20$core..ops..drop..Drop$GT$4drop17h2887ea3dd6261e71E', symObjAddr: 0x3B30, symBinAddr: 0x3E834, symSize: 0x34 }
  - { offset: 0x10D2E8, size: 0x8, addend: 0x0, symName: '__ZN77_$LT$alloc..raw_vec..RawVec$LT$T$C$A$GT$$u20$as$u20$core..ops..drop..Drop$GT$4drop17h3131e2a5976ae16dE', symObjAddr: 0x3B64, symBinAddr: 0x3E868, symSize: 0x34 }
  - { offset: 0x10D324, size: 0x8, addend: 0x0, symName: '__ZN77_$LT$alloc..raw_vec..RawVec$LT$T$C$A$GT$$u20$as$u20$core..ops..drop..Drop$GT$4drop17h44c713335c9280a3E', symObjAddr: 0x3B98, symBinAddr: 0x3E89C, symSize: 0x34 }
  - { offset: 0x10D360, size: 0x8, addend: 0x0, symName: '__ZN77_$LT$alloc..raw_vec..RawVec$LT$T$C$A$GT$$u20$as$u20$core..ops..drop..Drop$GT$4drop17h783e9f1ecc9a3ddaE', symObjAddr: 0x3BCC, symBinAddr: 0x3E8D0, symSize: 0x34 }
  - { offset: 0x10D39C, size: 0x8, addend: 0x0, symName: '__ZN77_$LT$alloc..raw_vec..RawVec$LT$T$C$A$GT$$u20$as$u20$core..ops..drop..Drop$GT$4drop17h91d54d196211744dE', symObjAddr: 0x3C00, symBinAddr: 0x3E904, symSize: 0x34 }
  - { offset: 0x10D3D8, size: 0x8, addend: 0x0, symName: '__ZN77_$LT$alloc..raw_vec..RawVec$LT$T$C$A$GT$$u20$as$u20$core..ops..drop..Drop$GT$4drop17h99da7dcd648138d8E', symObjAddr: 0x3C34, symBinAddr: 0x3E938, symSize: 0x34 }
  - { offset: 0x10D414, size: 0x8, addend: 0x0, symName: '__ZN77_$LT$alloc..raw_vec..RawVec$LT$T$C$A$GT$$u20$as$u20$core..ops..drop..Drop$GT$4drop17hf25d831f5d7478c6E', symObjAddr: 0x3CCC, symBinAddr: 0x3E96C, symSize: 0x34 }
  - { offset: 0x10D450, size: 0x8, addend: 0x0, symName: '__ZN77_$LT$alloc..raw_vec..RawVec$LT$T$C$A$GT$$u20$as$u20$core..ops..drop..Drop$GT$4drop17hf672dd3114b9a334E', symObjAddr: 0x3D00, symBinAddr: 0x3E9A0, symSize: 0x30 }
  - { offset: 0x10D971, size: 0x8, addend: 0x0, symName: '__ZN3std11collections4hash3map18Entry$LT$K$C$V$GT$10or_default17h89d4014069e87c91E', symObjAddr: 0x198, symBinAddr: 0x3C60C, symSize: 0x190 }
  - { offset: 0x10DBCF, size: 0x8, addend: 0x0, symName: '__ZN3std11collections4hash3map20HashMap$LT$K$C$V$GT$3new17hdadc050566c560c7E', symObjAddr: 0x328, symBinAddr: 0x3C79C, symSize: 0x7C }
  - { offset: 0x10DCE9, size: 0x8, addend: 0x0, symName: '__ZN3std11collections4hash3map24HashMap$LT$K$C$V$C$S$GT$3len17h638728dc1e7782c3E', symObjAddr: 0x3A4, symBinAddr: 0x3C818, symSize: 0x18 }
  - { offset: 0x10DD8A, size: 0x8, addend: 0x0, symName: '__ZN3std11collections4hash3map24HashMap$LT$K$C$V$C$S$GT$4iter17h29f92c1eceb06068E', symObjAddr: 0x3BC, symBinAddr: 0x3C830, symSize: 0x44 }
  - { offset: 0x10DDD5, size: 0x8, addend: 0x0, symName: '__ZN3std11collections4hash3map24HashMap$LT$K$C$V$C$S$GT$5entry17hfaf7088b57c70b43E', symObjAddr: 0x400, symBinAddr: 0x3C874, symSize: 0xA8 }
  - { offset: 0x10E155, size: 0x8, addend: 0x0, symName: __ZN4core3ffi5c_str4CStr6as_ptr17h00f3653df8e8ae17E, symObjAddr: 0x10B0, symBinAddr: 0x3D2D0, symSize: 0x18 }
  - { offset: 0x10E1C7, size: 0x8, addend: 0x0, symName: __ZN4core3ffi5c_str4CStr8to_bytes17h211c045028553826E, symObjAddr: 0x1144, symBinAddr: 0x3D2E8, symSize: 0x74 }
  - { offset: 0x10E412, size: 0x8, addend: 0x0, symName: '__ZN5alloc7raw_vec19RawVec$LT$T$C$A$GT$8grow_one17h27e9ce25df648e9cE', symObjAddr: 0x2E18, symBinAddr: 0x3DDB8, symSize: 0x88 }
  - { offset: 0x10E4C4, size: 0x8, addend: 0x0, symName: '__ZN5alloc7raw_vec19RawVec$LT$T$C$A$GT$8grow_one17h34a8c3d53a3524d9E', symObjAddr: 0x2EA0, symBinAddr: 0x3DE40, symSize: 0x84 }
  - { offset: 0x10E594, size: 0x8, addend: 0x0, symName: '__ZN5alloc7raw_vec19RawVec$LT$T$C$A$GT$8grow_one17h387da84b3a822483E', symObjAddr: 0x2F24, symBinAddr: 0x3DEC4, symSize: 0x88 }
  - { offset: 0x10E646, size: 0x8, addend: 0x0, symName: '__ZN5alloc7raw_vec19RawVec$LT$T$C$A$GT$8grow_one17h4219036b2a4db243E', symObjAddr: 0x2FAC, symBinAddr: 0x3DF4C, symSize: 0x88 }
  - { offset: 0x10E6F8, size: 0x8, addend: 0x0, symName: '__ZN5alloc7raw_vec19RawVec$LT$T$C$A$GT$8grow_one17h9bbafdeb105a229eE', symObjAddr: 0x3034, symBinAddr: 0x3DFD4, symSize: 0x88 }
  - { offset: 0x10E7AA, size: 0x8, addend: 0x0, symName: '__ZN5alloc7raw_vec19RawVec$LT$T$C$A$GT$8grow_one17h9f55d82b4877ee2bE', symObjAddr: 0x30BC, symBinAddr: 0x3E05C, symSize: 0x84 }
  - { offset: 0x10E85C, size: 0x8, addend: 0x0, symName: '__ZN5alloc7raw_vec19RawVec$LT$T$C$A$GT$8grow_one17hb943ed64f732d32bE', symObjAddr: 0x3140, symBinAddr: 0x3E0E0, symSize: 0x88 }
  - { offset: 0x10E90E, size: 0x8, addend: 0x0, symName: '__ZN5alloc7raw_vec19RawVec$LT$T$C$A$GT$8grow_one17hbc9ad49d476b1419E', symObjAddr: 0x31C8, symBinAddr: 0x3E168, symSize: 0x88 }
  - { offset: 0x10EB08, size: 0x8, addend: 0x0, symName: '__ZN5alloc7raw_vec19RawVec$LT$T$C$A$GT$8into_box17h0d6b3bbd16e4e7dfE', symObjAddr: 0x3250, symBinAddr: 0x3E1F0, symSize: 0x7C }
  - { offset: 0x10EE4F, size: 0x8, addend: 0x0, symName: '__ZN5alloc7raw_vec19RawVec$LT$T$C$A$GT$8into_box17h52b5afd9b216affbE', symObjAddr: 0x3348, symBinAddr: 0x3E26C, symSize: 0x7C }
  - { offset: 0x10F17C, size: 0x8, addend: 0x0, symName: '__ZN5alloc7raw_vec19RawVec$LT$T$C$A$GT$8into_box17hc38dc00b3dd6d9dbE', symObjAddr: 0x33C4, symBinAddr: 0x3E2E8, symSize: 0x7C }
  - { offset: 0x10F3AD, size: 0x8, addend: 0x0, symName: '__ZN5alloc7raw_vec20RawVecInner$LT$A$GT$14current_memory17h1208f448c40756bbE', symObjAddr: 0x34B0, symBinAddr: 0x3E364, symSize: 0x108 }
  - { offset: 0x10F5DA, size: 0x8, addend: 0x0, symName: '__ZN5alloc7raw_vec20RawVecInner$LT$A$GT$16shrink_unchecked17h7e7e342899964f06E', symObjAddr: 0x36C0, symBinAddr: 0x3E46C, symSize: 0x290 }
  - { offset: 0x10F92B, size: 0x8, addend: 0x0, symName: '__ZN5alloc7raw_vec20RawVecInner$LT$A$GT$6shrink17hf52208975f60814aE', symObjAddr: 0x3950, symBinAddr: 0x3E6FC, symSize: 0xB8 }
  - { offset: 0x10FBB0, size: 0x8, addend: 0x0, symName: '__ZN103_$LT$alloc..vec..into_iter..IntoIter$LT$T$C$A$GT$$u20$as$u20$core..iter..traits..iterator..Iterator$GT$4next17h24ca346f3035cdd4E', symObjAddr: 0x0, symBinAddr: 0x3EE50, symSize: 0x94 }
  - { offset: 0x10FC07, size: 0x8, addend: 0x0, symName: '__ZN73_$LT$pyo3..types..num..PyInt$u20$as$u20$pyo3..type_object..PyTypeInfo$GT$10is_type_of17heaf857b0269badb2E', symObjAddr: 0x3844, symBinAddr: 0x40980, symSize: 0x30 }
  - { offset: 0x10FE45, size: 0x8, addend: 0x0, symName: '__ZN4pyo311conversions3std6string68_$LT$impl$u20$pyo3..conversion..IntoPyObject$u20$for$u20$$RF$str$GT$13into_pyobject17heb0673c845a58cd0E', symObjAddr: 0x1E34, symBinAddr: 0x3F84C, symSize: 0x28 }
  - { offset: 0x10FE90, size: 0x8, addend: 0x0, symName: '__ZN4pyo311conversions3std6string73_$LT$impl$u20$pyo3..conversion..FromPyObjectBound$u20$for$u20$$RF$str$GT$20from_py_object_bound17h886b6f13ebd9c5dfE', symObjAddr: 0x1E5C, symBinAddr: 0x3F874, symSize: 0xA0 }
  - { offset: 0x11002C, size: 0x8, addend: 0x0, symName: __ZN4pyo35impl_9pymethods11_call_clear17hda2c4f47d9a52727E, symObjAddr: 0x2190, symBinAddr: 0x3F9F0, symSize: 0x48 }
  - { offset: 0x11007D, size: 0x8, addend: 0x0, symName: '__ZN4pyo35impl_9pymethods11_call_clear28_$u7b$$u7b$closure$u7d$$u7d$17hd7784c9a39a28e91E', symObjAddr: 0x21D8, symBinAddr: 0x3FA38, symSize: 0x10C }
  - { offset: 0x11012B, size: 0x8, addend: 0x0, symName: __ZN4pyo35impl_9pymethods16call_super_clear17h543d221df4264b04E, symObjAddr: 0x22E4, symBinAddr: 0x3FB44, symSize: 0x268 }
  - { offset: 0x1103D5, size: 0x8, addend: 0x0, symName: '__ZN52_$LT$T$u20$as$u20$pyo3..type_object..PyTypeCheck$GT$10type_check17h030bfe161750d647E', symObjAddr: 0x2B3C, symBinAddr: 0x3FDD0, symSize: 0x24 }
  - { offset: 0x111EC7, size: 0x8, addend: 0x0, symName: '__ZN4core3num23_$LT$impl$u20$usize$GT$13unchecked_add18precondition_check17h38c427704ec1b01cE', symObjAddr: 0x14CC, symBinAddr: 0x3F248, symSize: 0x64 }
  - { offset: 0x111F70, size: 0x8, addend: 0x0, symName: '__ZN4core3num23_$LT$impl$u20$usize$GT$13unchecked_mul18precondition_check17h8fda57a08bc16a71E', symObjAddr: 0x1530, symBinAddr: 0x3F2AC, symSize: 0x60 }
  - { offset: 0x112070, size: 0x8, addend: 0x0, symName: '__ZN4core4iter6traits8iterator8Iterator8find_map5check28_$u7b$$u7b$closure$u7d$$u7d$17h6e3920d386aa0d09E', symObjAddr: 0x1A0C, symBinAddr: 0x3F754, symSize: 0x7C }
  - { offset: 0x1120F3, size: 0x8, addend: 0x0, symName: '__ZN4core4iter6traits8iterator8Iterator8find_map5check28_$u7b$$u7b$closure$u7d$$u7d$17h94ec1b46e6807e74E', symObjAddr: 0x1A88, symBinAddr: 0x3F7D0, symSize: 0x7C }
  - { offset: 0x112346, size: 0x8, addend: 0x0, symName: '__ZN104_$LT$core..ops..index_range..IndexRange$u20$as$u20$core..slice..index..SliceIndex$LT$$u5b$T$u5d$$GT$$GT$17get_unchecked_mut18precondition_check17h7e7acc7181e042beE', symObjAddr: 0x2B0, symBinAddr: 0x3F014, symSize: 0x60 }
  - { offset: 0x1123D5, size: 0x8, addend: 0x0, symName: '__ZN75_$LT$usize$u20$as$u20$core..slice..index..SliceIndex$LT$$u5b$T$u5d$$GT$$GT$13get_unchecked18precondition_check17ha8e4eefa879cabfeE', symObjAddr: 0x3940, symBinAddr: 0x40A7C, symSize: 0x60 }
  - { offset: 0x11242E, size: 0x8, addend: 0x0, symName: '__ZN75_$LT$usize$u20$as$u20$core..slice..index..SliceIndex$LT$$u5b$T$u5d$$GT$$GT$17get_unchecked_mut18precondition_check17hb88e1eafb79941b9E', symObjAddr: 0x39A0, symBinAddr: 0x40ADC, symSize: 0x60 }
  - { offset: 0x11251F, size: 0x8, addend: 0x0, symName: '__ZN47_$LT$$LP$$RP$$u20$as$u20$core..unit..IsUnit$GT$7is_unit17h1c552ee8d875f827E', symObjAddr: 0xD28, symBinAddr: 0x3F23C, symSize: 0xC }
  - { offset: 0x112827, size: 0x8, addend: 0x0, symName: __ZN4core4hash11BuildHasher8hash_one17h08c1b87fa3c68a46E, symObjAddr: 0x1658, symBinAddr: 0x3F3A0, symSize: 0x84 }
  - { offset: 0x112976, size: 0x8, addend: 0x0, symName: __ZN4core4hash3sip9u8to64_le17h027611ed77ae9c53E, symObjAddr: 0x1768, symBinAddr: 0x3F4B0, symSize: 0x240 }
  - { offset: 0x112B33, size: 0x8, addend: 0x0, symName: '__ZN69_$LT$core..hash..sip..Sip13Rounds$u20$as$u20$core..hash..sip..Sip$GT$8c_rounds17h189bca95b7126739E', symObjAddr: 0x2F1C, symBinAddr: 0x40058, symSize: 0x1A0 }
  - { offset: 0x112CA8, size: 0x8, addend: 0x0, symName: '__ZN69_$LT$core..hash..sip..Sip13Rounds$u20$as$u20$core..hash..sip..Sip$GT$8d_rounds17hafeeba0f2db5f42cE', symObjAddr: 0x30BC, symBinAddr: 0x401F8, symSize: 0x46C }
  - { offset: 0x1130E5, size: 0x8, addend: 0x0, symName: '__ZN71_$LT$core..hash..sip..Hasher$LT$S$GT$$u20$as$u20$core..hash..Hasher$GT$5write17hd7390ec80000e37dE', symObjAddr: 0x3528, symBinAddr: 0x40664, symSize: 0x230 }
  - { offset: 0x11325B, size: 0x8, addend: 0x0, symName: '__ZN71_$LT$core..hash..sip..Hasher$LT$S$GT$$u20$as$u20$core..hash..Hasher$GT$6finish17he6faa385ba18fd72E', symObjAddr: 0x3758, symBinAddr: 0x40894, symSize: 0xA0 }
  - { offset: 0x113349, size: 0x8, addend: 0x0, symName: __ZN4core4hash6Hasher11write_usize17h625331a0e43676b3E, symObjAddr: 0x19A8, symBinAddr: 0x3F6F0, symSize: 0x3C }
  - { offset: 0x1133A9, size: 0x8, addend: 0x0, symName: __ZN4core4hash6Hasher19write_length_prefix17h77ac0240732a98eeE, symObjAddr: 0x19E4, symBinAddr: 0x3F72C, symSize: 0x28 }
  - { offset: 0x113D02, size: 0x8, addend: 0x0, symName: __ZN8pyo3_ffi7objimpl12PyType_IS_GC17h3000c5d22109071eE, symObjAddr: 0x4484, symBinAddr: 0x40C90, symSize: 0x2C }
  - { offset: 0x114309, size: 0x8, addend: 0x0, symName: '__ZN3std4hash6random11RandomState3new28_$u7b$$u7b$closure$u7d$$u7d$17h6c8099ea1b1b9475E', symObjAddr: 0x4D4, symBinAddr: 0x3F1B8, symSize: 0x2C }
  - { offset: 0x1143C5, size: 0x8, addend: 0x0, symName: __ZN3std4hash6random11RandomState3new4KEYS27__rust_std_internal_init_fn17hbf927681908a569fE, symObjAddr: 0x500, symBinAddr: 0x3F1E4, symSize: 0x24 }
  - { offset: 0x1143E7, size: 0x8, addend: 0x0, symName: '__ZN3std4hash6random11RandomState3new4KEYS29_$u7b$$u7b$constant$u7d$$u7d$28_$u7b$$u7b$closure$u7d$$u7d$17hf7fea20215b04ab9E', symObjAddr: 0x524, symBinAddr: 0x3F208, symSize: 0x34 }
  - { offset: 0x114434, size: 0x8, addend: 0x0, symName: '__ZN71_$LT$std..hash..random..DefaultHasher$u20$as$u20$core..hash..Hasher$GT$5write17h7cd790dacf92e512E', symObjAddr: 0x37F8, symBinAddr: 0x40934, symSize: 0x2C }
  - { offset: 0x11448E, size: 0x8, addend: 0x0, symName: '__ZN71_$LT$std..hash..random..DefaultHasher$u20$as$u20$core..hash..Hasher$GT$6finish17h0c7aaed6261e5c81E', symObjAddr: 0x3824, symBinAddr: 0x40960, symSize: 0x20 }
  - { offset: 0x1144DC, size: 0x8, addend: 0x0, symName: '__ZN74_$LT$std..hash..random..RandomState$u20$as$u20$core..hash..BuildHasher$GT$12build_hasher17h46de1a079c32fa77E', symObjAddr: 0x3874, symBinAddr: 0x409B0, symSize: 0xCC }
  - { offset: 0x1146D2, size: 0x8, addend: 0x0, symName: '__ZN103_$LT$alloc..vec..into_iter..IntoIter$LT$T$C$A$GT$$u20$as$u20$core..iter..traits..iterator..Iterator$GT$4next17h24ca346f3035cdd4E', symObjAddr: 0x0, symBinAddr: 0x3EE50, symSize: 0x94 }
  - { offset: 0x11482C, size: 0x8, addend: 0x0, symName: '__ZN103_$LT$alloc..vec..into_iter..IntoIter$LT$T$C$A$GT$$u20$as$u20$core..iter..traits..iterator..Iterator$GT$4next17h36c1a82ef15bd82bE', symObjAddr: 0x94, symBinAddr: 0x3EEE4, symSize: 0xA8 }
  - { offset: 0x11498A, size: 0x8, addend: 0x0, symName: '__ZN103_$LT$alloc..vec..into_iter..IntoIter$LT$T$C$A$GT$$u20$as$u20$core..iter..traits..iterator..Iterator$GT$4next17hdc3bba505b4740cbE', symObjAddr: 0x13C, symBinAddr: 0x3EF8C, symSize: 0x88 }
  - { offset: 0x114BA8, size: 0x8, addend: 0x0, symName: '__ZN157_$LT$$LT$alloc..vec..into_iter..IntoIter$LT$T$C$A$GT$$u20$as$u20$core..ops..drop..Drop$GT$..drop..DropGuard$LT$T$C$A$GT$$u20$as$u20$core..ops..drop..Drop$GT$4drop17h76b33247ae0cd226E', symObjAddr: 0x390, symBinAddr: 0x3F074, symSize: 0x6C }
  - { offset: 0x114CEB, size: 0x8, addend: 0x0, symName: '__ZN157_$LT$$LT$alloc..vec..into_iter..IntoIter$LT$T$C$A$GT$$u20$as$u20$core..ops..drop..Drop$GT$..drop..DropGuard$LT$T$C$A$GT$$u20$as$u20$core..ops..drop..Drop$GT$4drop17hbcc6d3103cc6a66cE', symObjAddr: 0x3FC, symBinAddr: 0x3F0E0, symSize: 0x6C }
  - { offset: 0x114E2E, size: 0x8, addend: 0x0, symName: '__ZN157_$LT$$LT$alloc..vec..into_iter..IntoIter$LT$T$C$A$GT$$u20$as$u20$core..ops..drop..Drop$GT$..drop..DropGuard$LT$T$C$A$GT$$u20$as$u20$core..ops..drop..Drop$GT$4drop17he3ee9f80fc3d8974E', symObjAddr: 0x468, symBinAddr: 0x3F14C, symSize: 0x6C }
  - { offset: 0x114FE8, size: 0x8, addend: 0x0, symName: '__ZN86_$LT$alloc..vec..into_iter..IntoIter$LT$T$C$A$GT$$u20$as$u20$core..ops..drop..Drop$GT$4drop17h3c84298e68667d66E', symObjAddr: 0x3A74, symBinAddr: 0x40B3C, symSize: 0x78 }
  - { offset: 0x11503A, size: 0x8, addend: 0x0, symName: '__ZN86_$LT$alloc..vec..into_iter..IntoIter$LT$T$C$A$GT$$u20$as$u20$core..ops..drop..Drop$GT$4drop17h597555f1b93563b8E', symObjAddr: 0x3AEC, symBinAddr: 0x40BB4, symSize: 0x78 }
  - { offset: 0x11508C, size: 0x8, addend: 0x0, symName: '__ZN86_$LT$alloc..vec..into_iter..IntoIter$LT$T$C$A$GT$$u20$as$u20$core..ops..drop..Drop$GT$4drop17hbe40011d49586f7eE', symObjAddr: 0x3B64, symBinAddr: 0x40C2C, symSize: 0x64 }
  - { offset: 0x1159F1, size: 0x8, addend: 0x0, symName: '__ZN4core4cell13Cell$LT$T$GT$3get17h9b258946e9e578abE', symObjAddr: 0x15C4, symBinAddr: 0x3F30C, symSize: 0x18 }
  - { offset: 0x115A45, size: 0x8, addend: 0x0, symName: '__ZN4core4cell13Cell$LT$T$GT$3set17hbf0237c67ef15bb7E', symObjAddr: 0x15DC, symBinAddr: 0x3F324, symSize: 0x1C }
  - { offset: 0x115B5C, size: 0x8, addend: 0x0, symName: '__ZN4core4cell13Cell$LT$T$GT$4take17h31bec58606d9a622E', symObjAddr: 0x15F8, symBinAddr: 0x3F340, symSize: 0x3C }
  - { offset: 0x115BC3, size: 0x8, addend: 0x0, symName: '__ZN4core4cell13Cell$LT$T$GT$7replace17h940af2e8ef0521acE', symObjAddr: 0x1634, symBinAddr: 0x3F37C, symSize: 0x24 }
  - { offset: 0x115C20, size: 0x8, addend: 0x0, symName: '__ZN4core4hash3sip15Hasher$LT$S$GT$5reset17ha5d54e8e014f39fcE', symObjAddr: 0x16DC, symBinAddr: 0x3F424, symSize: 0x8C }
  - { offset: 0x115CFF, size: 0x8, addend: 0x0, symName: __ZN4pyo35impl_9pymethods11PyMethodDef13as_method_def17hb6bed910339857a8E, symObjAddr: 0x1F3C, symBinAddr: 0x3F914, symSize: 0xDC }
  - { offset: 0x115DAF, size: 0x8, addend: 0x0, symName: '__ZN4pyo35impl_9pymethods39BoundRef$LT$pyo3..types..any..PyAny$GT$12ref_from_ptr17hfc0f46a90f5484c1E', symObjAddr: 0x2688, symBinAddr: 0x3FDAC, symSize: 0x24 }
  - { offset: 0x115E8F, size: 0x8, addend: 0x0, symName: '__ZN5alloc3vec9into_iter21IntoIter$LT$T$C$A$GT$16as_raw_mut_slice17h0e189a64dfb16a4dE', symObjAddr: 0x2B60, symBinAddr: 0x3FDF4, symSize: 0xCC }
  - { offset: 0x116049, size: 0x8, addend: 0x0, symName: '__ZN5alloc3vec9into_iter21IntoIter$LT$T$C$A$GT$16as_raw_mut_slice17h0e46c7caed25ebe2E', symObjAddr: 0x2C2C, symBinAddr: 0x3FEC0, symSize: 0xCC }
  - { offset: 0x116203, size: 0x8, addend: 0x0, symName: '__ZN5alloc3vec9into_iter21IntoIter$LT$T$C$A$GT$16as_raw_mut_slice17h64fd9cb02a8602b4E', symObjAddr: 0x2CF8, symBinAddr: 0x3FF8C, symSize: 0xCC }
  - { offset: 0x116526, size: 0x8, addend: 0x0, symName: __ZN4core5slice6memchr6memchr17h8dbb08b1f927a84dE, symObjAddr: 0x0, symBinAddr: 0x40CBC, symSize: 0x114 }
  - { offset: 0x116555, size: 0x8, addend: 0x0, symName: '__ZN9hashbrown3raw21RawTable$LT$T$C$A$GT$14reserve_rehash28_$u7b$$u7b$closure$u7d$$u7d$17h8f8f3814cb40a382E', symObjAddr: 0x266C, symBinAddr: 0x428A4, symSize: 0xC0 }
  - { offset: 0x116739, size: 0x8, addend: 0x0, symName: '__ZN9hashbrown3raw21RawTable$LT$T$C$A$GT$4find28_$u7b$$u7b$closure$u7d$$u7d$17ha09c691308535886E', symObjAddr: 0x2A40, symBinAddr: 0x42C78, symSize: 0xC4 }
  - { offset: 0x116F1B, size: 0x8, addend: 0x0, symName: '__ZN79_$LT$hashbrown..raw..RawTable$LT$T$C$A$GT$$u20$as$u20$core..ops..drop..Drop$GT$4drop17h5964c047036d5f43E', symObjAddr: 0x444, symBinAddr: 0x40E7C, symSize: 0x3C }
  - { offset: 0x117130, size: 0x8, addend: 0x0, symName: '__ZN9hashbrown3raw13RawTableInner14prepare_resize28_$u7b$$u7b$closure$u7d$$u7d$17h4af6d1ca6bfe894aE', symObjAddr: 0x73C, symBinAddr: 0x41130, symSize: 0xAC }
  - { offset: 0x117302, size: 0x8, addend: 0x0, symName: '__ZN9hashbrown3raw13RawTableInner15rehash_in_place28_$u7b$$u7b$closure$u7d$$u7d$17h1e3a16a4f219761cE', symObjAddr: 0xBF0, symBinAddr: 0x415E4, symSize: 0x1F4 }
  - { offset: 0x11772F, size: 0x8, addend: 0x0, symName: __ZN9hashbrown3raw19capacity_to_buckets17hb9abc5cef3d1e48aE, symObjAddr: 0x1818, symBinAddr: 0x4220C, symSize: 0x2C8 }
  - { offset: 0x11AC0E, size: 0x8, addend: 0x0, symName: __ZN4core5slice6memchr6memchr17h8dbb08b1f927a84dE, symObjAddr: 0x0, symBinAddr: 0x40CBC, symSize: 0x114 }
  - { offset: 0x11B6FF, size: 0x8, addend: 0x0, symName: '__ZN4pyo311conversions3std5slice82_$LT$impl$u20$pyo3..conversion..FromPyObjectBound$u20$for$u20$$RF$$u5b$u8$u5d$$GT$20from_py_object_bound17hfa87981fcda12c0dE', symObjAddr: 0x33C, symBinAddr: 0x40DD0, symSize: 0xAC }
  - { offset: 0x11BF2E, size: 0x8, addend: 0x0, symName: __ZN8pyo3_ffi10modsupport15PyModule_Create17h587161f12a8c1561E, symObjAddr: 0x480, symBinAddr: 0x40EB8, symSize: 0x28 }
  - { offset: 0x11C753, size: 0x8, addend: 0x0, symName: __ZN9hashbrown3raw11TableLayout20calculate_layout_for17h75e411b135c6ae76E, symObjAddr: 0x4EC, symBinAddr: 0x40EE0, symSize: 0x220 }
  - { offset: 0x11CAF8, size: 0x8, addend: 0x0, symName: __ZN9hashbrown3raw13RawTableInner13drop_elements17h4455aea48b3ff131E, symObjAddr: 0x70C, symBinAddr: 0x41100, symSize: 0x30 }
  - { offset: 0x11CF8D, size: 0x8, addend: 0x0, symName: __ZN9hashbrown3raw13RawTableInner15rehash_in_place17ha55767a2f04ade96E, symObjAddr: 0x7E8, symBinAddr: 0x411DC, symSize: 0x408 }
  - { offset: 0x11D7FF, size: 0x8, addend: 0x0, symName: __ZN9hashbrown3raw13RawTableInner16drop_inner_table17h8b7dd3e87ea196feE, symObjAddr: 0xDE4, symBinAddr: 0x417D8, symSize: 0xAC }
  - { offset: 0x11DAC0, size: 0x8, addend: 0x0, symName: __ZN9hashbrown3raw13RawTableInner16fix_insert_index17h21b9c223e92d7e47E, symObjAddr: 0xE90, symBinAddr: 0x41884, symSize: 0x100 }
  - { offset: 0x11DD32, size: 0x8, addend: 0x0, symName: __ZN9hashbrown3raw13RawTableInner17find_insert_index17h9de6dd2dbbecffefE, symObjAddr: 0xF90, symBinAddr: 0x41984, symSize: 0xFC }
  - { offset: 0x11DF19, size: 0x8, addend: 0x0, symName: __ZN9hashbrown3raw13RawTableInner17new_uninitialized17hd7b7e910a96bee2cE, symObjAddr: 0x108C, symBinAddr: 0x41A80, symSize: 0x248 }
  - { offset: 0x11E170, size: 0x8, addend: 0x0, symName: __ZN9hashbrown3raw13RawTableInner22fallible_with_capacity17h980cef4912199747E, symObjAddr: 0x12D4, symBinAddr: 0x41CC8, symSize: 0x220 }
  - { offset: 0x11E609, size: 0x8, addend: 0x0, symName: __ZN9hashbrown3raw13RawTableInner23prepare_rehash_in_place17haa5ec25e2ebee68bE, symObjAddr: 0x14F4, symBinAddr: 0x41EE8, symSize: 0x204 }
  - { offset: 0x11EBFF, size: 0x8, addend: 0x0, symName: __ZN9hashbrown3raw13RawTableInner26find_insert_index_in_group17h7380ba199bb0e3b4E, symObjAddr: 0x16F8, symBinAddr: 0x420EC, symSize: 0x120 }
  - { offset: 0x11ED43, size: 0x8, addend: 0x0, symName: '__ZN9hashbrown3raw21RawIterRange$LT$T$GT$3new17hcdc5fd35fc9eeba5E', symObjAddr: 0x1AE0, symBinAddr: 0x424D4, symSize: 0x98 }
  - { offset: 0x11EFD7, size: 0x8, addend: 0x0, symName: '__ZN9hashbrown3raw21RawIterRange$LT$T$GT$9next_impl17haa6a2bb6198d354aE', symObjAddr: 0x1B78, symBinAddr: 0x4256C, symSize: 0x1B4 }
  - { offset: 0x11F4F4, size: 0x8, addend: 0x0, symName: '__ZN9hashbrown3raw21RawTable$LT$T$C$A$GT$14insert_no_grow17hdde9fe5ffbe50ac9E', symObjAddr: 0x1D2C, symBinAddr: 0x42720, symSize: 0x184 }
  - { offset: 0x11FD03, size: 0x8, addend: 0x0, symName: '__ZN9hashbrown3raw21RawTable$LT$T$C$A$GT$14reserve_rehash17h98cd1f384b1b77a2E', symObjAddr: 0x1EB0, symBinAddr: 0x9B8B0, symSize: 0x7BC }
  - { offset: 0x120A00, size: 0x8, addend: 0x0, symName: '__ZN9hashbrown3raw21RawTable$LT$T$C$A$GT$4find17ha46bd21c704f88dbE', symObjAddr: 0x272C, symBinAddr: 0x42964, symSize: 0x314 }
  - { offset: 0x121023, size: 0x8, addend: 0x0, symName: '__ZN9hashbrown3raw21RawTable$LT$T$C$A$GT$7reserve17h0a57d7819de1b006E', symObjAddr: 0x2B04, symBinAddr: 0x42D3C, symSize: 0xB0 }
  - { offset: 0x121925, size: 0x8, addend: 0x0, symName: __ZN8pyo3_ffi10longobject12PyLong_Check17h29c3dc5c33192a40E, symObjAddr: 0x3138, symBinAddr: 0x44388, symSize: 0x30 }
  - { offset: 0x121957, size: 0x8, addend: 0x0, symName: __ZN8pyo3_ffi8pyerrors22PyExceptionClass_Check17h33139ea88d241016E, symObjAddr: 0x326C, symBinAddr: 0x443B8, symSize: 0x60 }
  - { offset: 0x121983, size: 0x8, addend: 0x0, symName: __ZN8pyo3_ffi8pyerrors25PyExceptionInstance_Check17h649573b33984f96dE, symObjAddr: 0x32CC, symBinAddr: 0x44418, symSize: 0x30 }
  - { offset: 0x1245D9, size: 0x8, addend: 0x0, symName: '__ZN42_$LT$$RF$T$u20$as$u20$core..fmt..Debug$GT$3fmt17h9fc4aec361b0ea21E', symObjAddr: 0xE60, symBinAddr: 0x43484, symSize: 0x30 }
  - { offset: 0x124625, size: 0x8, addend: 0x0, symName: '__ZN45_$LT$$LP$$RP$$u20$as$u20$core..fmt..Debug$GT$3fmt17h3ce06c30d77c2fb9E', symObjAddr: 0xEC0, symBinAddr: 0x434B4, symSize: 0x40 }
  - { offset: 0x1246A3, size: 0x8, addend: 0x0, symName: '__ZN4core3fmt8builders11DebugStruct10field_with28_$u7b$$u7b$closure$u7d$$u7d$17h296c2b37ed820091E', symObjAddr: 0xFAC, symBinAddr: 0x435A0, symSize: 0x354 }
  - { offset: 0x124C1D, size: 0x8, addend: 0x0, symName: '__ZN54_$LT$$BP$const$u20$T$u20$as$u20$core..fmt..Pointer$GT$3fmt28_$u7b$$u7b$closure$u7d$$u7d$17h0af43a7b00b5ebeeE', symObjAddr: 0x2734, symBinAddr: 0x442E0, symSize: 0x34 }
  - { offset: 0x125067, size: 0x8, addend: 0x0, symName: '__ZN53_$LT$core..fmt..Error$u20$as$u20$core..fmt..Debug$GT$3fmt17h3ce6902984cd65b5E', symObjAddr: 0x26F4, symBinAddr: 0x442A0, symSize: 0x40 }
  - { offset: 0x1251C6, size: 0x8, addend: 0x0, symName: '__ZN91_$LT$core..slice..iter..Iter$LT$T$GT$$u20$as$u20$core..iter..traits..iterator..Iterator$GT$24__iterator_get_unchecked17h029fa1071a2f9bbbE', symObjAddr: 0x3370, symBinAddr: 0x44448, symSize: 0x20 }
  - { offset: 0x125221, size: 0x8, addend: 0x0, symName: '__ZN91_$LT$core..slice..iter..Iter$LT$T$GT$$u20$as$u20$core..iter..traits..iterator..Iterator$GT$24__iterator_get_unchecked17hc2981af07986bc77E', symObjAddr: 0x33D8, symBinAddr: 0x44468, symSize: 0x28 }
  - { offset: 0x1252CB, size: 0x8, addend: 0x0, symName: '__ZN91_$LT$core..slice..iter..Iter$LT$T$GT$$u20$as$u20$core..iter..traits..iterator..Iterator$GT$3any17h0cd85279b9790f66E', symObjAddr: 0x3400, symBinAddr: 0x44490, symSize: 0xE4 }
  - { offset: 0x1253A6, size: 0x8, addend: 0x0, symName: '__ZN91_$LT$core..slice..iter..Iter$LT$T$GT$$u20$as$u20$core..iter..traits..iterator..Iterator$GT$4next17h3e4abd3947150987E', symObjAddr: 0x3658, symBinAddr: 0x44574, symSize: 0x84 }
  - { offset: 0x12545C, size: 0x8, addend: 0x0, symName: '__ZN91_$LT$core..slice..iter..Iter$LT$T$GT$$u20$as$u20$core..iter..traits..iterator..Iterator$GT$4next17h6ed09ea20237c99bE', symObjAddr: 0x36DC, symBinAddr: 0x445F8, symSize: 0x84 }
  - { offset: 0x125512, size: 0x8, addend: 0x0, symName: '__ZN91_$LT$core..slice..iter..Iter$LT$T$GT$$u20$as$u20$core..iter..traits..iterator..Iterator$GT$4next17h8628b4d1576f0a8dE', symObjAddr: 0x3760, symBinAddr: 0x4467C, symSize: 0x84 }
  - { offset: 0x1255C8, size: 0x8, addend: 0x0, symName: '__ZN91_$LT$core..slice..iter..Iter$LT$T$GT$$u20$as$u20$core..iter..traits..iterator..Iterator$GT$4next17hd610414d0bff6937E', symObjAddr: 0x3868, symBinAddr: 0x44700, symSize: 0x84 }
  - { offset: 0x12567E, size: 0x8, addend: 0x0, symName: '__ZN91_$LT$core..slice..iter..Iter$LT$T$GT$$u20$as$u20$core..iter..traits..iterator..Iterator$GT$9size_hint17h19417ee363d2b0a6E', symObjAddr: 0x3970, symBinAddr: 0x44784, symSize: 0x60 }
  - { offset: 0x1256ED, size: 0x8, addend: 0x0, symName: '__ZN91_$LT$core..slice..iter..Iter$LT$T$GT$$u20$as$u20$core..iter..traits..iterator..Iterator$GT$9size_hint17h398e9bea58a9e396E', symObjAddr: 0x39D0, symBinAddr: 0x447E4, symSize: 0x60 }
  - { offset: 0x12575C, size: 0x8, addend: 0x0, symName: '__ZN91_$LT$core..slice..iter..Iter$LT$T$GT$$u20$as$u20$core..iter..traits..iterator..Iterator$GT$9size_hint17hd4489fa8eca36270E', symObjAddr: 0x3AF0, symBinAddr: 0x44844, symSize: 0x60 }
  - { offset: 0x125807, size: 0x8, addend: 0x0, symName: '__ZN94_$LT$core..slice..iter..IterMut$LT$T$GT$$u20$as$u20$core..iter..traits..iterator..Iterator$GT$4next17h6d1f7215dd6b15bfE', symObjAddr: 0x3BF0, symBinAddr: 0x448A4, symSize: 0x84 }
  - { offset: 0x125A16, size: 0x8, addend: 0x0, symName: __ZN4core3str11validations15next_code_point17hef509734cbf2c241E, symObjAddr: 0x1800, symBinAddr: 0x43CF8, symSize: 0x224 }
  - { offset: 0x125DD6, size: 0x8, addend: 0x0, symName: __ZN4core4iter6traits8iterator8Iterator3zip17h24d55f7ea33c6833E, symObjAddr: 0x1B40, symBinAddr: 0x43F1C, symSize: 0xC8 }
  - { offset: 0x125E4C, size: 0x8, addend: 0x0, symName: __ZN4core4iter6traits8iterator8Iterator4take17h1e32079773577047E, symObjAddr: 0x1CD0, symBinAddr: 0x43FE4, symSize: 0x2C }
  - { offset: 0x125EA7, size: 0x8, addend: 0x0, symName: __ZN4core4iter6traits8iterator8Iterator9enumerate17he86f52e14ef96d73E, symObjAddr: 0x1FA4, symBinAddr: 0x44010, symSize: 0x28 }
  - { offset: 0x125F7C, size: 0x8, addend: 0x0, symName: __ZN4core4iter8adapters3zip27TrustedRandomAccessNoCoerce4size17h123b67140463b375E, symObjAddr: 0x1FF8, symBinAddr: 0x44038, symSize: 0x2C }
  - { offset: 0x125FB3, size: 0x8, addend: 0x0, symName: __ZN4core4iter8adapters3zip27TrustedRandomAccessNoCoerce4size17hc839b9df1c161761E, symObjAddr: 0x2050, symBinAddr: 0x44064, symSize: 0x2C }
  - { offset: 0x1260A3, size: 0x8, addend: 0x0, symName: __ZN4core5alloc6layout6Layout25from_size_align_unchecked18precondition_check17h5cffbdd0edac798fE, symObjAddr: 0x207C, symBinAddr: 0x44090, symSize: 0x70 }
  - { offset: 0x12660A, size: 0x8, addend: 0x0, symName: '__ZN96_$LT$pyo3..pycell..impl_..BorrowChecker$u20$as$u20$pyo3..pycell..impl_..PyClassBorrowChecker$GT$10try_borrow17haccb58d2ea53a268E', symObjAddr: 0x3CBC, symBinAddr: 0x44928, symSize: 0x24 }
  - { offset: 0x126636, size: 0x8, addend: 0x0, symName: '__ZN96_$LT$pyo3..pycell..impl_..BorrowChecker$u20$as$u20$pyo3..pycell..impl_..PyClassBorrowChecker$GT$14release_borrow17h15ec7ddb52ac0a37E', symObjAddr: 0x3CE0, symBinAddr: 0x4494C, symSize: 0x24 }
  - { offset: 0x12665E, size: 0x8, addend: 0x0, symName: '__ZN96_$LT$pyo3..pycell..impl_..BorrowChecker$u20$as$u20$pyo3..pycell..impl_..PyClassBorrowChecker$GT$14try_borrow_mut17h23b07d2f8f6d4726E', symObjAddr: 0x3D04, symBinAddr: 0x44970, symSize: 0x64 }
  - { offset: 0x1266A7, size: 0x8, addend: 0x0, symName: '__ZN96_$LT$pyo3..pycell..impl_..BorrowChecker$u20$as$u20$pyo3..pycell..impl_..PyClassBorrowChecker$GT$18release_borrow_mut17h42b67f351e2529fbE', symObjAddr: 0x3D68, symBinAddr: 0x449D4, symSize: 0x2C }
  - { offset: 0x1268C5, size: 0x8, addend: 0x0, symName: '__ZN84_$LT$std..sys..sync..once_box..OnceBox$LT$T$GT$$u20$as$u20$core..ops..drop..Drop$GT$4drop17hb0a9ffb3577d72d9E', symObjAddr: 0x3094, symBinAddr: 0x44314, symSize: 0x74 }
  - { offset: 0x1270B2, size: 0x8, addend: 0x0, symName: '__ZN3std3sys4sync8once_box16OnceBox$LT$T$GT$10initialize17h8aba2c95a1a65b74E', symObjAddr: 0x468, symBinAddr: 0x9C06C, symSize: 0xD8 }
  - { offset: 0x127289, size: 0x8, addend: 0x0, symName: '__ZN3std3sys4sync8once_box16OnceBox$LT$T$GT$11get_or_init17h12c48aafbcf213bcE', symObjAddr: 0x540, symBinAddr: 0x42DEC, symSize: 0xB4 }
  - { offset: 0x12739B, size: 0x8, addend: 0x0, symName: '__ZN3std6thread5local17LocalKey$LT$T$GT$4with17h127ea7a614025f7aE', symObjAddr: 0x5F4, symBinAddr: 0x42EA0, symSize: 0x4C }
  - { offset: 0x12741A, size: 0x8, addend: 0x0, symName: '__ZN3std6thread5local17LocalKey$LT$T$GT$4with17h2a7516702032052aE', symObjAddr: 0x640, symBinAddr: 0x42EEC, symSize: 0x48 }
  - { offset: 0x1274E2, size: 0x8, addend: 0x0, symName: '__ZN3std6thread5local17LocalKey$LT$T$GT$4with17h7fe650c576f61be7E', symObjAddr: 0x724, symBinAddr: 0x42F34, symSize: 0x50 }
  - { offset: 0x1275A2, size: 0x8, addend: 0x0, symName: '__ZN3std6thread5local17LocalKey$LT$T$GT$8try_with17h3cd54a2d6d156954E', symObjAddr: 0x84C, symBinAddr: 0x42F84, symSize: 0xD0 }
  - { offset: 0x127724, size: 0x8, addend: 0x0, symName: '__ZN3std6thread5local17LocalKey$LT$T$GT$8try_with17h3eafbe2135c3de0cE', symObjAddr: 0x91C, symBinAddr: 0x43054, symSize: 0xCC }
  - { offset: 0x1278A5, size: 0x8, addend: 0x0, symName: '__ZN3std6thread5local17LocalKey$LT$T$GT$8try_with17h5368bfcfb30c865fE', symObjAddr: 0x9E8, symBinAddr: 0x43120, symSize: 0xCC }
  - { offset: 0x127A33, size: 0x8, addend: 0x0, symName: '__ZN3std6thread5local17LocalKey$LT$T$GT$8try_with17he6dee42e4cc89602E', symObjAddr: 0xB98, symBinAddr: 0x431EC, symSize: 0xE8 }
  - { offset: 0x127BB5, size: 0x8, addend: 0x0, symName: '__ZN3std6thread5local17LocalKey$LT$T$GT$8try_with17he9b03c16d61f6bccE', symObjAddr: 0xC80, symBinAddr: 0x432D4, symSize: 0xD8 }
  - { offset: 0x127D37, size: 0x8, addend: 0x0, symName: '__ZN3std6thread5local17LocalKey$LT$T$GT$8try_with17hf8962202e03e2cbaE', symObjAddr: 0xD58, symBinAddr: 0x433AC, symSize: 0xD8 }
  - { offset: 0x12838A, size: 0x8, addend: 0x0, symName: __ZN4core3fmt8builders11DebugStruct10field_with17h99c1323a9300ac36E, symObjAddr: 0xF00, symBinAddr: 0x434F4, symSize: 0xAC }
  - { offset: 0x1284AD, size: 0x8, addend: 0x0, symName: __ZN4core3fmt9Arguments17from_str_nonconst17ha3da3696884b4ddbE, symObjAddr: 0x1300, symBinAddr: 0x438F4, symSize: 0x28 }
  - { offset: 0x12853B, size: 0x8, addend: 0x0, symName: __ZN4core3fmt9Arguments23as_statically_known_str17he851c60ff24249d0E, symObjAddr: 0x1328, symBinAddr: 0x4391C, symSize: 0x104 }
  - { offset: 0x128631, size: 0x8, addend: 0x0, symName: __ZN4core3fmt9Arguments3new17h092b614422d8ea70E, symObjAddr: 0x142C, symBinAddr: 0x43A20, symSize: 0x1C }
  - { offset: 0x1286E5, size: 0x8, addend: 0x0, symName: __ZN4core3fmt9Arguments3new17h30d30a0d9dd6b9a1E, symObjAddr: 0x149C, symBinAddr: 0x43A3C, symSize: 0x1C }
  - { offset: 0x12877F, size: 0x8, addend: 0x0, symName: __ZN4core3fmt9Arguments3new17h31b9796e0d6ba897E, symObjAddr: 0x14D4, symBinAddr: 0x43A58, symSize: 0x1C }
  - { offset: 0x1287CB, size: 0x8, addend: 0x0, symName: __ZN4core3fmt9Arguments3new17h3ad87a660e12bb5cE, symObjAddr: 0x14F0, symBinAddr: 0x43A74, symSize: 0x1C }
  - { offset: 0x128817, size: 0x8, addend: 0x0, symName: __ZN4core3fmt9Arguments3new17h433dcca7ba4b6cf1E, symObjAddr: 0x150C, symBinAddr: 0x43A90, symSize: 0x1C }
  - { offset: 0x128863, size: 0x8, addend: 0x0, symName: __ZN4core3fmt9Arguments3new17h54fcfe683c9cc387E, symObjAddr: 0x1528, symBinAddr: 0x43AAC, symSize: 0x1C }
  - { offset: 0x1288C9, size: 0x8, addend: 0x0, symName: __ZN4core3fmt9Arguments3new17h6c77a37129b0e469E, symObjAddr: 0x1560, symBinAddr: 0x43AC8, symSize: 0x1C }
  - { offset: 0x12892F, size: 0x8, addend: 0x0, symName: __ZN4core3fmt9Arguments3new17h99cea3fd23d8e01eE, symObjAddr: 0x1598, symBinAddr: 0x43AE4, symSize: 0x1C }
  - { offset: 0x12897B, size: 0x8, addend: 0x0, symName: __ZN4core3fmt9Arguments3new17ha05168a61389a6a3E, symObjAddr: 0x15B4, symBinAddr: 0x43B00, symSize: 0x1C }
  - { offset: 0x1289C7, size: 0x8, addend: 0x0, symName: __ZN4core3fmt9Arguments3new17ha298ab2f90e6da30E, symObjAddr: 0x15D0, symBinAddr: 0x43B1C, symSize: 0x1C }
  - { offset: 0x128A13, size: 0x8, addend: 0x0, symName: __ZN4core3fmt9Arguments3new17haf0052d42f9b7dfdE, symObjAddr: 0x15EC, symBinAddr: 0x43B38, symSize: 0x1C }
  - { offset: 0x128A5F, size: 0x8, addend: 0x0, symName: __ZN4core3fmt9Arguments3new17hb942a5bc80adedd5E, symObjAddr: 0x1608, symBinAddr: 0x43B54, symSize: 0x1C }
  - { offset: 0x128AAB, size: 0x8, addend: 0x0, symName: __ZN4core3fmt9Arguments3new17hd741508111aa4c2dE, symObjAddr: 0x1624, symBinAddr: 0x43B70, symSize: 0x1C }
  - { offset: 0x128B11, size: 0x8, addend: 0x0, symName: __ZN4core3fmt9Arguments3new17hda55a0bff4e7ec0fE, symObjAddr: 0x1640, symBinAddr: 0x43B8C, symSize: 0x1C }
  - { offset: 0x128B5D, size: 0x8, addend: 0x0, symName: __ZN4core3fmt9Arguments3new17he40adb22929efb58E, symObjAddr: 0x1678, symBinAddr: 0x43BA8, symSize: 0x1C }
  - { offset: 0x128BA9, size: 0x8, addend: 0x0, symName: __ZN4core3fmt9Arguments3new17he8fb59a361ba67f1E, symObjAddr: 0x1694, symBinAddr: 0x43BC4, symSize: 0x1C }
  - { offset: 0x128C0F, size: 0x8, addend: 0x0, symName: __ZN4core3fmt9Arguments3new17heb8d23715f6957acE, symObjAddr: 0x16CC, symBinAddr: 0x43BE0, symSize: 0x1C }
  - { offset: 0x128C41, size: 0x8, addend: 0x0, symName: __ZN4core3fmt9Arguments3new17hed08d9b4ea6d2d1bE, symObjAddr: 0x16E8, symBinAddr: 0x43BFC, symSize: 0x1C }
  - { offset: 0x128C73, size: 0x8, addend: 0x0, symName: __ZN4core3fmt9Arguments3new17hf06279cfed196b08E, symObjAddr: 0x1704, symBinAddr: 0x43C18, symSize: 0x1C }
  - { offset: 0x128CB2, size: 0x8, addend: 0x0, symName: __ZN4core3fmt9Arguments8from_str17h32d0d13a220a58f7E, symObjAddr: 0x173C, symBinAddr: 0x43C34, symSize: 0x20 }
  - { offset: 0x128CD5, size: 0x8, addend: 0x0, symName: __ZN4core3fmt9Formatter9write_fmt17h3cc13c1b8a20ef57E, symObjAddr: 0x175C, symBinAddr: 0x43C54, symSize: 0xA4 }
  - { offset: 0x128F20, size: 0x8, addend: 0x0, symName: '__ZN4core5slice4iter13Iter$LT$T$GT$3new17h5019f2c84362d69fE', symObjAddr: 0x21E8, symBinAddr: 0x44100, symSize: 0x58 }
  - { offset: 0x1290D0, size: 0x8, addend: 0x0, symName: '__ZN4core5slice4iter13Iter$LT$T$GT$3new17hf2aed1639ccc1ff7E', symObjAddr: 0x2290, symBinAddr: 0x44158, symSize: 0x50 }
  - { offset: 0x1291DE, size: 0x8, addend: 0x0, symName: __ZN4pyo36pycell5impl_10BorrowFlag9decrement17ha618758e71c8ba41E, symObjAddr: 0x23FC, symBinAddr: 0x441A8, symSize: 0x30 }
  - { offset: 0x129200, size: 0x8, addend: 0x0, symName: __ZN4pyo36pycell5impl_10BorrowFlag9increment17hcd2c20ad46cb3290E, symObjAddr: 0x242C, symBinAddr: 0x441D8, symSize: 0xC8 }
  - { offset: 0x129C1E, size: 0x8, addend: 0x0, symName: '__ZN4core3ptr7mut_ptr31_$LT$impl$u20$$BP$mut$u20$T$GT$7is_null17ha7c763b100a22c41E', symObjAddr: 0x8E4, symBinAddr: 0x44DBC, symSize: 0x18 }
  - { offset: 0x129F3D, size: 0x8, addend: 0x0, symName: '__ZN4core7convert3num66_$LT$impl$u20$core..convert..TryFrom$LT$i64$GT$$u20$for$u20$u8$GT$8try_from17h3ddbb42872aed82bE', symObjAddr: 0xC68, symBinAddr: 0x44DEC, symSize: 0x78 }
  - { offset: 0x129FAD, size: 0x8, addend: 0x0, symName: '__ZN4core7convert3num67_$LT$impl$u20$core..convert..TryFrom$LT$u64$GT$$u20$for$u20$u32$GT$8try_from17h42e1fad3f93c29b2E', symObjAddr: 0x1020, symBinAddr: 0x44E64, symSize: 0x5C }
  - { offset: 0x129FE1, size: 0x8, addend: 0x0, symName: '__ZN4core7convert3num71_$LT$impl$u20$core..convert..TryFrom$LT$usize$GT$$u20$for$u20$isize$GT$8try_from17h181a3f7fe1961fc0E', symObjAddr: 0x107C, symBinAddr: 0x44EC0, symSize: 0x5C }
  - { offset: 0x12A016, size: 0x8, addend: 0x0, symName: '__ZN50_$LT$T$u20$as$u20$core..convert..Into$LT$U$GT$$GT$4into17h8e43e8494d4fe9acE', symObjAddr: 0x66E8, symBinAddr: 0x471F4, symSize: 0x14 }
  - { offset: 0x12A057, size: 0x8, addend: 0x0, symName: '__ZN50_$LT$T$u20$as$u20$core..convert..Into$LT$U$GT$$GT$4into17hf89aa6cfc4b39ce9E', symObjAddr: 0x66FC, symBinAddr: 0x47208, symSize: 0x30 }
  - { offset: 0x12A11E, size: 0x8, addend: 0x0, symName: __ZN4core3str8converts19from_utf8_unchecked17hb989e292d7e192d9E, symObjAddr: 0x8FC, symBinAddr: 0x44DD4, symSize: 0x18 }
  - { offset: 0x12B2D6, size: 0x8, addend: 0x0, symName: '__ZN185_$LT$core..ops..control_flow..ControlFlow$LT$B$C$C$GT$$u20$as$u20$core..ops..try_trait..FromResidual$LT$core..ops..control_flow..ControlFlow$LT$B$C$core..convert..Infallible$GT$$GT$$GT$13from_residual17h961c9b476f972167E', symObjAddr: 0x14, symBinAddr: 0x44A00, symSize: 0x18 }
  - { offset: 0x12B31A, size: 0x8, addend: 0x0, symName: '__ZN95_$LT$core..ops..control_flow..ControlFlow$LT$B$C$C$GT$$u20$as$u20$core..ops..try_trait..Try$GT$11from_output17h55784735895ea117E', symObjAddr: 0x77F0, symBinAddr: 0x480AC, symSize: 0x10 }
  - { offset: 0x12B358, size: 0x8, addend: 0x0, symName: '__ZN95_$LT$core..ops..control_flow..ControlFlow$LT$B$C$C$GT$$u20$as$u20$core..ops..try_trait..Try$GT$6branch17h6249aab00171bbdfE', symObjAddr: 0x7838, symBinAddr: 0x480BC, symSize: 0x54 }
  - { offset: 0x12BC0B, size: 0x8, addend: 0x0, symName: '__ZN42_$LT$$RF$T$u20$as$u20$core..fmt..Debug$GT$3fmt17hd0f81a5c6fdc8ab5E', symObjAddr: 0x1F0, symBinAddr: 0x44BDC, symSize: 0x30 }
  - { offset: 0x12BD11, size: 0x8, addend: 0x0, symName: '__ZN50_$LT$$BP$mut$u20$T$u20$as$u20$core..fmt..Debug$GT$3fmt17hf079e2bcabc61175E', symObjAddr: 0x6688, symBinAddr: 0x471BC, symSize: 0x38 }
  - { offset: 0x12BD83, size: 0x8, addend: 0x0, symName: '__ZN54_$LT$$BP$const$u20$T$u20$as$u20$core..fmt..Pointer$GT$3fmt17h84ebedf6a7659b7aE', symObjAddr: 0x6AC0, symBinAddr: 0x475CC, symSize: 0xCC }
  - { offset: 0x12BE6D, size: 0x8, addend: 0x0, symName: '__ZN53_$LT$T$u20$as$u20$core..slice..cmp..SliceContains$GT$14slice_contains28_$u7b$$u7b$closure$u7d$$u7d$17h4ab98e717f58185eE', symObjAddr: 0x672C, symBinAddr: 0x47238, symSize: 0x38 }
  - { offset: 0x12BEBD, size: 0x8, addend: 0x0, symName: '__ZN73_$LT$$u5b$A$u5d$$u20$as$u20$core..slice..cmp..SlicePartialEq$LT$B$GT$$GT$5equal17h8d735afc4d173a2bE', symObjAddr: 0x708C, symBinAddr: 0x47A90, symSize: 0x88 }
  - { offset: 0x12BF4B, size: 0x8, addend: 0x0, symName: __ZN4core10intrinsics11rotate_left17hf912fd339c05feaaE, symObjAddr: 0x7A8, symBinAddr: 0x44D68, symSize: 0x54 }
  - { offset: 0x12C133, size: 0x8, addend: 0x0, symName: '__ZN4pyo33err5PyErr3new28_$u7b$$u7b$closure$u7d$$u7d$17h2ea54e96a36bdf0aE', symObjAddr: 0x39F8, symBinAddr: 0x46028, symSize: 0xC0 }
  - { offset: 0x12C18B, size: 0x8, addend: 0x0, symName: '__ZN4pyo33err5PyErr3new28_$u7b$$u7b$closure$u7d$$u7d$17h51bea3cf8a1c2396E', symObjAddr: 0x3E80, symBinAddr: 0x460E8, symSize: 0xD4 }
  - { offset: 0x12C1E4, size: 0x8, addend: 0x0, symName: '__ZN4pyo33err5PyErr3new28_$u7b$$u7b$closure$u7d$$u7d$17h650dddd3a4e9dea4E', symObjAddr: 0x4018, symBinAddr: 0x461BC, symSize: 0xD4 }
  - { offset: 0x12C23D, size: 0x8, addend: 0x0, symName: '__ZN4pyo33err5PyErr3new28_$u7b$$u7b$closure$u7d$$u7d$17h69ffe3d7cbcfa4e0E', symObjAddr: 0x40EC, symBinAddr: 0x46290, symSize: 0xC0 }
  - { offset: 0x12C295, size: 0x8, addend: 0x0, symName: '__ZN4pyo33err5PyErr3new28_$u7b$$u7b$closure$u7d$$u7d$17h6bca1c5ea3b6d0beE', symObjAddr: 0x41AC, symBinAddr: 0x46350, symSize: 0xD4 }
  - { offset: 0x12C2EE, size: 0x8, addend: 0x0, symName: '__ZN4pyo33err5PyErr3new28_$u7b$$u7b$closure$u7d$$u7d$17h94c0ee1341b5400fE', symObjAddr: 0x46E4, symBinAddr: 0x46424, symSize: 0xD4 }
  - { offset: 0x12C347, size: 0x8, addend: 0x0, symName: '__ZN4pyo33err5PyErr3new28_$u7b$$u7b$closure$u7d$$u7d$17ha2311d9a6e631b17E', symObjAddr: 0x493C, symBinAddr: 0x464F8, symSize: 0xC0 }
  - { offset: 0x12C39F, size: 0x8, addend: 0x0, symName: '__ZN4pyo33err5PyErr3new28_$u7b$$u7b$closure$u7d$$u7d$17hc2ae1d8c3686bc47E', symObjAddr: 0x4DAC, symBinAddr: 0x465B8, symSize: 0xD4 }
  - { offset: 0x12C3F8, size: 0x8, addend: 0x0, symName: '__ZN4pyo33err5PyErr3new28_$u7b$$u7b$closure$u7d$$u7d$17hc88f972286f09a31E', symObjAddr: 0x5000, symBinAddr: 0x4668C, symSize: 0xC0 }
  - { offset: 0x12C450, size: 0x8, addend: 0x0, symName: '__ZN4pyo33err5PyErr3new28_$u7b$$u7b$closure$u7d$$u7d$17hf47e075b38d7ec8bE', symObjAddr: 0x5254, symBinAddr: 0x4674C, symSize: 0xD4 }
  - { offset: 0x12C4AF, size: 0x8, addend: 0x0, symName: '__ZN4pyo33err5PyErr4take28_$u7b$$u7b$closure$u7d$$u7d$17h641dfcaaa52a968cE', symObjAddr: 0x5708, symBinAddr: 0x46A90, symSize: 0x64 }
  - { offset: 0x12C4E5, size: 0x8, addend: 0x0, symName: '__ZN4pyo33err5PyErr4take28_$u7b$$u7b$closure$u7d$$u7d$17h65a6afc418360afcE', symObjAddr: 0x576C, symBinAddr: 0x46AF4, symSize: 0x7C }
  - { offset: 0x12C532, size: 0x8, addend: 0x0, symName: '__ZN4pyo33err5PyErr9set_cause28_$u7b$$u7b$closure$u7d$$u7d$17hada4ed83c9fad591E', symObjAddr: 0x5D74, symBinAddr: 0x4705C, symSize: 0x38 }
  - { offset: 0x12C5B7, size: 0x8, addend: 0x0, symName: '__ZN47_$LT$T$u20$as$u20$pyo3..err..PyErrArguments$GT$9arguments17h6a0c4fba3912f32aE', symObjAddr: 0x28C, symBinAddr: 0x44C0C, symSize: 0x40 }
  - { offset: 0x12C622, size: 0x8, addend: 0x0, symName: '__ZN47_$LT$T$u20$as$u20$pyo3..err..PyErrArguments$GT$9arguments17hc84f79c46dcc1a99E', symObjAddr: 0x2CC, symBinAddr: 0x44C4C, symSize: 0x11C }
  - { offset: 0x12D230, size: 0x8, addend: 0x0, symName: __ZN4pyo33err17error_on_minusone17h6118ad215d4f3563E, symObjAddr: 0x12B0, symBinAddr: 0x450F4, symSize: 0xC8 }
  - { offset: 0x12D282, size: 0x8, addend: 0x0, symName: __ZN4pyo33err17error_on_minusone17hbeb507ba4795820fE, symObjAddr: 0x1378, symBinAddr: 0x451BC, symSize: 0xC8 }
  - { offset: 0x12D2D4, size: 0x8, addend: 0x0, symName: __ZN4pyo33err17error_on_minusone17hf8dd1da9c444fbe1E, symObjAddr: 0x1440, symBinAddr: 0x45284, symSize: 0xC8 }
  - { offset: 0x12D326, size: 0x8, addend: 0x0, symName: __ZN4pyo33err17panic_after_error17h53f3c255c48f7a02E, symObjAddr: 0x1508, symBinAddr: 0x4534C, symSize: 0x30 }
  - { offset: 0x12D366, size: 0x8, addend: 0x0, symName: '__ZN4pyo33err5impls101_$LT$impl$u20$core..convert..From$LT$alloc..ffi..c_str..NulError$GT$$u20$for$u20$pyo3..err..PyErr$GT$4from17hb2e7b1479d3a6b56E', symObjAddr: 0x5DD4, symBinAddr: 0x470BC, symSize: 0x34 }
  - { offset: 0x12D39A, size: 0x8, addend: 0x0, symName: '__ZN53_$LT$pyo3..err..PyErr$u20$as$u20$core..fmt..Debug$GT$3fmt17hc1a02e30a8d8ce95E', symObjAddr: 0x6764, symBinAddr: 0x47270, symSize: 0x38 }
  - { offset: 0x12D3DC, size: 0x8, addend: 0x0, symName: '__ZN53_$LT$pyo3..err..PyErr$u20$as$u20$core..fmt..Debug$GT$3fmt28_$u7b$$u7b$closure$u7d$$u7d$17heab7c01301338941E', symObjAddr: 0x679C, symBinAddr: 0x472A8, symSize: 0x178 }
  - { offset: 0x12D440, size: 0x8, addend: 0x0, symName: '__ZN53_$LT$pyo3..err..PyErr$u20$as$u20$core..fmt..Debug$GT$3fmt28_$u7b$$u7b$closure$u7d$$u7d$28_$u7b$$u7b$closure$u7d$$u7d$17h39af1a593ab3fcdaE', symObjAddr: 0x6914, symBinAddr: 0x47420, symSize: 0x1AC }
  - { offset: 0x12D536, size: 0x8, addend: 0x0, symName: '__ZN55_$LT$pyo3..err..PyErr$u20$as$u20$core..fmt..Display$GT$3fmt17h8f36804f99ce4857E', symObjAddr: 0x6BC0, symBinAddr: 0x47698, symSize: 0x2C }
  - { offset: 0x12D578, size: 0x8, addend: 0x0, symName: '__ZN55_$LT$pyo3..err..PyErr$u20$as$u20$core..fmt..Display$GT$3fmt28_$u7b$$u7b$closure$u7d$$u7d$17h9a13a52cdd79419eE', symObjAddr: 0x6BEC, symBinAddr: 0x476C4, symSize: 0x3B0 }
  - { offset: 0x12D6E1, size: 0x8, addend: 0x0, symName: '__ZN55_$LT$pyo3..err..PyErr$u20$as$u20$core..fmt..Display$GT$3fmt28_$u7b$$u7b$closure$u7d$$u7d$28_$u7b$$u7b$closure$u7d$$u7d$17h2407cb50ea87bd34E', symObjAddr: 0x6F9C, symBinAddr: 0x47A74, symSize: 0x1C }
  - { offset: 0x12D722, size: 0x8, addend: 0x0, symName: '__ZN81_$LT$pyo3..err..PyDowncastErrorArguments$u20$as$u20$pyo3..err..PyErrArguments$GT$9arguments17h87ce3ef4484f39fbE', symObjAddr: 0x719C, symBinAddr: 0x47B18, symSize: 0x208 }
  - { offset: 0x12D82B, size: 0x8, addend: 0x0, symName: '__ZN88_$LT$pyo3..err..PyErr$u20$as$u20$core..convert..From$LT$pyo3..err..DowncastError$GT$$GT$4from17hfa0f021e9a9fc69dE', symObjAddr: 0x74FC, symBinAddr: 0x47E28, symSize: 0xE8 }
  - { offset: 0x12D87E, size: 0x8, addend: 0x0, symName: '__ZN92_$LT$pyo3..err..PyErr$u20$as$u20$core..convert..From$LT$pyo3..err..DowncastIntoError$GT$$GT$4from17h0883517e5e4c0c8bE', symObjAddr: 0x7664, symBinAddr: 0x47F64, symSize: 0xF4 }
  - { offset: 0x12DE86, size: 0x8, addend: 0x0, symName: '__ZN4pyo36pycell101_$LT$impl$u20$core..convert..From$LT$pyo3..pycell..PyBorrowError$GT$$u20$for$u20$pyo3..err..PyErr$GT$4from17h74547c85c9648c5fE', symObjAddr: 0x6618, symBinAddr: 0x4714C, symSize: 0x38 }
  - { offset: 0x12DEC6, size: 0x8, addend: 0x0, symName: '__ZN4pyo36pycell104_$LT$impl$u20$core..convert..From$LT$pyo3..pycell..PyBorrowMutError$GT$$u20$for$u20$pyo3..err..PyErr$GT$4from17h8025872b7e1040ddE', symObjAddr: 0x6650, symBinAddr: 0x47184, symSize: 0x38 }
  - { offset: 0x12E4FB, size: 0x8, addend: 0x0, symName: '__ZN3std4sync6poison5mutex19MutexGuard$LT$T$GT$3new28_$u7b$$u7b$closure$u7d$$u7d$17h0d9bf8a1c4dea18cE', symObjAddr: 0x1A8, symBinAddr: 0x44B94, symSize: 0x18 }
  - { offset: 0x12E543, size: 0x8, addend: 0x0, symName: '__ZN3std4sync6poison5mutex19MutexGuard$LT$T$GT$3new28_$u7b$$u7b$closure$u7d$$u7d$17h661d65b841583fd3E', symObjAddr: 0x1C0, symBinAddr: 0x44BAC, symSize: 0x18 }
  - { offset: 0x12E58B, size: 0x8, addend: 0x0, symName: '__ZN3std4sync6poison5mutex19MutexGuard$LT$T$GT$3new28_$u7b$$u7b$closure$u7d$$u7d$17hfc43783739b8dbbbE', symObjAddr: 0x1D8, symBinAddr: 0x44BC4, symSize: 0x18 }
  - { offset: 0x12E5DA, size: 0x8, addend: 0x0, symName: '__ZN87_$LT$std..sync..poison..mutex..MutexGuard$LT$T$GT$$u20$as$u20$core..ops..drop..Drop$GT$4drop17h7456ba78c15d4f9aE', symObjAddr: 0x73F4, symBinAddr: 0x47D20, symSize: 0x58 }
  - { offset: 0x12E658, size: 0x8, addend: 0x0, symName: '__ZN87_$LT$std..sync..poison..mutex..MutexGuard$LT$T$GT$$u20$as$u20$core..ops..drop..Drop$GT$4drop17h83162e0c1d2f2abbE', symObjAddr: 0x744C, symBinAddr: 0x47D78, symSize: 0x58 }
  - { offset: 0x12E6D6, size: 0x8, addend: 0x0, symName: '__ZN87_$LT$std..sync..poison..mutex..MutexGuard$LT$T$GT$$u20$as$u20$core..ops..drop..Drop$GT$4drop17hfec2d299fafad614E', symObjAddr: 0x74A4, symBinAddr: 0x47DD0, symSize: 0x58 }
  - { offset: 0x12E75A, size: 0x8, addend: 0x0, symName: '__ZN89_$LT$std..sync..poison..mutex..MutexGuard$LT$T$GT$$u20$as$u20$core..ops..deref..Deref$GT$5deref17h22f2dcac646a3a45E', symObjAddr: 0x75E4, symBinAddr: 0x47F10, symSize: 0x1C }
  - { offset: 0x12E7A6, size: 0x8, addend: 0x0, symName: '__ZN89_$LT$std..sync..poison..mutex..MutexGuard$LT$T$GT$$u20$as$u20$core..ops..deref..Deref$GT$5deref17h30899c84465f4901E', symObjAddr: 0x7600, symBinAddr: 0x47F2C, symSize: 0x1C }
  - { offset: 0x12E7F2, size: 0x8, addend: 0x0, symName: '__ZN89_$LT$std..sync..poison..mutex..MutexGuard$LT$T$GT$$u20$as$u20$core..ops..deref..Deref$GT$5deref17hc6b744ecbc01c885E', symObjAddr: 0x761C, symBinAddr: 0x47F48, symSize: 0x1C }
  - { offset: 0x12E844, size: 0x8, addend: 0x0, symName: '__ZN92_$LT$std..sync..poison..mutex..MutexGuard$LT$T$GT$$u20$as$u20$core..ops..deref..DerefMut$GT$9deref_mut17h459c06ff8d53e9d7E', symObjAddr: 0x7758, symBinAddr: 0x48058, symSize: 0x1C }
  - { offset: 0x12E890, size: 0x8, addend: 0x0, symName: '__ZN92_$LT$std..sync..poison..mutex..MutexGuard$LT$T$GT$$u20$as$u20$core..ops..deref..DerefMut$GT$9deref_mut17ha132095517c540f7E', symObjAddr: 0x7774, symBinAddr: 0x48074, symSize: 0x1C }
  - { offset: 0x12E8DC, size: 0x8, addend: 0x0, symName: '__ZN92_$LT$std..sync..poison..mutex..MutexGuard$LT$T$GT$$u20$as$u20$core..ops..deref..DerefMut$GT$9deref_mut17hba086077a72fb1aeE', symObjAddr: 0x7790, symBinAddr: 0x48090, symSize: 0x1C }
  - { offset: 0x12F74F, size: 0x8, addend: 0x0, symName: '__ZN3std4sync6poison5mutex14Mutex$LT$T$GT$3new17h0e5ac7117cf2b3e6E', symObjAddr: 0x2C, symBinAddr: 0x44A18, symSize: 0x60 }
  - { offset: 0x12F82B, size: 0x8, addend: 0x0, symName: '__ZN3std4sync6poison5mutex14Mutex$LT$T$GT$3new17hc6bc2e1a7aff59cfE', symObjAddr: 0x8C, symBinAddr: 0x44A78, symSize: 0x44 }
  - { offset: 0x12F927, size: 0x8, addend: 0x0, symName: '__ZN3std4sync6poison5mutex14Mutex$LT$T$GT$4lock17h8c7a9a39c639b66eE', symObjAddr: 0xD0, symBinAddr: 0x44ABC, symSize: 0x48 }
  - { offset: 0x12F9F9, size: 0x8, addend: 0x0, symName: '__ZN3std4sync6poison5mutex14Mutex$LT$T$GT$4lock17ha0563c33841508eeE', symObjAddr: 0x118, symBinAddr: 0x44B04, symSize: 0x48 }
  - { offset: 0x12FACB, size: 0x8, addend: 0x0, symName: '__ZN3std4sync6poison5mutex14Mutex$LT$T$GT$4lock17hfa30f95eec66ab47E', symObjAddr: 0x160, symBinAddr: 0x44B4C, symSize: 0x48 }
  - { offset: 0x12FC25, size: 0x8, addend: 0x0, symName: __ZN4pyo33err13DowncastError17new_from_borrowed17hadbe4060fb155600E, symObjAddr: 0x10D8, symBinAddr: 0x44F1C, symSize: 0x68 }
  - { offset: 0x12FC6B, size: 0x8, addend: 0x0, symName: __ZN4pyo33err13DowncastError3new17hbec443f11471fbe9E, symObjAddr: 0x1140, symBinAddr: 0x44F84, symSize: 0xB0 }
  - { offset: 0x12FCA4, size: 0x8, addend: 0x0, symName: __ZN4pyo33err17DowncastIntoError10into_inner17h0d8cfbeca495699eE, symObjAddr: 0x11F0, symBinAddr: 0x45034, symSize: 0x28 }
  - { offset: 0x12FCC7, size: 0x8, addend: 0x0, symName: __ZN4pyo33err17DowncastIntoError3new17ha2ea392acdae7bf3E, symObjAddr: 0x1218, symBinAddr: 0x4505C, symSize: 0x98 }
  - { offset: 0x12FD00, size: 0x8, addend: 0x0, symName: __ZN4pyo33err5PyErr10from_state17hec8a90d28cc422b0E, symObjAddr: 0x1704, symBinAddr: 0x4537C, symSize: 0x30 }
  - { offset: 0x12FD24, size: 0x8, addend: 0x0, symName: __ZN4pyo33err5PyErr10from_value17h2e186928b8e77ffaE, symObjAddr: 0x1734, symBinAddr: 0x453AC, symSize: 0x1D8 }
  - { offset: 0x12FDC4, size: 0x8, addend: 0x0, symName: __ZN4pyo33err5PyErr10into_value17h594ad4533559e03eE, symObjAddr: 0x190C, symBinAddr: 0x45584, symSize: 0x128 }
  - { offset: 0x12FE52, size: 0x8, addend: 0x0, symName: __ZN4pyo33err5PyErr10normalized17hf099100bd82d8ae4E, symObjAddr: 0x1A34, symBinAddr: 0x456AC, symSize: 0x24 }
  - { offset: 0x12FE90, size: 0x8, addend: 0x0, symName: __ZN4pyo33err5PyErr11is_instance17he97ed990f5a0cb9aE, symObjAddr: 0x1A58, symBinAddr: 0x456D0, symSize: 0xA0 }
  - { offset: 0x12FF1A, size: 0x8, addend: 0x0, symName: __ZN4pyo33err5PyErr14is_instance_of17he14d325554afd045E, symObjAddr: 0x21BC, symBinAddr: 0x45770, symSize: 0x84 }
  - { offset: 0x12FF61, size: 0x8, addend: 0x0, symName: __ZN4pyo33err5PyErr16write_unraisable17hfb119de9a0ad5418E, symObjAddr: 0x22C4, symBinAddr: 0x457F4, symSize: 0x58 }
  - { offset: 0x12FFBC, size: 0x8, addend: 0x0, symName: __ZN4pyo33err5PyErr22print_panic_and_unwind17h4075f43ba98a35efE, symObjAddr: 0x231C, symBinAddr: 0x4584C, symSize: 0x1AC }
  - { offset: 0x130036, size: 0x8, addend: 0x0, symName: __ZN4pyo33err5PyErr3new17h09c265a262b10c71E, symObjAddr: 0x2504, symBinAddr: 0x459F8, symSize: 0xA0 }
  - { offset: 0x130095, size: 0x8, addend: 0x0, symName: __ZN4pyo33err5PyErr3new17h134172e1b956618fE, symObjAddr: 0x2634, symBinAddr: 0x45A98, symSize: 0x9C }
  - { offset: 0x1300F3, size: 0x8, addend: 0x0, symName: __ZN4pyo33err5PyErr3new17h4394b0bdf11825f0E, symObjAddr: 0x27E0, symBinAddr: 0x45B34, symSize: 0x9C }
  - { offset: 0x130151, size: 0x8, addend: 0x0, symName: __ZN4pyo33err5PyErr3new17h54a3109f2223e4fdE, symObjAddr: 0x297C, symBinAddr: 0x45BD0, symSize: 0x9C }
  - { offset: 0x1301AF, size: 0x8, addend: 0x0, symName: __ZN4pyo33err5PyErr3new17h572b3a7494ef254eE, symObjAddr: 0x2AA8, symBinAddr: 0x45C6C, symSize: 0x9C }
  - { offset: 0x13020D, size: 0x8, addend: 0x0, symName: __ZN4pyo33err5PyErr3new17h6166c0925eeb6125E, symObjAddr: 0x2CD0, symBinAddr: 0x45D08, symSize: 0xA0 }
  - { offset: 0x13026C, size: 0x8, addend: 0x0, symName: __ZN4pyo33err5PyErr3new17h865143bf841c3723E, symObjAddr: 0x2FAC, symBinAddr: 0x45DA8, symSize: 0xA0 }
  - { offset: 0x1302CB, size: 0x8, addend: 0x0, symName: __ZN4pyo33err5PyErr3new17hab8bf30eea5f17bfE, symObjAddr: 0x326C, symBinAddr: 0x45E48, symSize: 0xA0 }
  - { offset: 0x13032A, size: 0x8, addend: 0x0, symName: __ZN4pyo33err5PyErr3new17hb00c336450d91843E, symObjAddr: 0x33AC, symBinAddr: 0x45EE8, symSize: 0xA0 }
  - { offset: 0x130389, size: 0x8, addend: 0x0, symName: __ZN4pyo33err5PyErr3new17hb1f8f6ec7f0f860eE, symObjAddr: 0x344C, symBinAddr: 0x45F88, symSize: 0xA0 }
  - { offset: 0x1303DB, size: 0x8, addend: 0x0, symName: __ZN4pyo33err5PyErr4take17h578dd04af4e7c8c9E, symObjAddr: 0x5498, symBinAddr: 0x46820, symSize: 0x270 }
  - { offset: 0x1304D1, size: 0x8, addend: 0x0, symName: __ZN4pyo33err5PyErr5cause17h210d7be5d82044eaE, symObjAddr: 0x585C, symBinAddr: 0x46B70, symSize: 0x44 }
  - { offset: 0x130558, size: 0x8, addend: 0x0, symName: __ZN4pyo33err5PyErr5fetch17h98f8cd0aa8a18fc0E, symObjAddr: 0x58A0, symBinAddr: 0x46BB4, symSize: 0x5C }
  - { offset: 0x130587, size: 0x8, addend: 0x0, symName: __ZN4pyo33err5PyErr5print17hbabac762c99b11e2E, symObjAddr: 0x58FC, symBinAddr: 0x46C10, symSize: 0x3C }
  - { offset: 0x1305D2, size: 0x8, addend: 0x0, symName: __ZN4pyo33err5PyErr5value17h9a5b9d1521a24081E, symObjAddr: 0x5938, symBinAddr: 0x46C4C, symSize: 0x28 }
  - { offset: 0x130610, size: 0x8, addend: 0x0, symName: __ZN4pyo33err5PyErr7restore17hd7f7da681ea6cdd6E, symObjAddr: 0x598C, symBinAddr: 0x46C74, symSize: 0x38 }
  - { offset: 0x13064F, size: 0x8, addend: 0x0, symName: __ZN4pyo33err5PyErr8get_type17hd02398167c379364E, symObjAddr: 0x59C4, symBinAddr: 0x46CAC, symSize: 0x28 }
  - { offset: 0x13069A, size: 0x8, addend: 0x0, symName: __ZN4pyo33err5PyErr8new_type17h66529526c01c4106E, symObjAddr: 0x59EC, symBinAddr: 0x46CD4, symSize: 0x1E0 }
  - { offset: 0x1307EE, size: 0x8, addend: 0x0, symName: __ZN4pyo33err5PyErr9clone_ref17he866712fd86e233dE, symObjAddr: 0x5BCC, symBinAddr: 0x46EB4, symSize: 0x44 }
  - { offset: 0x13082C, size: 0x8, addend: 0x0, symName: __ZN4pyo33err5PyErr9set_cause17h4b79ebaf1e9dd387E, symObjAddr: 0x5C10, symBinAddr: 0x46EF8, symSize: 0x164 }
  - { offset: 0x1308BC, size: 0x8, addend: 0x0, symName: __ZN4pyo33err5PyErr9traceback17h8015c9df2ef2f3b4E, symObjAddr: 0x5DAC, symBinAddr: 0x47094, symSize: 0x28 }
  - { offset: 0x13093D, size: 0x8, addend: 0x0, symName: __ZN4pyo35types8iterator10PyIterator11from_object17h49921d877d4ff761E, symObjAddr: 0x65BC, symBinAddr: 0x470F0, symSize: 0x5C }
  - { offset: 0x131E8D, size: 0x8, addend: 0x0, symName: '__ZN145_$LT$core..option..Option$LT$T$GT$$u20$as$u20$core..ops..try_trait..FromResidual$LT$core..option..Option$LT$core..convert..Infallible$GT$$GT$$GT$13from_residual17h36f8195a15849235E', symObjAddr: 0x6BC, symBinAddr: 0x481E8, symSize: 0x10 }
  - { offset: 0x132FAD, size: 0x8, addend: 0x0, symName: '__ZN66_$LT$core..option..Option$LT$T$GT$$u20$as$u20$core..fmt..Debug$GT$3fmt17h2932727297e57c4bE', symObjAddr: 0x48B4, symBinAddr: 0x49AD8, symSize: 0xA0 }
  - { offset: 0x133017, size: 0x8, addend: 0x0, symName: '__ZN72_$LT$core..option..Option$LT$T$GT$$u20$as$u20$core..default..Default$GT$7default17h273cc39cd053d59dE', symObjAddr: 0x4B74, symBinAddr: 0x49B78, symSize: 0x8 }
  - { offset: 0x13303F, size: 0x8, addend: 0x0, symName: '__ZN72_$LT$core..option..Option$LT$T$GT$$u20$as$u20$core..default..Default$GT$7default17h27f2cafb82573f11E', symObjAddr: 0x4B7C, symBinAddr: 0x49B80, symSize: 0x8 }
  - { offset: 0x133067, size: 0x8, addend: 0x0, symName: '__ZN72_$LT$core..option..Option$LT$T$GT$$u20$as$u20$core..default..Default$GT$7default17hf33fb620e64e7316E', symObjAddr: 0x4B8C, symBinAddr: 0x49B88, symSize: 0x8 }
  - { offset: 0x13308F, size: 0x8, addend: 0x0, symName: '__ZN72_$LT$core..option..Option$LT$T$GT$$u20$as$u20$core..default..Default$GT$7default17hfb0fe0e387b7782fE', symObjAddr: 0x4B94, symBinAddr: 0x49B90, symSize: 0x8 }
  - { offset: 0x1330BD, size: 0x8, addend: 0x0, symName: '__ZN75_$LT$core..option..Option$LT$T$GT$$u20$as$u20$core..ops..try_trait..Try$GT$6branch17h7599d50b420594f5E', symObjAddr: 0x4C34, symBinAddr: 0x49B98, symSize: 0x40 }
  - { offset: 0x133A47, size: 0x8, addend: 0x0, symName: __ZN4core3mem4drop17hce05dfa565211d59E, symObjAddr: 0x12B8, symBinAddr: 0x48C2C, symSize: 0x2C }
  - { offset: 0x133A7A, size: 0x8, addend: 0x0, symName: __ZN4core3mem4drop17hf4f0725f607a41cbE, symObjAddr: 0x12E4, symBinAddr: 0x48C58, symSize: 0x2C }
  - { offset: 0x133AE0, size: 0x8, addend: 0x0, symName: __ZN4core3mem4take17h1d29dfb195a17b95E, symObjAddr: 0x1310, symBinAddr: 0x48C84, symSize: 0x54 }
  - { offset: 0x133B70, size: 0x8, addend: 0x0, symName: __ZN4core3mem4take17h30744e3d70aa8968E, symObjAddr: 0x1364, symBinAddr: 0x48CD8, symSize: 0x54 }
  - { offset: 0x133C00, size: 0x8, addend: 0x0, symName: __ZN4core3mem4take17h4ab642729c02e1edE, symObjAddr: 0x13B8, symBinAddr: 0x48D2C, symSize: 0x54 }
  - { offset: 0x133C90, size: 0x8, addend: 0x0, symName: __ZN4core3mem4take17he553a976a1c1a39eE, symObjAddr: 0x140C, symBinAddr: 0x48D80, symSize: 0x54 }
  - { offset: 0x133CED, size: 0x8, addend: 0x0, symName: __ZN4core3mem6forget17h040f62a00e33e706E, symObjAddr: 0x1460, symBinAddr: 0x48DD4, symSize: 0x14 }
  - { offset: 0x133E66, size: 0x8, addend: 0x0, symName: '__ZN4core3cmp5impls54_$LT$impl$u20$core..cmp..PartialEq$u20$for$u20$i32$GT$2ne17h920bdbeb95de7dbbE', symObjAddr: 0x1050, symBinAddr: 0x48B0C, symSize: 0x2C }
  - { offset: 0x133EA9, size: 0x8, addend: 0x0, symName: '__ZN4core3cmp5impls54_$LT$impl$u20$core..cmp..PartialEq$u20$for$u20$i64$GT$2eq17h73dd492c2330cedeE', symObjAddr: 0x107C, symBinAddr: 0x48B38, symSize: 0x2C }
  - { offset: 0x133EE6, size: 0x8, addend: 0x0, symName: '__ZN4core3cmp5impls54_$LT$impl$u20$core..cmp..PartialEq$u20$for$u20$i64$GT$2ne17h38d376556ab74accE', symObjAddr: 0x10A8, symBinAddr: 0x48B64, symSize: 0x2C }
  - { offset: 0x133F29, size: 0x8, addend: 0x0, symName: '__ZN4core3cmp5impls54_$LT$impl$u20$core..cmp..PartialEq$u20$for$u20$u64$GT$2eq17hee5a32049182cfaeE', symObjAddr: 0x10D4, symBinAddr: 0x48B90, symSize: 0x2C }
  - { offset: 0x133F6C, size: 0x8, addend: 0x0, symName: '__ZN4core3cmp5impls56_$LT$impl$u20$core..cmp..PartialEq$u20$for$u20$isize$GT$2ne17h1c7b45eaf7be8ff1E', symObjAddr: 0x113C, symBinAddr: 0x48BBC, symSize: 0x2C }
  - { offset: 0x133FAF, size: 0x8, addend: 0x0, symName: '__ZN4core3cmp5impls69_$LT$impl$u20$core..cmp..PartialEq$LT$$RF$B$GT$$u20$for$u20$$RF$A$GT$2eq17h3471054f55dd7037E', symObjAddr: 0x1194, symBinAddr: 0x48BE8, symSize: 0x44 }
  - { offset: 0x134015, size: 0x8, addend: 0x0, symName: '__ZN102_$LT$core..iter..adapters..map..Map$LT$I$C$F$GT$$u20$as$u20$core..iter..traits..iterator..Iterator$GT$4next17hb767ef977c1c7011E', symObjAddr: 0x130, symBinAddr: 0x48110, symSize: 0xB4 }
  - { offset: 0x1340B1, size: 0x8, addend: 0x0, symName: '__ZN102_$LT$core..iter..adapters..map..Map$LT$I$C$F$GT$$u20$as$u20$core..iter..traits..iterator..Iterator$GT$9size_hint17hc875669c4df76432E', symObjAddr: 0x334, symBinAddr: 0x481C4, symSize: 0x24 }
  - { offset: 0x1341D3, size: 0x8, addend: 0x0, symName: __ZN4core4iter6traits8iterator8Iterator7collect17h99c77394ef893241E, symObjAddr: 0x1590, symBinAddr: 0x48DE8, symSize: 0x14 }
  - { offset: 0x134214, size: 0x8, addend: 0x0, symName: __ZN4core4iter6traits8iterator8Iterator9enumerate17h8904d10574104b2fE, symObjAddr: 0x1690, symBinAddr: 0x48DFC, symSize: 0x18 }
  - { offset: 0x134245, size: 0x8, addend: 0x0, symName: __ZN4core4iter6traits8iterator8Iterator9enumerate17h8904d10574104b2fE, symObjAddr: 0x1690, symBinAddr: 0x48DFC, symSize: 0x18 }
  - { offset: 0x134260, size: 0x8, addend: 0x0, symName: __ZN4core4iter6traits8iterator8Iterator9enumerate17hb544b64a1e7c0f10E, symObjAddr: 0x16A8, symBinAddr: 0x48E14, symSize: 0x18 }
  - { offset: 0x134291, size: 0x8, addend: 0x0, symName: __ZN4core4iter6traits8iterator8Iterator9enumerate17hb544b64a1e7c0f10E, symObjAddr: 0x16A8, symBinAddr: 0x48E14, symSize: 0x18 }
  - { offset: 0x1342B8, size: 0x8, addend: 0x0, symName: '__ZN63_$LT$I$u20$as$u20$core..iter..traits..collect..IntoIterator$GT$9into_iter17hac71335715e242acE', symObjAddr: 0x4834, symBinAddr: 0x49AA8, symSize: 0x30 }
  - { offset: 0x134A44, size: 0x8, addend: 0x0, symName: '__ZN82_$LT$core..array..iter..IntoIter$LT$T$C$_$GT$$u20$as$u20$core..ops..drop..Drop$GT$4drop17h19bd9caacdcfd0c3E', symObjAddr: 0x4DFC, symBinAddr: 0x49CC8, symSize: 0x30 }
  - { offset: 0x134A95, size: 0x8, addend: 0x0, symName: '__ZN82_$LT$core..array..iter..IntoIter$LT$T$C$_$GT$$u20$as$u20$core..ops..drop..Drop$GT$4drop17hc97cfa358c4f7865E', symObjAddr: 0x4E40, symBinAddr: 0x49CF8, symSize: 0x30 }
  - { offset: 0x134AEC, size: 0x8, addend: 0x0, symName: '__ZN99_$LT$core..array..iter..IntoIter$LT$T$C$_$GT$$u20$as$u20$core..iter..traits..iterator..Iterator$GT$4next17h2e4e8910a5525ee0E', symObjAddr: 0x5BB0, symBinAddr: 0x49D80, symSize: 0x2C }
  - { offset: 0x134B21, size: 0x8, addend: 0x0, symName: '__ZN99_$LT$core..array..iter..IntoIter$LT$T$C$_$GT$$u20$as$u20$core..iter..traits..iterator..Iterator$GT$4next17h4619e34605372966E', symObjAddr: 0x5BDC, symBinAddr: 0x49DAC, symSize: 0x2C }
  - { offset: 0x134C01, size: 0x8, addend: 0x0, symName: '__ZN4core5slice4iter87_$LT$impl$u20$core..iter..traits..collect..IntoIterator$u20$for$u20$$RF$$u5b$T$u5d$$GT$9into_iter17ha0d3c7e267ac90d0E', symObjAddr: 0x19D8, symBinAddr: 0x48E2C, symSize: 0x50 }
  - { offset: 0x1364A2, size: 0x8, addend: 0x0, symName: __ZN3std4sync6poison10map_result17h83d0bab9992446c9E, symObjAddr: 0x6F4, symBinAddr: 0x481F8, symSize: 0xC4 }
  - { offset: 0x136536, size: 0x8, addend: 0x0, symName: __ZN3std4sync6poison10map_result17hebf32afeac6b5992E, symObjAddr: 0x7B8, symBinAddr: 0x482BC, symSize: 0xC4 }
  - { offset: 0x1365CA, size: 0x8, addend: 0x0, symName: __ZN3std4sync6poison10map_result17hfc493560d5090729E, symObjAddr: 0x87C, symBinAddr: 0x48380, symSize: 0xC4 }
  - { offset: 0x136696, size: 0x8, addend: 0x0, symName: '__ZN76_$LT$std..sync..poison..PoisonError$LT$T$GT$$u20$as$u20$core..fmt..Debug$GT$3fmt17h21e6c667459b4df4E', symObjAddr: 0x4CBC, symBinAddr: 0x49BD8, symSize: 0x50 }
  - { offset: 0x1366D9, size: 0x8, addend: 0x0, symName: '__ZN76_$LT$std..sync..poison..PoisonError$LT$T$GT$$u20$as$u20$core..fmt..Debug$GT$3fmt17h22ef63bfc07f0293E', symObjAddr: 0x4D0C, symBinAddr: 0x49C28, symSize: 0x50 }
  - { offset: 0x13671C, size: 0x8, addend: 0x0, symName: '__ZN76_$LT$std..sync..poison..PoisonError$LT$T$GT$$u20$as$u20$core..fmt..Debug$GT$3fmt17hfd980c1aef9d30d9E', symObjAddr: 0x4D5C, symBinAddr: 0x49C78, symSize: 0x50 }
  - { offset: 0x136986, size: 0x8, addend: 0x0, symName: __ZN3std9panicking12catch_unwind7do_call17h37103f09480da44bE, symObjAddr: 0xA98, symBinAddr: 0x4859C, symSize: 0x78 }
  - { offset: 0x136A6D, size: 0x8, addend: 0x0, symName: __ZN3std9panicking12catch_unwind7do_call17h5b9308be58de45a2E, symObjAddr: 0xB10, symBinAddr: 0x48614, symSize: 0x6C }
  - { offset: 0x136B54, size: 0x8, addend: 0x0, symName: __ZN3std9panicking12catch_unwind7do_call17h847711931163d79bE, symObjAddr: 0xB7C, symBinAddr: 0x48680, symSize: 0x7C }
  - { offset: 0x136C3B, size: 0x8, addend: 0x0, symName: __ZN3std9panicking12catch_unwind7do_call17hc790b19efbaace34E, symObjAddr: 0xBF8, symBinAddr: 0x486FC, symSize: 0x7C }
  - { offset: 0x136D22, size: 0x8, addend: 0x0, symName: __ZN3std9panicking12catch_unwind7do_call17he0b137d36425e0d7E, symObjAddr: 0xC74, symBinAddr: 0x48778, symSize: 0x7C }
  - { offset: 0x136E09, size: 0x8, addend: 0x0, symName: __ZN3std9panicking12catch_unwind7do_call17he101e329313bcaa4E, symObjAddr: 0xCF0, symBinAddr: 0x487F4, symSize: 0x78 }
  - { offset: 0x136EF0, size: 0x8, addend: 0x0, symName: __ZN3std9panicking12catch_unwind8do_catch17h0239162adb667acdE, symObjAddr: 0xD68, symBinAddr: 0x4886C, symSize: 0x70 }
  - { offset: 0x136F85, size: 0x8, addend: 0x0, symName: __ZN3std9panicking12catch_unwind8do_catch17h1a57741e468f85bcE, symObjAddr: 0xDD8, symBinAddr: 0x488DC, symSize: 0x70 }
  - { offset: 0x13701A, size: 0x8, addend: 0x0, symName: __ZN3std9panicking12catch_unwind8do_catch17h97f85d57c2b6d371E, symObjAddr: 0xE48, symBinAddr: 0x4894C, symSize: 0x70 }
  - { offset: 0x1370AF, size: 0x8, addend: 0x0, symName: __ZN3std9panicking12catch_unwind8do_catch17hb85537add2b99f9eE, symObjAddr: 0xEB8, symBinAddr: 0x489BC, symSize: 0x70 }
  - { offset: 0x137144, size: 0x8, addend: 0x0, symName: __ZN3std9panicking12catch_unwind8do_catch17hc35cacbde52c8b8cE, symObjAddr: 0xF28, symBinAddr: 0x48A2C, symSize: 0x70 }
  - { offset: 0x1371D9, size: 0x8, addend: 0x0, symName: __ZN3std9panicking12catch_unwind8do_catch17hc52c45c46154a760E, symObjAddr: 0xF98, symBinAddr: 0x48A9C, symSize: 0x70 }
  - { offset: 0x137E1D, size: 0x8, addend: 0x0, symName: __ZN3std4sync6poison4Flag4done17he53e85ad14388a0fE, symObjAddr: 0x940, symBinAddr: 0x48444, symSize: 0x8C }
  - { offset: 0x137F0B, size: 0x8, addend: 0x0, symName: __ZN3std4sync6poison4Flag5guard17hcb64ba3ebfc24cddE, symObjAddr: 0x9CC, symBinAddr: 0x484D0, symSize: 0xCC }
  - { offset: 0x138395, size: 0x8, addend: 0x0, symName: '__ZN4core6option15Option$LT$T$GT$11map_or_else17ha36b53f0118db80fE', symObjAddr: 0x1D48, symBinAddr: 0x48E7C, symSize: 0xC0 }
  - { offset: 0x138418, size: 0x8, addend: 0x0, symName: '__ZN4core6option15Option$LT$T$GT$14unwrap_or_else17h8ee3a19199604776E', symObjAddr: 0x1E08, symBinAddr: 0x48F3C, symSize: 0x58 }
  - { offset: 0x1385AB, size: 0x8, addend: 0x0, symName: '__ZN4core6option15Option$LT$T$GT$16unwrap_unchecked17h667490892dd69159E', symObjAddr: 0x1E60, symBinAddr: 0x48F94, symSize: 0x4C }
  - { offset: 0x1385F9, size: 0x8, addend: 0x0, symName: '__ZN4core6option15Option$LT$T$GT$16unwrap_unchecked17h8213f9fe4986d2ebE', symObjAddr: 0x1EAC, symBinAddr: 0x48FE0, symSize: 0x4C }
  - { offset: 0x138670, size: 0x8, addend: 0x0, symName: '__ZN4core6option15Option$LT$T$GT$3map17h0eea0a6b4e4061bbE', symObjAddr: 0x1F4C, symBinAddr: 0x4902C, symSize: 0xA0 }
  - { offset: 0x1386DC, size: 0x8, addend: 0x0, symName: '__ZN4core6option15Option$LT$T$GT$3map17h12c36556514d09a5E', symObjAddr: 0x1FEC, symBinAddr: 0x490CC, symSize: 0x50 }
  - { offset: 0x13876C, size: 0x8, addend: 0x0, symName: '__ZN4core6option15Option$LT$T$GT$3map17h3d772d066ff8867dE', symObjAddr: 0x208C, symBinAddr: 0x4911C, symSize: 0x50 }
  - { offset: 0x1387D7, size: 0x8, addend: 0x0, symName: '__ZN4core6option15Option$LT$T$GT$3map17h64b26ed6d5b257b6E', symObjAddr: 0x20DC, symBinAddr: 0x4916C, symSize: 0x84 }
  - { offset: 0x138843, size: 0x8, addend: 0x0, symName: '__ZN4core6option15Option$LT$T$GT$3map17h69a222fa6117bbc4E', symObjAddr: 0x2160, symBinAddr: 0x491F0, symSize: 0x5C }
  - { offset: 0x1388AE, size: 0x8, addend: 0x0, symName: '__ZN4core6option15Option$LT$T$GT$3map17h9ac416abfb88f539E', symObjAddr: 0x21BC, symBinAddr: 0x4924C, symSize: 0x78 }
  - { offset: 0x138931, size: 0x8, addend: 0x0, symName: '__ZN4core6option15Option$LT$T$GT$3map17h9c9b9747d72f49bdE', symObjAddr: 0x2234, symBinAddr: 0x492C4, symSize: 0x7C }
  - { offset: 0x1389B4, size: 0x8, addend: 0x0, symName: '__ZN4core6option15Option$LT$T$GT$3map17hc6618711abd3aae1E', symObjAddr: 0x232C, symBinAddr: 0x49340, symSize: 0x50 }
  - { offset: 0x138A51, size: 0x8, addend: 0x0, symName: '__ZN4core6option15Option$LT$T$GT$4take17h42ec1057f0ab3dfcE', symObjAddr: 0x2418, symBinAddr: 0x49390, symSize: 0x20 }
  - { offset: 0x138AA8, size: 0x8, addend: 0x0, symName: '__ZN4core6option15Option$LT$T$GT$4take17h694a825313dbea1cE', symObjAddr: 0x2438, symBinAddr: 0x493B0, symSize: 0x20 }
  - { offset: 0x138AFF, size: 0x8, addend: 0x0, symName: '__ZN4core6option15Option$LT$T$GT$4take17h6ca9602d6a324901E', symObjAddr: 0x2458, symBinAddr: 0x493D0, symSize: 0x3C }
  - { offset: 0x138B56, size: 0x8, addend: 0x0, symName: '__ZN4core6option15Option$LT$T$GT$4take17ha7a83fdb7ae07a3cE', symObjAddr: 0x2494, symBinAddr: 0x4940C, symSize: 0x20 }
  - { offset: 0x138BAD, size: 0x8, addend: 0x0, symName: '__ZN4core6option15Option$LT$T$GT$4take17haa8e1bc7ae022725E', symObjAddr: 0x24B4, symBinAddr: 0x4942C, symSize: 0x3C }
  - { offset: 0x138C04, size: 0x8, addend: 0x0, symName: '__ZN4core6option15Option$LT$T$GT$4take17hc28c3825a7989515E', symObjAddr: 0x24F0, symBinAddr: 0x49468, symSize: 0x20 }
  - { offset: 0x138C5B, size: 0x8, addend: 0x0, symName: '__ZN4core6option15Option$LT$T$GT$4take17hf85fc6396bd8a1daE', symObjAddr: 0x2510, symBinAddr: 0x49488, symSize: 0x20 }
  - { offset: 0x138CBF, size: 0x8, addend: 0x0, symName: '__ZN4core6option15Option$LT$T$GT$6as_ref17h20ad195f6f608e72E', symObjAddr: 0x25B0, symBinAddr: 0x494A8, symSize: 0x4C }
  - { offset: 0x138D23, size: 0x8, addend: 0x0, symName: '__ZN4core6option15Option$LT$T$GT$6as_ref17h9e247af99d48e33bE', symObjAddr: 0x2648, symBinAddr: 0x494F4, symSize: 0x4C }
  - { offset: 0x138D7A, size: 0x8, addend: 0x0, symName: '__ZN4core6option15Option$LT$T$GT$6as_ref17hc7ef043a3698bd58E', symObjAddr: 0x2694, symBinAddr: 0x49540, symSize: 0x48 }
  - { offset: 0x138DDE, size: 0x8, addend: 0x0, symName: '__ZN4core6option15Option$LT$T$GT$6as_ref17hd7f11a1e59ea5575E', symObjAddr: 0x26DC, symBinAddr: 0x49588, symSize: 0x4C }
  - { offset: 0x138E28, size: 0x8, addend: 0x0, symName: '__ZN4core6option15Option$LT$T$GT$6expect17h287d8fcd7cb28866E', symObjAddr: 0x2728, symBinAddr: 0x495D4, symSize: 0x5C }
  - { offset: 0x138E63, size: 0x8, addend: 0x0, symName: '__ZN4core6option15Option$LT$T$GT$6expect17he78f7bdf8a633eeaE', symObjAddr: 0x2784, symBinAddr: 0x49630, symSize: 0x60 }
  - { offset: 0x138EB7, size: 0x8, addend: 0x0, symName: '__ZN4core6option15Option$LT$T$GT$6map_or17h07dc0f57b41b1955E', symObjAddr: 0x27E4, symBinAddr: 0x49690, symSize: 0x9C }
  - { offset: 0x138F41, size: 0x8, addend: 0x0, symName: '__ZN4core6option15Option$LT$T$GT$6map_or17hb5e99c5d001e6d5dE', symObjAddr: 0x292C, symBinAddr: 0x4972C, symSize: 0x9C }
  - { offset: 0x138FCB, size: 0x8, addend: 0x0, symName: '__ZN4core6option15Option$LT$T$GT$6map_or17hba6c15e60421ef22E', symObjAddr: 0x29C8, symBinAddr: 0x497C8, symSize: 0x9C }
  - { offset: 0x139055, size: 0x8, addend: 0x0, symName: '__ZN4core6option15Option$LT$T$GT$6map_or17hff23a44bfe2f95acE', symObjAddr: 0x2A64, symBinAddr: 0x49864, symSize: 0xA8 }
  - { offset: 0x1390E3, size: 0x8, addend: 0x0, symName: '__ZN4core6option15Option$LT$T$GT$7is_none17h42753a612c376686E', symObjAddr: 0x2B0C, symBinAddr: 0x4990C, symSize: 0x28 }
  - { offset: 0x139156, size: 0x8, addend: 0x0, symName: '__ZN4core6option15Option$LT$T$GT$7is_none17hd2b5db9196523d51E', symObjAddr: 0x2B5C, symBinAddr: 0x49934, symSize: 0x28 }
  - { offset: 0x1391C9, size: 0x8, addend: 0x0, symName: '__ZN4core6option15Option$LT$T$GT$7is_none17hfe656da52d2e8552E', symObjAddr: 0x2B84, symBinAddr: 0x4995C, symSize: 0x28 }
  - { offset: 0x139213, size: 0x8, addend: 0x0, symName: '__ZN4core6option15Option$LT$T$GT$7is_some17h1c6fb7742bcddedeE', symObjAddr: 0x2BAC, symBinAddr: 0x49984, symSize: 0x28 }
  - { offset: 0x13924C, size: 0x8, addend: 0x0, symName: '__ZN4core6option15Option$LT$T$GT$7is_some17h4b7e381dfd314530E', symObjAddr: 0x2BD4, symBinAddr: 0x499AC, symSize: 0x28 }
  - { offset: 0x139285, size: 0x8, addend: 0x0, symName: '__ZN4core6option15Option$LT$T$GT$7replace17h9ea6f2e50fba46aeE', symObjAddr: 0x2BFC, symBinAddr: 0x499D4, symSize: 0x24 }
  - { offset: 0x1392DE, size: 0x8, addend: 0x0, symName: '__ZN4core6option15Option$LT$T$GT$9unwrap_or17hb298061c605b3a36E', symObjAddr: 0x2C68, symBinAddr: 0x499F8, symSize: 0x48 }
  - { offset: 0x139319, size: 0x8, addend: 0x0, symName: '__ZN4core6option15Option$LT$T$GT$9unwrap_or17hb94d96b5d263af76E', symObjAddr: 0x2CB0, symBinAddr: 0x49A40, symSize: 0x68 }
  - { offset: 0x1393D4, size: 0x8, addend: 0x0, symName: '__ZN88_$LT$hashbrown..scopeguard..ScopeGuard$LT$T$C$F$GT$$u20$as$u20$core..ops..drop..Drop$GT$4drop17h29b8b1a3d5f6f7a2E', symObjAddr: 0x4E70, symBinAddr: 0x49D28, symSize: 0x2C }
  - { offset: 0x13940E, size: 0x8, addend: 0x0, symName: '__ZN88_$LT$hashbrown..scopeguard..ScopeGuard$LT$T$C$F$GT$$u20$as$u20$core..ops..drop..Drop$GT$4drop17h83184feec1eb0defE', symObjAddr: 0x4E9C, symBinAddr: 0x49D54, symSize: 0x2C }
  - { offset: 0x139828, size: 0x8, addend: 0x0, symName: '__ZN100_$LT$core..array..iter..iter_inner..PolymorphicIter$LT$DATA$GT$$u20$as$u20$core..ops..drop..Drop$GT$4drop17h2ef547f284cc3213E', symObjAddr: 0x0, symBinAddr: 0x49DD8, symSize: 0x30 }
  - { offset: 0x13985C, size: 0x8, addend: 0x0, symName: '__ZN127_$LT$pyo3..instance..Bound$LT$pyo3..types..traceback..PyTraceback$GT$$u20$as$u20$pyo3..types..traceback..PyTracebackMethods$GT$6format8INTERNED17h72457444c05d0febE', symObjAddr: 0x54F0, symBinAddr: 0xF4590, symSize: 0x0 }
  - { offset: 0x139877, size: 0x8, addend: 0x0, symName: '__ZN127_$LT$pyo3..instance..Bound$LT$pyo3..types..traceback..PyTraceback$GT$$u20$as$u20$pyo3..types..traceback..PyTracebackMethods$GT$6format8INTERNED17h87a1d17cfa7f50adE', symObjAddr: 0x5510, symBinAddr: 0xF45B0, symSize: 0x0 }
  - { offset: 0x139892, size: 0x8, addend: 0x0, symName: '__ZN127_$LT$pyo3..instance..Bound$LT$pyo3..types..traceback..PyTraceback$GT$$u20$as$u20$pyo3..types..traceback..PyTracebackMethods$GT$6format8INTERNED17hcf57629e75897909E', symObjAddr: 0x5530, symBinAddr: 0xF45D0, symSize: 0x0 }
  - { offset: 0x139918, size: 0x8, addend: 0x0, symName: '__ZN4pyo35types5tuple74_$LT$impl$u20$pyo3..conversion..IntoPyObject$u20$for$u20$$LP$T0$C$$RP$$GT$13into_pyobject17h18318cfe6b8ee9eaE', symObjAddr: 0x35D4, symBinAddr: 0x4B810, symSize: 0xD8 }
  - { offset: 0x13A181, size: 0x8, addend: 0x0, symName: '__ZN47_$LT$T$u20$as$u20$pyo3..err..PyErrArguments$GT$9arguments17h18c9bc5a9fb82c81E', symObjAddr: 0x1B54, symBinAddr: 0x4B0A4, symSize: 0x128 }
  - { offset: 0x13A239, size: 0x8, addend: 0x0, symName: '__ZN47_$LT$T$u20$as$u20$pyo3..err..PyErrArguments$GT$9arguments17h260801deaff6809cE', symObjAddr: 0x1C7C, symBinAddr: 0x4B1CC, symSize: 0x4C }
  - { offset: 0x13A2B2, size: 0x8, addend: 0x0, symName: '__ZN4pyo33err5impls83_$LT$impl$u20$pyo3..err..PyErrArguments$u20$for$u20$alloc..ffi..c_str..NulError$GT$9arguments17h170aea4c477ec482E', symObjAddr: 0x2DA4, symBinAddr: 0x4B76C, symSize: 0xA4 }
  - { offset: 0x13A473, size: 0x8, addend: 0x0, symName: '__ZN152_$LT$core..result..Result$LT$pyo3..instance..Bound$LT$pyo3..types..any..PyAny$GT$$C$pyo3..err..PyErr$GT$$u20$as$u20$pyo3..py_result_ext..PyResultExt$GT$23downcast_into_unchecked28_$u7b$$u7b$closure$u7d$$u7d$17h1823e9b35b1f853fE', symObjAddr: 0x1BC, symBinAddr: 0x49E38, symSize: 0x24 }
  - { offset: 0x13A4B2, size: 0x8, addend: 0x0, symName: '__ZN152_$LT$core..result..Result$LT$pyo3..instance..Bound$LT$pyo3..types..any..PyAny$GT$$C$pyo3..err..PyErr$GT$$u20$as$u20$pyo3..py_result_ext..PyResultExt$GT$23downcast_into_unchecked28_$u7b$$u7b$closure$u7d$$u7d$17h6d854bdd345bf955E', symObjAddr: 0x24C, symBinAddr: 0x49E5C, symSize: 0x24 }
  - { offset: 0x13A4F1, size: 0x8, addend: 0x0, symName: '__ZN152_$LT$core..result..Result$LT$pyo3..instance..Bound$LT$pyo3..types..any..PyAny$GT$$C$pyo3..err..PyErr$GT$$u20$as$u20$pyo3..py_result_ext..PyResultExt$GT$23downcast_into_unchecked28_$u7b$$u7b$closure$u7d$$u7d$17h89b5fd99e52df3a7E', symObjAddr: 0x294, symBinAddr: 0x49E80, symSize: 0x24 }
  - { offset: 0x13A530, size: 0x8, addend: 0x0, symName: '__ZN152_$LT$core..result..Result$LT$pyo3..instance..Bound$LT$pyo3..types..any..PyAny$GT$$C$pyo3..err..PyErr$GT$$u20$as$u20$pyo3..py_result_ext..PyResultExt$GT$23downcast_into_unchecked28_$u7b$$u7b$closure$u7d$$u7d$17heeca302b8e5314efE', symObjAddr: 0x390, symBinAddr: 0x49EA4, symSize: 0x24 }
  - { offset: 0x13A598, size: 0x8, addend: 0x0, symName: __ZN4pyo310conversion15IntoPyObjectExt17into_bound_py_any17ha557658293911ef4E, symObjAddr: 0x2B6C, symBinAddr: 0x4B698, symSize: 0x60 }
  - { offset: 0x13A61F, size: 0x8, addend: 0x0, symName: '__ZN4pyo311conversions3std6string82_$LT$impl$u20$pyo3..conversion..IntoPyObject$u20$for$u20$alloc..string..String$GT$13into_pyobject17hcb0c8590f19d3223E', symObjAddr: 0x2C84, symBinAddr: 0x4B6F8, symSize: 0x74 }
  - { offset: 0x13D327, size: 0x8, addend: 0x0, symName: '__ZN70_$LT$core..num..error..TryFromIntError$u20$as$u20$core..fmt..Debug$GT$3fmt17h5108bbf90eef3a9aE', symObjAddr: 0x40FC, symBinAddr: 0x4BF84, symSize: 0x54 }
  - { offset: 0x13D3BE, size: 0x8, addend: 0x0, symName: '__ZN50_$LT$T$u20$as$u20$core..convert..Into$LT$U$GT$$GT$4into17h45f1552e219ae295E', symObjAddr: 0x371C, symBinAddr: 0x4B8E8, symSize: 0x14 }
  - { offset: 0x13D520, size: 0x8, addend: 0x0, symName: '__ZN100_$LT$core..array..iter..iter_inner..PolymorphicIter$LT$DATA$GT$$u20$as$u20$core..ops..drop..Drop$GT$4drop17h2ef547f284cc3213E', symObjAddr: 0x0, symBinAddr: 0x49DD8, symSize: 0x30 }
  - { offset: 0x13D56D, size: 0x8, addend: 0x0, symName: '__ZN100_$LT$core..array..iter..iter_inner..PolymorphicIter$LT$DATA$GT$$u20$as$u20$core..ops..drop..Drop$GT$4drop17hb602d7dd12d7d1a3E', symObjAddr: 0x30, symBinAddr: 0x49E08, symSize: 0x30 }
  - { offset: 0x13D6F6, size: 0x8, addend: 0x0, symName: '__ZN36_$LT$T$u20$as$u20$core..any..Any$GT$7type_id17h59e77ad693ff5d24E', symObjAddr: 0x404, symBinAddr: 0x49EC8, symSize: 0x20 }
  - { offset: 0x13D790, size: 0x8, addend: 0x0, symName: '__ZN42_$LT$$RF$T$u20$as$u20$core..fmt..Debug$GT$3fmt17h69343625f36d4168E', symObjAddr: 0x1974, symBinAddr: 0x4AFE4, symSize: 0x30 }
  - { offset: 0x13D855, size: 0x8, addend: 0x0, symName: __ZN4core3fmt5Write9write_fmt17h6b43dcccc184de35E, symObjAddr: 0x2744, symBinAddr: 0x4B4F4, symSize: 0x34 }
  - { offset: 0x13D8A2, size: 0x8, addend: 0x0, symName: '__ZN75_$LT$$RF$mut$u20$W$u20$as$u20$core..fmt..Write..write_fmt..SpecWriteFmt$GT$14spec_write_fmt17hc886a599914b34e7E', symObjAddr: 0x41CC, symBinAddr: 0x4C054, symSize: 0x98 }
  - { offset: 0x13DA02, size: 0x8, addend: 0x0, symName: '__ZN64_$LT$core..str..error..Utf8Error$u20$as$u20$core..fmt..Debug$GT$3fmt17h7b32bf74ffc27438E', symObjAddr: 0x3DE8, symBinAddr: 0x4BCD4, symSize: 0x88 }
